

Microchip MPLAB XC8 Assembler V2.41 build 20230208172133 
                                                                                               Mon Oct 09 15:26:51 2023

Microchip MPLAB XC8 C Compiler v2.41 (Free license) build 20230208172133 Og1 
     1                           	processor	18LF26K83
     2                           	fnconf	rparam,??,?,0
     3                           	pagewidth 120
     4                           	opt	flic
     5                           	psect	mediumconst,global,reloc=2,class=MEDIUMCONST,delta=1,noexec
     6                           	psect	nvBANK0,global,class=BANK0,space=1,delta=1,lowdata,noexec
     7                           	psect	cinit,global,reloc=2,class=CODE,delta=1
     8                           	psect	bssCOMRAM,global,class=COMRAM,space=1,delta=1,lowdata,noexec
     9                           	psect	bssBANK0,global,class=BANK0,space=1,delta=1,lowdata,noexec
    10                           	psect	bssBANK1,global,class=BANK1,space=1,delta=1,lowdata,noexec
    11                           	psect	bssBANK3,global,class=BANK3,space=1,delta=1,lowdata,noexec
    12                           	psect	bssBANK4,global,class=BANK4,space=1,delta=1,lowdata,noexec
    13                           	psect	cstackBANK3,global,class=BANK3,space=1,delta=1,lowdata,noexec
    14                           	psect	cstackBANK2,global,class=BANK2,space=1,delta=1,lowdata,noexec
    15                           	psect	cstackBANK1,global,class=BANK1,space=1,delta=1,lowdata,noexec
    16                           	psect	cstackBANK0,global,class=BANK0,space=1,delta=1,lowdata,noexec
    17                           	psect	cstackCOMRAM,global,class=COMRAM,space=1,delta=1,lowdata,noexec
    18                           	psect	text0,global,reloc=2,class=CODE,delta=1
    19                           	psect	text1,global,reloc=2,class=CODE,delta=1
    20                           	psect	text2,global,reloc=2,class=CODE,delta=1,group=2
    21                           	psect	text3,global,reloc=2,class=CODE,delta=1
    22                           	psect	text4,global,reloc=2,class=CODE,delta=1
    23                           	psect	text5,global,reloc=2,class=CODE,delta=1
    24                           	psect	text6,global,reloc=2,class=CODE,delta=1
    25                           	psect	text7,global,reloc=2,class=CODE,delta=1
    26                           	psect	text8,global,reloc=2,class=CODE,delta=1
    27                           	psect	text9,global,reloc=2,class=CODE,delta=1
    28                           	psect	text10,global,reloc=2,class=CODE,delta=1
    29                           	psect	text11,global,reloc=2,class=CODE,delta=1
    30                           	psect	text12,global,reloc=2,class=CODE,delta=1
    31                           	psect	text13,global,reloc=2,class=CODE,delta=1
    32                           	psect	text14,global,reloc=2,class=CODE,delta=1
    33                           	psect	text15,global,reloc=2,class=CODE,delta=1
    34                           	psect	text16,global,reloc=2,class=CODE,delta=1
    35                           	psect	text17,global,reloc=2,class=CODE,delta=1
    36                           	psect	text18,global,reloc=2,class=CODE,delta=1
    37                           	psect	text19,global,reloc=2,class=CODE,delta=1
    38                           	psect	text20,global,reloc=2,class=CODE,delta=1
    39                           	psect	text21,global,reloc=2,class=CODE,delta=1
    40                           	psect	text22,global,reloc=2,class=CODE,delta=1
    41                           	psect	text23,global,reloc=2,class=CODE,delta=1
    42                           	psect	text24,global,reloc=2,class=CODE,delta=1,group=2
    43                           	psect	text25,global,reloc=2,class=CODE,delta=1,group=2
    44                           	psect	text26,global,reloc=2,class=CODE,delta=1,group=2
    45                           	psect	text27,global,reloc=2,class=CODE,delta=1,group=1
    46                           	psect	text28,global,reloc=2,class=CODE,delta=1,group=2
    47                           	psect	text29,global,reloc=2,class=CODE,delta=1,group=2
    48                           	psect	text30,global,reloc=2,class=CODE,delta=1,group=1
    49                           	psect	text31,global,reloc=2,class=CODE,delta=1
    50                           	psect	text32,global,reloc=2,class=CODE,delta=1
    51                           	psect	text33,global,reloc=2,class=CODE,delta=1
    52                           	psect	text34,global,reloc=2,class=CODE,delta=1
    53                           	psect	text35,global,reloc=2,class=CODE,delta=1
    54                           	psect	text36,global,reloc=2,class=CODE,delta=1,group=1
    55                           	psect	text37,global,reloc=2,class=CODE,delta=1,group=1
    56                           	psect	text38,global,reloc=2,class=CODE,delta=1
    57                           	psect	text39,global,reloc=2,class=CODE,delta=1
    58                           	psect	text40,global,reloc=2,class=CODE,delta=1
    59                           	psect	text41,global,reloc=2,class=CODE,delta=1,group=1
    60                           	psect	text42,global,reloc=2,class=CODE,delta=1,group=1
    61                           	psect	text43,global,reloc=2,class=CODE,delta=1,group=1
    62                           	psect	text44,global,reloc=2,class=CODE,delta=1,group=1
    63                           	psect	text45,global,reloc=2,class=CODE,delta=1,group=1
    64                           	psect	text46,global,reloc=2,class=CODE,delta=1
    65                           	psect	text47,global,reloc=2,class=CODE,delta=1
    66                           	psect	text48,global,reloc=2,class=CODE,delta=1
    67                           	psect	ivt0x8,global,reloc=2,class=CODE,delta=1,noexec,keep,optim=
    68                           	psect	intsave_regs,global,class=BIGRAM,space=1,delta=1,noexec
    69                           	psect	text49,global,reloc=2,class=CODE,delta=1
    70                           	psect	rparam,global,class=COMRAM,space=1,delta=1,noexec
    71                           	psect	idloc,global,abs,ovrld,class=IDLOC,space=5,delta=1,noexec
    72                           	psect	config,global,abs,ovrld,class=CONFIG,space=4,delta=1,noexec
    73   000000                     
    74                           ; Version 2.20
    75                           ; Generated 05/05/2020 GMT
    76                           ; 
    77                           ; Copyright © 2020, Microchip Technology Inc. and its subsidiaries ("Microchip")
    78                           ; All rights reserved.
    79                           ; 
    80                           ; This software is developed by Microchip Technology Inc. and its subsidiaries ("Microch
      +                          ip").
    81                           ; 
    82                           ; Redistribution and use in source and binary forms, with or without modification, are
    83                           ; permitted provided that the following conditions are met:
    84                           ; 
    85                           ;     1. Redistributions of source code must retain the above copyright notice, this lis
      +                          t of
    86                           ;        conditions and the following disclaimer.
    87                           ; 
    88                           ;     2. Redistributions in binary form must reproduce the above copyright notice, this 
      +                          list
    89                           ;        of conditions and the following disclaimer in the documentation and/or other
    90                           ;        materials provided with the distribution.
    91                           ; 
    92                           ;     3. Microchip's name may not be used to endorse or promote products derived from th
      +                          is
    93                           ;        software without specific prior written permission.
    94                           ; 
    95                           ; THIS SOFTWARE IS PROVIDED BY MICROCHIP "AS IS" AND ANY EXPRESS OR IMPLIED WARRANTIES,
    96                           ; INCLUDING, BUT NOT LIMITED TO, THE IMPLIED WARRANTIES OF MERCHANTABILITY AND FITNESS F
      +                          OR
    97                           ; PURPOSE ARE DISCLAIMED.  IN NO EVENT SHALL MICROCHIP BE LIABLE FOR ANY DIRECT, INDIREC
      +                          T,
    98                           ; INCIDENTAL, SPECIAL, EXEMPLARY, OR CONSEQUENTIAL DAMAGES (INCLUDING BUT NOT LIMITED TO
    99                           ; PROCUREMENT OF SUBSTITUTE GOODS OR SERVICES; LOSS OF USE, DATA OR PROFITS; OR BUSINESS
   100                           ; INTERRUPTION) HOWSOEVER CAUSED AND ON ANY THEORY OF LIABILITY, WHETHER IN CONTRACT, ST
      +                          RICT
   101                           ; LIABILITY, OR TORT (INCLUDING NEGLIGENCE OR OTHERWISE) ARISING IN ANY WAY OUT OF THE U
      +                          SE OF
   102                           ; THIS SOFTWARE, EVEN IF ADVISED OF THE POSSIBILITY OF SUCH DAMAGE.
   103                           ; 
   104                           ; 
   105                           ; Code-generator required, PIC18LF26K83 Definitions
   106                           ; 
   107                           ; SFR Addresses
   108   000000                     
   109                           	psect	mediumconst
   110   00FE9A                     __pmediumconst:
   111                           	callstack 0
   112   00FE9A  00                 	db	0
   113   00FE9B                     VOC@F23485:
   114                           	callstack 0
   115   00FE9B  7102               	dw	28930
   116   00FE9D  73DE               	dw	29662
   117   00FE9F  761F               	dw	30239
   118   00FEA1  77E1               	dw	30689
   119   00FEA3  797D               	dw	31101
   120   00FEA5  7B16               	dw	31510
   121   00FEA7  7CAB               	dw	31915
   122   00FEA9  7E30               	dw	32304
   123   00FEAB  7F95               	dw	32661
   124   00FEAD  80C0               	dw	32960
   125   00FEAF  81DD               	dw	33245
   126   00FEB1  82BA               	dw	33466
   127   00FEB3  83A7               	dw	33703
   128   00FEB5  848B               	dw	33931
   129   00FEB7  8534               	dw	34100
   130   00FEB9  856F               	dw	34159
   131   00FEBB  85AE               	dw	34222
   132   00FEBD  8609               	dw	34313
   133   00FEBF  8644               	dw	34372
   134   00FEC1  8693               	dw	34451
   135   00FEC3  86EB               	dw	34539
   136   00FEC5  875A               	dw	34650
   137   00FEC7  87DD               	dw	34781
   138   00FEC9  8869               	dw	34921
   139   00FECB  88DE               	dw	35038
   140   00FECD  8964               	dw	35172
   141   00FECF  89CC               	dw	35276
   142   00FED1  8A2E               	dw	35374
   143   00FED3  8A90               	dw	35472
   144   00FED5  8AE8               	dw	35560
   145   00FED7  8B3E               	dw	35646
   146   00FED9  8BA0               	dw	35744
   147   00FEDB  8BFE               	dw	35838
   148   00FEDD  8C64               	dw	35940
   149   00FEDF  8CBC               	dw	36028
   150   00FEE1  8CFE               	dw	36094
   151   00FEE3  8D36               	dw	36150
   152   00FEE5  8D98               	dw	36248
   153   00FEE7  8DE0               	dw	36320
   154   00FEE9  8E2B               	dw	36395
   155   00FEEB  8E73               	dw	36467
   156   00FEED  8EBB               	dw	36539
   157   00FEEF  8F10               	dw	36624
   158   00FEF1  8F76               	dw	36726
   159   00FEF3  8FB4               	dw	36788
   160   00FEF5  9019               	dw	36889
   161   00FEF7  907B               	dw	36987
   162   00FEF9  90B3               	dw	37043
   163   00FEFB  9119               	dw	37145
   164   00FEFD  9181               	dw	37249
   165   00FEFF  91D3               	dw	37331
   166   00FF01  9232               	dw	37426
   167   00FF03  9287               	dw	37511
   168   00FF05  92EF               	dw	37615
   169   00FF07  932E               	dw	37678
   170   00FF09  9396               	dw	37782
   171   00FF0B  93DE               	dw	37854
   172   00FF0D  944A               	dw	37962
   173   00FF0F  94A5               	dw	38053
   174   00FF11  950B               	dw	38155
   175   00FF13  9573               	dw	38259
   176   00FF15  95DC               	dw	38364
   177   00FF17  964B               	dw	38475
   178   00FF19  96AD               	dw	38573
   179   00FF1B  970B               	dw	38667
   180   00FF1D  9771               	dw	38769
   181   00FF1F  97C6               	dw	38854
   182   00FF21  980B               	dw	38923
   183   00FF23  9876               	dw	39030
   184   00FF25  98BF               	dw	39103
   185   00FF27  9914               	dw	39188
   186   00FF29  9979               	dw	39289
   187   00FF2B  99DE               	dw	39390
   188   00FF2D  9A4D               	dw	39501
   189   00FF2F  9AB9               	dw	39609
   190   00FF31  9B1E               	dw	39710
   191   00FF33  9B90               	dw	39824
   192   00FF35  9C23               	dw	39971
   193   00FF37  9C8E               	dw	40078
   194   00FF39  9D11               	dw	40209
   195   00FF3B  9D80               	dw	40320
   196   00FF3D  9DD5               	dw	40405
   197   00FF3F  9DD8               	dw	40408
   198   00FF41  9E30               	dw	40496
   199   00FF43  9E5B               	dw	40539
   200   00FF45  9E86               	dw	40582
   201   00FF47  9E98               	dw	40600
   202   00FF49  9EBF               	dw	40639
   203   00FF4B  9ED1               	dw	40657
   204   00FF4D  9EF6               	dw	40694
   205   00FF4F  9EFC               	dw	40700
   206   00FF51  9F0A               	dw	40714
   207   00FF53  9F35               	dw	40757
   208   00FF55  9F5A               	dw	40794
   209   00FF57  9F85               	dw	40837
   210   00FF59  9FCA               	dw	40906
   211   00FF5B  A008               	dw	40968
   212   00FF5D  A06E               	dw	41070
   213   00FF5F  A0FD               	dw	41213
   214   00FF61  A1D3               	dw	41427
   215   00FF63  A2C4               	dw	41668
   216   00FF65                     __end_ofVOC@F23485:
   217                           	callstack 0
   218   00FF65                     _dp_l:
   219                           	callstack 0
   220   00FF65  0000               	dw	0
   221   00FF67  0000               	dw	0
   222   00FF69  CFDC               	dw	53212
   223   00FF6B  35D1               	dw	13777
   224   00FF6D                     __end_of_dp_l:
   225                           	callstack 0
   226   00FF6D                     _dp_h:
   227                           	callstack 0
   228   00FF6D  0000               	dw	0
   229   00FF6F  0000               	dw	0
   230   00FF71  C000               	dw	49152
   231   00FF73  3F15               	dw	16149
   232   00FF75                     __end_of_dp_h:
   233                           	callstack 0
   234   00FF75                     _half:
   235                           	callstack 0
   236   00FF75  0000               	dw	0
   237   00FF77  3F00               	dw	16128
   238   00FF79  0000               	dw	0
   239   00FF7B  BF00               	dw	48896
   240   00FF7D                     __end_of_half:
   241                           	callstack 0
   242   00FF7D  4260               	dw	16992
   243   00FF7F  0DA2               	dw	3490
   244   00FF81                     __end_of_tiny@sqrtf$F1482:
   245                           	callstack 0
   246   00FF81  A570               	dw	42352
   247   00FF83  36EC               	dw	14060
   248   00FF85                     __end_of_ivln2_l:
   249                           	callstack 0
   250   00FF85  AA3B               	dw	43579
   251   00FF87  3FB8               	dw	16312
   252   00FF89                     __end_of_ivln2:
   253                           	callstack 0
   254   00FF89  384F               	dw	14415
   255   00FF8B  3F76               	dw	16246
   256   00FF8D                     __end_of_cp:
   257                           	callstack 0
   258   00FF8D  AA3C               	dw	43580
   259   00FF8F  3338               	dw	13112
   260   00FF91                     __end_of_ovt:
   261                           	callstack 0
   262   00FF91  BE8C               	dw	48780
   263   00FF93  35BF               	dw	13759
   264   00FF95                     __end_of_lg2_l:
   265                           	callstack 0
   266   00FF95  7200               	dw	29184
   267   00FF97  3F31               	dw	16177
   268   00FF99                     __end_of_lg2_h:
   269                           	callstack 0
   270   00FF99  7218               	dw	29208
   271   00FF9B  3F31               	dw	16177
   272   00FF9D                     __end_of_lg2:
   273                           	callstack 0
   274   00FF9D  BB4C               	dw	47948
   275   00FF9F  3331               	dw	13105
   276   00FFA1                     __end_of_P5:
   277                           	callstack 0
   278   00FFA1  EA0E               	dw	59918
   279   00FFA3  B5DD               	dw	46557
   280   00FFA5                     __end_of_P4:
   281                           	callstack 0
   282   00FFA5  B355               	dw	45909
   283   00FFA7  388A               	dw	14474
   284   00FFA9                     __end_of_P3:
   285                           	callstack 0
   286   00FFA9  0B61               	dw	2913
   287   00FFAB  BB36               	dw	47926
   288   00FFAD                     __end_of_P2@powf$F1398:
   289                           	callstack 0
   290   00FFAD  AAAB               	dw	43691
   291   00FFAF  3E2A               	dw	15914
   292   00FFB1                     __end_of_P1@powf$F1397:
   293                           	callstack 0
   294   00FFB1  F142               	dw	61762
   295   00FFB3  3E53               	dw	15955
   296   00FFB5                     __end_of_L6:
   297                           	callstack 0
   298   00FFB5  3255               	dw	12885
   299   00FFB7  3E6C               	dw	15980
   300   00FFB9                     __end_of_L5:
   301                           	callstack 0
   302   00FFB9  A305               	dw	41733
   303   00FFBB  3E8B               	dw	16011
   304   00FFBD                     __end_of_L4:
   305                           	callstack 0
   306   00FFBD  AAAB               	dw	43691
   307   00FFBF  3EAA               	dw	16042
   308   00FFC1                     __end_of_L3:
   309                           	callstack 0
   310   00FFC1  6DB7               	dw	28087
   311   00FFC3  3EDB               	dw	16091
   312   00FFC5                     __end_of_L2:
   313                           	callstack 0
   314   00FFC5  999A               	dw	39322
   315   00FFC7  3F19               	dw	16153
   316   00FFC9                     __end_of_L1:
   317                           	callstack 0
   318   00FFC9  4260               	dw	16992
   319   00FFCB  0DA2               	dw	3490
   320   00FFCD                     __end_of_tiny:
   321                           	callstack 0
   322   00FFCD  F2CA               	dw	62154
   323   00FFCF  7149               	dw	29001
   324   00FFD1                     __end_of_huge:
   325                           	callstack 0
   326   00FFD1  0000               	dw	0
   327   00FFD3  4B80               	dw	19328
   328   00FFD5                     __end_of_two24:
   329                           	callstack 0
   330   00FFD5  5215               	dw	21013
   331   00FFD7  BB35               	dw	47925
   332   00FFD9                     __end_of_P2:
   333                           	callstack 0
   334   00FFD9  AA8F               	dw	43663
   335   00FFDB  3E2A               	dw	15914
   336   00FFDD                     __end_of_P1:
   337                           	callstack 0
   338   00FFDD  BE8E               	dw	48782
   339   00FFDF  35BF               	dw	13759
   340   00FFE1                     __end_of_ln2lo:
   341                           	callstack 0
   342   00FFE1  7200               	dw	29184
   343   00FFE3  3F31               	dw	16177
   344   00FFE5                     __end_of_ln2hi:
   345                           	callstack 0
   346   00FFE5                     _bp:
   347                           	callstack 0
   348   00FFE5  0000               	dw	0
   349   00FFE7  3F80               	dw	16256
   350   00FFE9  0000               	dw	0
   351   00FFEB  3FC0               	dw	16320
   352   00FFED                     __end_of_bp:
   353                           	callstack 0
   354   00FFED  AA00               	dw	43520
   355   00FFEF  3FB8               	dw	16312
   356   00FFF1                     __end_of_ivln2_h:
   357                           	callstack 0
   358   00FFF1  23C6               	dw	9158
   359   00FFF3  B8F6               	dw	47350
   360   00FFF5                     __end_of_cp_l:
   361                           	callstack 0
   362   00FFF5  4000               	dw	16384
   363   00FFF7  3F76               	dw	16246
   364   00FFF9                     __end_of_cp_h:
   365                           	callstack 0
   366   00FFF9  AA3B               	dw	43579
   367   00FFFB  3FB8               	dw	16312
   368   00FFFD                     __end_of_invln2:
   369                           	callstack 0
   370   000000                     _T0CON0	set	16312
   371   000000                     _OSCTUNE	set	14814
   372   000000                     _OSCFRQ	set	14815
   373   00FFFD                     STR_1:
   374   00FFFD  00                 	db	0
   375   00FFFE  00                 	db	0	; dummy byte at the end
   376   000000                     
   377                           	psect	nvBANK0
   378   0000EF                     __pnvBANK0:
   379                           	callstack 0
   380   0000EF                     _TMR0_InterruptHandler:
   381                           	callstack 0
   382   0000EF                     	ds	2
   383   0000F1                     _UART1_ErrorHandler:
   384                           	callstack 0
   385   0000F1                     	ds	2
   386   0000F3                     _UART1_OverrunErrorHandler:
   387                           	callstack 0
   388   0000F3                     	ds	2
   389   0000F5                     _UART1_FramingErrorHandler:
   390                           	callstack 0
   391   0000F5                     	ds	2
   392   000000                     _U1ERRIRbits	set	15865
   393   000000                     _U1CON0bits	set	15858
   394   000000                     _T0CON0bits	set	16312
   395   000000                     _PIE3bits	set	14739
   396   000000                     _PIR3bits	set	14755
   397   000000                     _PMD0	set	14784
   398   000000                     _OSCCON1	set	14809
   399   000000                     _RC6PPS	set	14870
   400   000000                     _ANSELA	set	14912
   401   000000                     _ANSELB	set	14928
   402   000000                     _ANSELC	set	14944
   403   000000                     _LATA	set	16314
   404   000000                     _TRISA	set	16322
   405   000000                     _LATC	set	16316
   406   000000                     _LATB	set	16315
   407   000000                     _INTCON0bits	set	16338
   408   000000                     _TRISC	set	16324
   409   000000                     _TRISB	set	16323
   410   000000                     _INLVLC	set	14948
   411   000000                     _SLRCONC	set	14947
   412   000000                     _ODCONC	set	14946
   413   000000                     _WPUC	set	14945
   414   000000                     _WPUE	set	14977
   415   000000                     _INLVLB	set	14932
   416   000000                     _SLRCONB	set	14931
   417   000000                     _ODCONB	set	14930
   418   000000                     _WPUB	set	14929
   419   000000                     _INLVLA	set	14916
   420   000000                     _SLRCONA	set	14915
   421   000000                     _ODCONA	set	14914
   422   000000                     _WPUA	set	14913
   423   000000                     _INLVLE	set	14980
   424   000000                     _U1RXPPS	set	15079
   425   000000                     _U1RXB	set	15848
   426   000000                     _U1P1L	set	15852
   427   000000                     _OSCCON3	set	14811
   428   000000                     _OSCEN	set	14813
   429   000000                     _PMD7	set	14791
   430   000000                     _PMD6	set	14790
   431   000000                     _PMD5	set	14789
   432   000000                     _PMD4	set	14788
   433   000000                     _PMD3	set	14787
   434   000000                     _PMD2	set	14786
   435   000000                     _PMD1	set	14785
   436   000000                     _TMR0L	set	16310
   437   000000                     _TMR0H	set	16311
   438   000000                     _T0CON1	set	16313
   439   000000                     _U1ERRIE	set	15866
   440   000000                     _U1ERRIR	set	15865
   441   000000                     _U1UIR	set	15864
   442   000000                     _U1FIFO	set	15863
   443   000000                     _U1BRGH	set	15862
   444   000000                     _U1BRGL	set	15861
   445   000000                     _U1CON2	set	15860
   446   000000                     _U1CON1	set	15859
   447   000000                     _U1CON0	set	15858
   448   000000                     _U1P3H	set	15857
   449   000000                     _U1P3L	set	15856
   450   000000                     _U1P2H	set	15855
   451   000000                     _U1P2L	set	15854
   452   000000                     _U1P1H	set	15853
   453   000000                     _U1TXB	set	15850
   454                           
   455                           ; #config settings
   456                           
   457                           	psect	cinit
   458   005F20                     __pcinit:
   459                           	callstack 0
   460   005F20                     start_initialization:
   461                           	callstack 0
   462   005F20                     __initialization:
   463                           	callstack 0
   464                           
   465                           ; Clear objects allocated to BANK4 (128 bytes)
   466   005F20  EE01  F000         	lfsr	0,__pbssBANK4
   467   005F24  0E80               	movlw	128
   468   005F26                     clear_0:
   469   005F26  6AEE               	clrf	postinc0,c
   470   005F28  06E8               	decf	wreg,f,c
   471   005F2A  E1FD               	bnz	clear_0
   472                           
   473                           ; Clear objects allocated to BANK3 (5 bytes)
   474   005F2C  0103               	movlb	3
   475   005F2E  6BB8               	clrf	(__pbssBANK3+4)& (0+255),b
   476   005F30  6BB7               	clrf	(__pbssBANK3+3)& (0+255),b
   477   005F32  6BB6               	clrf	(__pbssBANK3+2)& (0+255),b
   478   005F34  6BB5               	clrf	(__pbssBANK3+1)& (0+255),b
   479   005F36  6BB4               	clrf	__pbssBANK3& (0+255),b
   480                           
   481                           ; Clear objects allocated to BANK1 (8 bytes)
   482   005F38  EE00  F1E3         	lfsr	0,__pbssBANK1
   483   005F3C  0E08               	movlw	8
   484   005F3E                     clear_1:
   485   005F3E  6AEE               	clrf	postinc0,c
   486   005F40  06E8               	decf	wreg,f,c
   487   005F42  E1FD               	bnz	clear_1
   488                           
   489                           ; Clear objects allocated to BANK0 (6 bytes)
   490   005F44  0100               	movlb	0
   491   005F46  6BFC               	clrf	(__pbssBANK0+5)& (0+255),b
   492   005F48  6BFB               	clrf	(__pbssBANK0+4)& (0+255),b
   493   005F4A  6BFA               	clrf	(__pbssBANK0+3)& (0+255),b
   494   005F4C  6BF9               	clrf	(__pbssBANK0+2)& (0+255),b
   495   005F4E  6BF8               	clrf	(__pbssBANK0+1)& (0+255),b
   496   005F50  6BF7               	clrf	__pbssBANK0& (0+255),b
   497                           
   498                           ; Clear objects allocated to COMRAM (1 bytes)
   499   005F52  6A5C               	clrf	__pbssCOMRAM& (0+255),c
   500                           
   501                           ;
   502                           ; Setup IVTBASE
   503                           ;
   504   005F54  0E08               	movlw	(ivt0x8_base shr 0)& (0+255)
   505   005F56  6ED5               	movwf	213,c
   506   005F58  0E00               	movlw	(ivt0x8_base shr (0+8))& (0+255)
   507   005F5A  6ED6               	movwf	214,c
   508   005F5C  0E00               	movlw	(ivt0x8_base shr (0+16))& (0+255)
   509   005F5E  6ED7               	movwf	215,c
   510   005F60                     end_of_initialization:
   511                           	callstack 0
   512   005F60                     __end_of__initialization:
   513                           	callstack 0
   514   005F60  0100               	movlb	0
   515   005F62  EFD9  F01B         	goto	_main	;jump to C main() function
   516                           
   517                           	psect	bssCOMRAM
   518   00005C                     __pbssCOMRAM:
   519                           	callstack 0
   520   00005C                     _uart1RxLastError:
   521                           	callstack 0
   522   00005C                     	ds	1
   523                           
   524                           	psect	bssBANK0
   525   0000F7                     __pbssBANK0:
   526                           	callstack 0
   527   0000F7                     fabsf@F465:
   528                           	callstack 0
   529   0000F7                     	ds	4
   530   0000FB                     _errno:
   531                           	callstack 0
   532   0000FB                     	ds	2
   533                           
   534                           	psect	bssBANK1
   535   0001E3                     __pbssBANK1:
   536                           	callstack 0
   537   0001E3                     	ds	8
   538                           
   539                           	psect	bssBANK3
   540   0003B4                     __pbssBANK3:
   541                           	callstack 0
   542   0003B4                     main@rx_frame:
   543                           	callstack 0
   544   0003B4                     	ds	5
   545                           
   546                           	psect	bssBANK4
   547   000400                     __pbssBANK4:
   548                           	callstack 0
   549   000400                     main@rx_buf:
   550                           	callstack 0
   551   000400                     	ds	128
   552                           
   553                           	psect	cstackBANK3
   554   000300                     __pcstackBANK3:
   555                           	callstack 0
   556   000300                     main@Qk1:
   557                           	callstack 0
   558                           
   559                           ; 18 bytes @ 0x0
   560   000300                     	ds	18
   561   000312                     main@Fprime:
   562                           	callstack 0
   563                           
   564                           ; 18 bytes @ 0x12
   565   000312                     	ds	18
   566   000324                     main@xhatCorrected:
   567                           	callstack 0
   568                           
   569                           ; 18 bytes @ 0x24
   570   000324                     	ds	18
   571   000336                     main@Cprime_transpose:
   572                           	callstack 0
   573                           
   574                           ; 18 bytes @ 0x36
   575   000336                     	ds	18
   576   000348                     main@P:
   577                           	callstack 0
   578                           
   579                           ; 18 bytes @ 0x48
   580   000348                     	ds	18
   581   00035A                     main@xhatk_1:
   582                           	callstack 0
   583                           
   584                           ; 18 bytes @ 0x5A
   585   00035A                     	ds	18
   586   00036C                     main@Pk_1:
   587                           	callstack 0
   588                           
   589                           ; 18 bytes @ 0x6C
   590   00036C                     	ds	18
   591   00037E                     main@Aprime:
   592                           	callstack 0
   593                           
   594                           ; 18 bytes @ 0x7E
   595   00037E                     	ds	18
   596   000390                     main@Eprime:
   597                           	callstack 0
   598                           
   599                           ; 18 bytes @ 0x90
   600   000390                     	ds	18
   601   0003A2                     main@Cprime:
   602                           	callstack 0
   603                           
   604                           ; 18 bytes @ 0xA2
   605   0003A2                     	ds	18
   606                           
   607                           	psect	cstackBANK2
   608   000200                     __pcstackBANK2:
   609                           	callstack 0
   610   000200                     EKF@xhatk_1:
   611                           	callstack 0
   612                           
   613                           ; 2 bytes @ 0x0
   614   000200                     	ds	2
   615   000202                     EKF@Pk_1:
   616                           	callstack 0
   617                           
   618                           ; 2 bytes @ 0x2
   619   000202                     	ds	2
   620   000204                     EKF@I:
   621                           	callstack 0
   622                           
   623                           ; 4 bytes @ 0x4
   624   000204                     	ds	4
   625   000208                     EKF@Ik_1:
   626                           	callstack 0
   627                           
   628                           ; 4 bytes @ 0x8
   629   000208                     	ds	4
   630   00020C                     EKF@V:
   631                           	callstack 0
   632                           
   633                           ; 4 bytes @ 0xC
   634   00020C                     	ds	4
   635   000210                     EKF@Voc0:
   636                           	callstack 0
   637                           
   638                           ; 4 bytes @ 0x10
   639   000210                     	ds	4
   640   000214                     EKF@Rk:
   641                           	callstack 0
   642                           
   643                           ; 4 bytes @ 0x14
   644   000214                     	ds	4
   645   000218                     EKF@Aprime:
   646                           	callstack 0
   647                           
   648                           ; 2 bytes @ 0x18
   649   000218                     	ds	2
   650   00021A                     EKF@Cprime:
   651                           	callstack 0
   652                           
   653                           ; 2 bytes @ 0x1A
   654   00021A                     	ds	2
   655   00021C                     EKF@Eprime:
   656                           	callstack 0
   657                           
   658                           ; 2 bytes @ 0x1C
   659   00021C                     	ds	2
   660   00021E                     EKF@Fprime:
   661                           	callstack 0
   662                           
   663                           ; 2 bytes @ 0x1E
   664   00021E                     	ds	2
   665   000220                     EKF@fk_:
   666                           	callstack 0
   667                           
   668                           ; 2 bytes @ 0x20
   669   000220                     	ds	2
   670   000222                     EKF@dt:
   671                           	callstack 0
   672                           
   673                           ; 4 bytes @ 0x22
   674   000222                     	ds	4
   675   000226                     EKF@Cbat:
   676                           	callstack 0
   677                           
   678                           ; 4 bytes @ 0x26
   679   000226                     	ds	4
   680   00022A                     EKF@Cc:
   681                           	callstack 0
   682                           
   683                           ; 4 bytes @ 0x2A
   684   00022A                     	ds	4
   685   00022E                     EKF@Rc:
   686                           	callstack 0
   687                           
   688                           ; 4 bytes @ 0x2E
   689   00022E                     	ds	4
   690   000232                     EKF@Qk1:
   691                           	callstack 0
   692                           
   693                           ; 2 bytes @ 0x32
   694   000232                     	ds	2
   695   000234                     EKF@Aprime_transpose:
   696                           	callstack 0
   697                           
   698                           ; 2 bytes @ 0x34
   699   000234                     	ds	2
   700   000236                     EKF@Eprime_transpose:
   701                           	callstack 0
   702                           
   703                           ; 2 bytes @ 0x36
   704   000236                     	ds	2
   705   000238                     EKF@sub_mat_1:
   706                           	callstack 0
   707                           
   708                           ; 2 bytes @ 0x38
   709   000238                     	ds	2
   710   00023A                     EKF@sub_mat_2:
   711                           	callstack 0
   712                           
   713                           ; 2 bytes @ 0x3A
   714   00023A                     	ds	2
   715   00023C                     EKF@sub_mat_3:
   716                           	callstack 0
   717                           
   718                           ; 2 bytes @ 0x3C
   719   00023C                     	ds	2
   720   00023E                     EKF@xhat:
   721                           	callstack 0
   722                           
   723                           ; 2 bytes @ 0x3E
   724   00023E                     	ds	2
   725   000240                     EKF@P:
   726                           	callstack 0
   727                           
   728                           ; 2 bytes @ 0x40
   729   000240                     	ds	2
   730   000242                     EKF@Cprime_transpose:
   731                           	callstack 0
   732                           
   733                           ; 2 bytes @ 0x42
   734   000242                     	ds	2
   735   000244                     EKF@Lk:
   736                           	callstack 0
   737                           
   738                           ; 2 bytes @ 0x44
   739   000244                     	ds	2
   740   000246                     EKF@R0:
   741                           	callstack 0
   742                           
   743                           ; 4 bytes @ 0x46
   744   000246                     	ds	4
   745   00024A                     EKF@xhatCorrected:
   746                           	callstack 0
   747                           
   748                           ; 2 bytes @ 0x4A
   749   00024A                     	ds	2
   750   00024C                     EKF@PCorrected:
   751                           	callstack 0
   752                           
   753                           ; 2 bytes @ 0x4C
   754   00024C                     	ds	2
   755   00024E                     main@xhat:
   756                           	callstack 0
   757                           
   758                           ; 18 bytes @ 0x4E
   759   00024E                     	ds	18
   760   000260                     main@fk_:
   761                           	callstack 0
   762                           
   763                           ; 18 bytes @ 0x60
   764   000260                     	ds	18
   765   000272                     main@Lk:
   766                           	callstack 0
   767                           
   768                           ; 18 bytes @ 0x72
   769   000272                     	ds	18
   770   000284                     main@Aprime_transpose:
   771                           	callstack 0
   772                           
   773                           ; 18 bytes @ 0x84
   774   000284                     	ds	18
   775   000296                     main@Eprime_transpose:
   776                           	callstack 0
   777                           
   778                           ; 18 bytes @ 0x96
   779   000296                     	ds	18
   780   0002A8                     main@sub_mat_2:
   781                           	callstack 0
   782                           
   783                           ; 18 bytes @ 0xA8
   784   0002A8                     	ds	18
   785   0002BA                     main@sub_mat_3:
   786                           	callstack 0
   787                           
   788                           ; 18 bytes @ 0xBA
   789   0002BA                     	ds	18
   790   0002CC                     main@Rk:
   791                           	callstack 0
   792                           
   793                           ; 4 bytes @ 0xCC
   794   0002CC                     	ds	4
   795   0002D0                     main@PCorrected:
   796                           	callstack 0
   797                           
   798                           ; 18 bytes @ 0xD0
   799   0002D0                     	ds	18
   800   0002E2                     main@sub_mat_1:
   801                           	callstack 0
   802                           
   803                           ; 18 bytes @ 0xE2
   804   0002E2                     	ds	18
   805                           
   806                           	psect	cstackBANK1
   807   000100                     __pcstackBANK1:
   808                           	callstack 0
   809   000100                     _powf$1745:
   810                           	callstack 0
   811   000100                     VOC@voc_lt:
   812                           	callstack 0
   813                           
   814                           ; 202 bytes @ 0x0
   815   000100                     	ds	4
   816   000104                     _powf$1746:
   817                           	callstack 0
   818                           
   819                           ; 4 bytes @ 0x4
   820   000104                     	ds	4
   821   000108                     _powf$1750:
   822                           	callstack 0
   823                           
   824                           ; 4 bytes @ 0x8
   825   000108                     	ds	4
   826   00010C                     _powf$1751:
   827                           	callstack 0
   828                           
   829                           ; 4 bytes @ 0xC
   830   00010C                     	ds	4
   831   000110                     powf@t2:
   832                           	callstack 0
   833                           
   834                           ; 4 bytes @ 0x10
   835   000110                     	ds	4
   836   000114                     powf@z_h:
   837                           	callstack 0
   838                           
   839                           ; 4 bytes @ 0x14
   840   000114                     	ds	4
   841   000118                     powf@z_l:
   842                           	callstack 0
   843                           
   844                           ; 4 bytes @ 0x18
   845   000118                     	ds	4
   846   00011C                     powf@y1:
   847                           	callstack 0
   848                           
   849                           ; 4 bytes @ 0x1C
   850   00011C                     	ds	4
   851   000120                     powf@i:
   852                           	callstack 0
   853                           
   854                           ; 4 bytes @ 0x20
   855   000120                     	ds	4
   856   000124                     powf@s_l:
   857                           	callstack 0
   858                           
   859                           ; 4 bytes @ 0x24
   860   000124                     	ds	4
   861   000128                     powf@t_l:
   862                           	callstack 0
   863                           
   864                           ; 4 bytes @ 0x28
   865   000128                     	ds	4
   866   00012C                     _powf$1744:
   867                           	callstack 0
   868                           
   869                           ; 4 bytes @ 0x2C
   870   00012C                     	ds	4
   871   000130                     _powf$1749:
   872                           	callstack 0
   873                           
   874                           ; 4 bytes @ 0x30
   875   000130                     	ds	4
   876   000134                     _powf$1752:
   877                           	callstack 0
   878                           
   879                           ; 4 bytes @ 0x34
   880   000134                     	ds	4
   881   000138                     powf@w:
   882                           	callstack 0
   883                           
   884                           ; 4 bytes @ 0x38
   885   000138                     	ds	4
   886   00013C                     _powf$1742:
   887                           	callstack 0
   888                           
   889                           ; 4 bytes @ 0x3C
   890   00013C                     	ds	4
   891   000140                     _powf$1748:
   892                           	callstack 0
   893                           
   894                           ; 4 bytes @ 0x40
   895   000140                     	ds	4
   896   000144                     powf@r:
   897                           	callstack 0
   898                           
   899                           ; 4 bytes @ 0x44
   900   000144                     	ds	4
   901   000148                     powf@yisint:
   902                           	callstack 0
   903                           
   904                           ; 4 bytes @ 0x48
   905   000148                     	ds	4
   906   00014C                     _powf$1741:
   907                           	callstack 0
   908                           
   909                           ; 4 bytes @ 0x4C
   910   00014C                     	ds	4
   911   000150                     _powf$1747:
   912                           	callstack 0
   913                           
   914                           ; 4 bytes @ 0x50
   915   000150                     	ds	4
   916   000154                     powf@s:
   917                           	callstack 0
   918                           
   919                           ; 4 bytes @ 0x54
   920   000154                     	ds	4
   921   000158                     powf@hx:
   922                           	callstack 0
   923                           
   924                           ; 4 bytes @ 0x58
   925   000158                     	ds	4
   926   00015C                     powf@p_l:
   927                           	callstack 0
   928                           
   929                           ; 4 bytes @ 0x5C
   930   00015C                     	ds	4
   931   000160                     powf@t_h:
   932                           	callstack 0
   933                           
   934                           ; 4 bytes @ 0x60
   935   000160                     	ds	4
   936   000164                     powf@s_h:
   937                           	callstack 0
   938                           
   939                           ; 4 bytes @ 0x64
   940   000164                     	ds	4
   941   000168                     powf@ax:
   942                           	callstack 0
   943                           
   944                           ; 4 bytes @ 0x68
   945   000168                     	ds	4
   946   00016C                     powf@u:
   947                           	callstack 0
   948                           
   949                           ; 4 bytes @ 0x6C
   950   00016C                     	ds	4
   951   000170                     powf@v:
   952                           	callstack 0
   953                           
   954                           ; 4 bytes @ 0x70
   955   000170                     	ds	4
   956   000174                     powf@hy:
   957                           	callstack 0
   958                           
   959                           ; 4 bytes @ 0x74
   960   000174                     	ds	4
   961   000178                     powf@n:
   962                           	callstack 0
   963                           
   964                           ; 4 bytes @ 0x78
   965   000178                     	ds	4
   966   00017C                     powf@t1:
   967                           	callstack 0
   968                           
   969                           ; 4 bytes @ 0x7C
   970   00017C                     	ds	4
   971   000180                     powf@sn:
   972                           	callstack 0
   973                           
   974                           ; 4 bytes @ 0x80
   975   000180                     	ds	4
   976   000184                     powf@s2:
   977                           	callstack 0
   978                           
   979                           ; 4 bytes @ 0x84
   980   000184                     	ds	4
   981   000188                     powf@iy:
   982                           	callstack 0
   983                           
   984                           ; 4 bytes @ 0x88
   985   000188                     	ds	4
   986   00018C                     powf@is:
   987                           	callstack 0
   988                           
   989                           ; 4 bytes @ 0x8C
   990   00018C                     	ds	4
   991   000190                     _powf$1743:
   992                           	callstack 0
   993                           
   994                           ; 4 bytes @ 0x90
   995   000190                     	ds	4
   996   000194                     powf@p_h:
   997                           	callstack 0
   998                           
   999                           ; 4 bytes @ 0x94
  1000   000194                     	ds	4
  1001   000198                     powf@k:
  1002                           	callstack 0
  1003                           
  1004                           ; 4 bytes @ 0x98
  1005   000198                     	ds	4
  1006   00019C                     _powf$1740:
  1007                           	callstack 0
  1008                           
  1009                           ; 4 bytes @ 0x9C
  1010   00019C                     	ds	4
  1011   0001A0                     powf@ix:
  1012                           	callstack 0
  1013                           
  1014                           ; 4 bytes @ 0xA0
  1015   0001A0                     	ds	4
  1016   0001A4                     powf@j:
  1017                           	callstack 0
  1018                           
  1019                           ; 4 bytes @ 0xA4
  1020   0001A4                     	ds	4
  1021   0001A8                     powf@t:
  1022                           	callstack 0
  1023                           
  1024                           ; 4 bytes @ 0xA8
  1025   0001A8                     	ds	4
  1026   0001AC                     powf@z:
  1027                           	callstack 0
  1028                           
  1029                           ; 4 bytes @ 0xAC
  1030   0001AC                     	ds	4
  1031   0001B0                     powf@__xc8_float_word:
  1032                           	callstack 0
  1033                           
  1034                           ; 4 bytes @ 0xB0
  1035   0001B0                     	ds	26
  1036   0001CA                     VOC@soc_int:
  1037                           	callstack 0
  1038                           
  1039                           ; 1 bytes @ 0xCA
  1040   0001CA                     	ds	1
  1041   0001CB                     main@actualSOC:
  1042                           	callstack 0
  1043                           
  1044                           ; 4 bytes @ 0xCB
  1045   0001CB                     	ds	4
  1046   0001CF                     main@Vc:
  1047                           	callstack 0
  1048                           
  1049                           ; 4 bytes @ 0xCF
  1050   0001CF                     	ds	4
  1051   0001D3                     main@Ik_1:
  1052                           	callstack 0
  1053                           
  1054                           ; 4 bytes @ 0xD3
  1055   0001D3                     	ds	4
  1056   0001D7                     _main$1734:
  1057                           	callstack 0
  1058                           
  1059                           ; 4 bytes @ 0xD7
  1060   0001D7                     	ds	4
  1061   0001DB                     main@I:
  1062                           	callstack 0
  1063                           
  1064                           ; 4 bytes @ 0xDB
  1065   0001DB                     	ds	4
  1066   0001DF                     main@V:
  1067                           	callstack 0
  1068                           
  1069                           ; 4 bytes @ 0xDF
  1070   0001DF                     	ds	4
  1071                           
  1072                           	psect	cstackBANK0
  1073   000060                     __pcstackBANK0:
  1074                           	callstack 0
  1075   000060                     ?_sqrtf:
  1076                           	callstack 0
  1077   000060                     ___fldiv@rem:
  1078                           	callstack 0
  1079   000060                     sqrtf@x:
  1080                           	callstack 0
  1081                           
  1082                           ; 4 bytes @ 0x0
  1083   000060                     	ds	4
  1084   000064                     ??_sqrtf:
  1085   000064                     ___fldiv@sign:
  1086                           	callstack 0
  1087                           
  1088                           ; 1 bytes @ 0x4
  1089   000064                     	ds	1
  1090   000065                     ___fldiv@new_exp:
  1091                           	callstack 0
  1092                           
  1093                           ; 2 bytes @ 0x5
  1094   000065                     	ds	2
  1095   000067                     ___fldiv@grs:
  1096                           	callstack 0
  1097                           
  1098                           ; 4 bytes @ 0x7
  1099   000067                     	ds	2
  1100   000069                     sqrtf@s:
  1101                           	callstack 0
  1102                           
  1103                           ; 4 bytes @ 0x9
  1104   000069                     	ds	2
  1105   00006B                     ___fldiv@bexp:
  1106                           	callstack 0
  1107                           
  1108                           ; 1 bytes @ 0xB
  1109   00006B                     	ds	1
  1110   00006C                     ___fldiv@aexp:
  1111                           	callstack 0
  1112                           
  1113                           ; 1 bytes @ 0xC
  1114   00006C                     	ds	1
  1115   00006D                     ?_expf:
  1116                           	callstack 0
  1117   00006D                     ?_VOC:
  1118                           	callstack 0
  1119   00006D                     VOC@soc:
  1120                           	callstack 0
  1121   00006D                     expf@x:
  1122                           	callstack 0
  1123   00006D                     sqrtf@i:
  1124                           	callstack 0
  1125                           
  1126                           ; 4 bytes @ 0xD
  1127   00006D                     	ds	4
  1128   000071                     ??_expf:
  1129   000071                     ?_hk:
  1130                           	callstack 0
  1131   000071                     hk@SOC_val:
  1132                           	callstack 0
  1133   000071                     sqrtf@__xc8_float_word:
  1134                           	callstack 0
  1135                           
  1136                           ; 4 bytes @ 0x11
  1137   000071                     	ds	4
  1138   000075                     hk@I:
  1139                           	callstack 0
  1140   000075                     expf@__xc8_float_word:
  1141                           	callstack 0
  1142   000075                     sqrtf@q:
  1143                           	callstack 0
  1144                           
  1145                           ; 4 bytes @ 0x15
  1146   000075                     	ds	4
  1147   000079                     hk@Voc0:
  1148                           	callstack 0
  1149   000079                     sqrtf@t:
  1150                           	callstack 0
  1151   000079                     _expf$1736:
  1152                           	callstack 0
  1153                           
  1154                           ; 4 bytes @ 0x19
  1155   000079                     	ds	4
  1156   00007D                     hk@R0:
  1157                           	callstack 0
  1158   00007D                     sqrtf@z:
  1159                           	callstack 0
  1160   00007D                     _expf$1737:
  1161                           	callstack 0
  1162                           
  1163                           ; 4 bytes @ 0x1D
  1164   00007D                     	ds	4
  1165   000081                     sqrtf@m:
  1166                           	callstack 0
  1167   000081                     _expf$1738:
  1168                           	callstack 0
  1169                           
  1170                           ; 4 bytes @ 0x21
  1171   000081                     	ds	4
  1172   000085                     sqrtf@r:
  1173                           	callstack 0
  1174   000085                     _expf$1739:
  1175                           	callstack 0
  1176                           
  1177                           ; 4 bytes @ 0x25
  1178   000085                     	ds	4
  1179   000089                     expf@c:
  1180                           	callstack 0
  1181   000089                     sqrtf@ix:
  1182                           	callstack 0
  1183                           
  1184                           ; 4 bytes @ 0x29
  1185   000089                     	ds	4
  1186   00008D                     ?_powf:
  1187                           	callstack 0
  1188   00008D                     expf@xx:
  1189                           	callstack 0
  1190   00008D                     powf@x:
  1191                           	callstack 0
  1192                           
  1193                           ; 4 bytes @ 0x2D
  1194   00008D                     	ds	4
  1195   000091                     expf@y:
  1196                           	callstack 0
  1197   000091                     powf@y:
  1198                           	callstack 0
  1199                           
  1200                           ; 4 bytes @ 0x31
  1201   000091                     	ds	4
  1202   000095                     ??_powf:
  1203   000095                     expf@hi:
  1204                           	callstack 0
  1205                           
  1206                           ; 4 bytes @ 0x35
  1207   000095                     	ds	4
  1208   000099                     expf@lo:
  1209                           	callstack 0
  1210                           
  1211                           ; 4 bytes @ 0x39
  1212   000099                     	ds	4
  1213   00009D                     expf@sign:
  1214                           	callstack 0
  1215                           
  1216                           ; 2 bytes @ 0x3D
  1217   00009D                     	ds	2
  1218   00009F                     expf@k:
  1219                           	callstack 0
  1220                           
  1221                           ; 4 bytes @ 0x3F
  1222   00009F                     	ds	4
  1223   0000A3                     expf@hx:
  1224                           	callstack 0
  1225                           
  1226                           ; 4 bytes @ 0x43
  1227   0000A3                     	ds	4
  1228   0000A7                     mat_set@column:
  1229                           	callstack 0
  1230                           
  1231                           ; 1 bytes @ 0x47
  1232   0000A7                     	ds	1
  1233   0000A8                     mat_set@element:
  1234                           	callstack 0
  1235                           
  1236                           ; 4 bytes @ 0x48
  1237   0000A8                     	ds	4
  1238   0000AC                     mat_set@matrix:
  1239                           	callstack 0
  1240                           
  1241                           ; 2 bytes @ 0x4C
  1242   0000AC                     	ds	2
  1243   0000AE                     ??_mat_set:
  1244                           
  1245                           ; 1 bytes @ 0x4E
  1246   0000AE                     	ds	5
  1247   0000B3                     fk@xhatk_1:
  1248                           	callstack 0
  1249   0000B3                     mat_multiply@matrixA:
  1250                           	callstack 0
  1251   0000B3                     mat_transpose@matrix:
  1252                           	callstack 0
  1253                           
  1254                           ; 2 bytes @ 0x53
  1255   0000B3                     	ds	2
  1256   0000B5                     mat_multiply@matrixB:
  1257                           	callstack 0
  1258   0000B5                     mat_transpose@result:
  1259                           	callstack 0
  1260   0000B5                     fk@I:
  1261                           	callstack 0
  1262                           
  1263                           ; 4 bytes @ 0x55
  1264   0000B5                     	ds	2
  1265   0000B7                     mat_multiply@matrixC:
  1266                           	callstack 0
  1267   0000B7                     mat_transpose@matrix_1_2:
  1268                           	callstack 0
  1269                           
  1270                           ; 4 bytes @ 0x57
  1271   0000B7                     	ds	2
  1272   0000B9                     ??_mat_multiply:
  1273   0000B9                     fk@dt:
  1274                           	callstack 0
  1275                           
  1276                           ; 4 bytes @ 0x59
  1277   0000B9                     	ds	2
  1278   0000BB                     mat_transpose@matrix_1_1:
  1279                           	callstack 0
  1280                           
  1281                           ; 4 bytes @ 0x5B
  1282   0000BB                     	ds	1
  1283   0000BC                     mat_multiply@k:
  1284                           	callstack 0
  1285                           
  1286                           ; 2 bytes @ 0x5C
  1287   0000BC                     	ds	1
  1288   0000BD                     fk@Cbat:
  1289                           	callstack 0
  1290                           
  1291                           ; 4 bytes @ 0x5D
  1292   0000BD                     	ds	1
  1293   0000BE                     mat_multiply@i:
  1294                           	callstack 0
  1295                           
  1296                           ; 2 bytes @ 0x5E
  1297   0000BE                     	ds	1
  1298   0000BF                     mat_transpose@matrix_2_1:
  1299                           	callstack 0
  1300                           
  1301                           ; 4 bytes @ 0x5F
  1302   0000BF                     	ds	1
  1303   0000C0                     mat_multiply@j:
  1304                           	callstack 0
  1305                           
  1306                           ; 2 bytes @ 0x60
  1307   0000C0                     	ds	1
  1308   0000C1                     fk@Cc:
  1309                           	callstack 0
  1310                           
  1311                           ; 4 bytes @ 0x61
  1312   0000C1                     	ds	2
  1313   0000C3                     mat_transpose@matrix_2_2:
  1314                           	callstack 0
  1315                           
  1316                           ; 4 bytes @ 0x63
  1317   0000C3                     	ds	2
  1318   0000C5                     fk@Rc:
  1319                           	callstack 0
  1320                           
  1321                           ; 4 bytes @ 0x65
  1322   0000C5                     	ds	4
  1323   0000C9                     fk@fk_:
  1324                           	callstack 0
  1325                           
  1326                           ; 2 bytes @ 0x69
  1327   0000C9                     	ds	2
  1328   0000CB                     fk@array_mat:
  1329                           	callstack 0
  1330                           
  1331                           ; 8 bytes @ 0x6B
  1332   0000CB                     	ds	8
  1333   0000D3                     _EKF$1731:
  1334                           	callstack 0
  1335                           
  1336                           ; 4 bytes @ 0x73
  1337   0000D3                     	ds	4
  1338   0000D7                     _EKF$1732:
  1339                           	callstack 0
  1340                           
  1341                           ; 4 bytes @ 0x77
  1342   0000D7                     	ds	4
  1343   0000DB                     _EKF$1733:
  1344                           	callstack 0
  1345                           
  1346                           ; 4 bytes @ 0x7B
  1347   0000DB                     	ds	4
  1348   0000DF                     EKF@temp_val:
  1349                           	callstack 0
  1350                           
  1351                           ; 4 bytes @ 0x7F
  1352   0000DF                     	ds	4
  1353   0000E3                     EKF@error_estimate:
  1354                           	callstack 0
  1355                           
  1356                           ; 4 bytes @ 0x83
  1357   0000E3                     	ds	4
  1358   0000E7                     EKF@combined_error:
  1359                           	callstack 0
  1360                           
  1361                           ; 4 bytes @ 0x87
  1362   0000E7                     	ds	4
  1363   0000EB                     EKF@index:
  1364                           	callstack 0
  1365                           
  1366                           ; 1 bytes @ 0x8B
  1367   0000EB                     	ds	1
  1368   0000EC                     EKF@col:
  1369                           	callstack 0
  1370                           
  1371                           ; 1 bytes @ 0x8C
  1372   0000EC                     	ds	1
  1373   0000ED                     EKF@row:
  1374                           	callstack 0
  1375                           
  1376                           ; 1 bytes @ 0x8D
  1377   0000ED                     	ds	1
  1378   0000EE                     main@cumulative_time:
  1379                           	callstack 0
  1380                           
  1381                           ; 1 bytes @ 0x8E
  1382   0000EE                     	ds	1
  1383                           
  1384                           	psect	cstackCOMRAM
  1385   000001                     __pcstackCOMRAM:
  1386                           	callstack 0
  1387   000001                     ??_INTERRUPT_InterruptManager:
  1388                           
  1389                           ; 1 bytes @ 0x0
  1390   000001                     	ds	2
  1391   000003                     ?___wmul:
  1392                           	callstack 0
  1393   000003                     ?_fabsf:
  1394                           	callstack 0
  1395   000003                     ?_nanf:
  1396                           	callstack 0
  1397   000003                     ?___flneg:
  1398                           	callstack 0
  1399   000003                     ?___xxtofl:
  1400                           	callstack 0
  1401   000003                     _UART1_is_tx_ready$297:
  1402                           	callstack 0
  1403   000003                     UART1_Write@txData:
  1404                           	callstack 0
  1405   000003                     UART1_SetFramingErrorHandler@interruptHandler:
  1406                           	callstack 0
  1407   000003                     UART1_SetOverrunErrorHandler@interruptHandler:
  1408                           	callstack 0
  1409   000003                     UART1_SetErrorHandler@interruptHandler:
  1410                           	callstack 0
  1411   000003                     TMR0_SetInterruptHandler@InterruptHandler:
  1412                           	callstack 0
  1413   000003                     mat_fill_zero@matrix:
  1414                           	callstack 0
  1415   000003                     Frame_Init@frame:
  1416                           	callstack 0
  1417   000003                     Frame_Update@frame:
  1418                           	callstack 0
  1419   000003                     ___wmul@multiplier:
  1420                           	callstack 0
  1421   000003                     nanf@s:
  1422                           	callstack 0
  1423   000003                     ___flneg@f1:
  1424                           	callstack 0
  1425   000003                     ___xxtofl@val:
  1426                           	callstack 0
  1427   000003                     fabsf@x:
  1428                           	callstack 0
  1429                           
  1430                           ; 4 bytes @ 0x2
  1431   000003                     	ds	2
  1432   000005                     ??_mat_fill_zero:
  1433   000005                     Frame_Update@b:
  1434                           	callstack 0
  1435   000005                     Frame_Init@buf:
  1436                           	callstack 0
  1437   000005                     ___wmul@multiplicand:
  1438                           	callstack 0
  1439                           
  1440                           ; 2 bytes @ 0x4
  1441   000005                     	ds	1
  1442   000006                     ??_Frame_Update:
  1443                           
  1444                           ; 1 bytes @ 0x5
  1445   000006                     	ds	1
  1446   000007                     ??___xxtofl:
  1447   000007                     Frame_Init@len:
  1448                           	callstack 0
  1449   000007                     ___wmul@product:
  1450                           	callstack 0
  1451   000007                     fabsf@u:
  1452                           	callstack 0
  1453   000007                     nanf@u:
  1454                           	callstack 0
  1455                           
  1456                           ; 4 bytes @ 0x6
  1457   000007                     	ds	1
  1458   000008                     
  1459                           ; 1 bytes @ 0x7
  1460   000008                     	ds	1
  1461   000009                     ?_mat_get:
  1462                           	callstack 0
  1463   000009                     mat_get@column:
  1464                           	callstack 0
  1465   000009                     mat_fill_zero@i:
  1466                           	callstack 0
  1467                           
  1468                           ; 2 bytes @ 0x8
  1469   000009                     	ds	1
  1470   00000A                     mat_get@matrix:
  1471                           	callstack 0
  1472                           
  1473                           ; 2 bytes @ 0x9
  1474   00000A                     	ds	1
  1475   00000B                     mat_init@columns:
  1476                           	callstack 0
  1477   00000B                     ___xxtofl@sign:
  1478                           	callstack 0
  1479                           
  1480                           ; 1 bytes @ 0xA
  1481   00000B                     	ds	1
  1482   00000C                     ___xxtofl@exp:
  1483                           	callstack 0
  1484   00000C                     mat_init@matrix:
  1485                           	callstack 0
  1486                           
  1487                           ; 2 bytes @ 0xB
  1488   00000C                     	ds	1
  1489   00000D                     ??_mat_get:
  1490   00000D                     ___xxtofl@arg:
  1491                           	callstack 0
  1492                           
  1493                           ; 4 bytes @ 0xC
  1494   00000D                     	ds	1
  1495   00000E                     mat_init@rows:
  1496                           	callstack 0
  1497                           
  1498                           ; 1 bytes @ 0xD
  1499   00000E                     	ds	4
  1500   000012                     mat_get@row:
  1501                           	callstack 0
  1502                           
  1503                           ; 1 bytes @ 0x11
  1504   000012                     	ds	1
  1505   000013                     ?___flmul:
  1506                           	callstack 0
  1507   000013                     ___flmul@b:
  1508                           	callstack 0
  1509                           
  1510                           ; 4 bytes @ 0x12
  1511   000013                     	ds	4
  1512   000017                     ___flmul@a:
  1513                           	callstack 0
  1514                           
  1515                           ; 4 bytes @ 0x16
  1516   000017                     	ds	4
  1517   00001B                     ??___flmul:
  1518                           
  1519                           ; 1 bytes @ 0x1A
  1520   00001B                     	ds	4
  1521   00001F                     ___flmul@sign:
  1522                           	callstack 0
  1523                           
  1524                           ; 1 bytes @ 0x1E
  1525   00001F                     	ds	1
  1526   000020                     ___flmul@grs:
  1527                           	callstack 0
  1528                           
  1529                           ; 4 bytes @ 0x1F
  1530   000020                     	ds	4
  1531   000024                     ___flmul@aexp:
  1532                           	callstack 0
  1533                           
  1534                           ; 1 bytes @ 0x23
  1535   000024                     	ds	1
  1536   000025                     ___flmul@bexp:
  1537                           	callstack 0
  1538                           
  1539                           ; 1 bytes @ 0x24
  1540   000025                     	ds	1
  1541   000026                     ___flmul@prod:
  1542                           	callstack 0
  1543                           
  1544                           ; 4 bytes @ 0x25
  1545   000026                     	ds	4
  1546   00002A                     ___flmul@temp:
  1547                           	callstack 0
  1548                           
  1549                           ; 2 bytes @ 0x29
  1550   00002A                     	ds	2
  1551   00002C                     ?___fladd:
  1552                           	callstack 0
  1553   00002C                     ?_scalbnf:
  1554                           	callstack 0
  1555   00002C                     ___fladd@b:
  1556                           	callstack 0
  1557   00002C                     scalbnf@x:
  1558                           	callstack 0
  1559                           
  1560                           ; 4 bytes @ 0x2B
  1561   00002C                     	ds	4
  1562   000030                     scalbnf@n:
  1563                           	callstack 0
  1564   000030                     ___fladd@a:
  1565                           	callstack 0
  1566                           
  1567                           ; 4 bytes @ 0x2F
  1568   000030                     	ds	2
  1569   000032                     ??_scalbnf:
  1570                           
  1571                           ; 1 bytes @ 0x31
  1572   000032                     	ds	2
  1573   000034                     ??___fladd:
  1574                           
  1575                           ; 1 bytes @ 0x33
  1576   000034                     	ds	2
  1577   000036                     scalbnf@u:
  1578                           	callstack 0
  1579                           
  1580                           ; 4 bytes @ 0x35
  1581   000036                     	ds	2
  1582   000038                     ___fladd@signs:
  1583                           	callstack 0
  1584                           
  1585                           ; 1 bytes @ 0x37
  1586   000038                     	ds	1
  1587   000039                     ___fladd@aexp:
  1588                           	callstack 0
  1589                           
  1590                           ; 1 bytes @ 0x38
  1591   000039                     	ds	1
  1592   00003A                     ___fladd@bexp:
  1593                           	callstack 0
  1594   00003A                     scalbnf@y:
  1595                           	callstack 0
  1596                           
  1597                           ; 4 bytes @ 0x39
  1598   00003A                     	ds	1
  1599   00003B                     ___fladd@grs:
  1600                           	callstack 0
  1601                           
  1602                           ; 1 bytes @ 0x3A
  1603   00003B                     	ds	1
  1604   00003C                     ?___fltol:
  1605                           	callstack 0
  1606   00003C                     ___fltol@f1:
  1607                           	callstack 0
  1608                           
  1609                           ; 4 bytes @ 0x3B
  1610   00003C                     	ds	4
  1611   000040                     ??___fltol:
  1612                           
  1613                           ; 1 bytes @ 0x3F
  1614   000040                     	ds	4
  1615   000044                     ___fltol@sign1:
  1616                           	callstack 0
  1617                           
  1618                           ; 1 bytes @ 0x43
  1619   000044                     	ds	1
  1620   000045                     ___fltol@exp1:
  1621                           	callstack 0
  1622                           
  1623                           ; 1 bytes @ 0x44
  1624   000045                     	ds	1
  1625   000046                     ?___flsub:
  1626                           	callstack 0
  1627   000046                     ___flsub@b:
  1628                           	callstack 0
  1629                           
  1630                           ; 4 bytes @ 0x45
  1631   000046                     	ds	4
  1632   00004A                     ___flsub@a:
  1633                           	callstack 0
  1634                           
  1635                           ; 4 bytes @ 0x49
  1636   00004A                     	ds	4
  1637   00004E                     ?___fldiv:
  1638                           	callstack 0
  1639   00004E                     ___flge@ff1:
  1640                           	callstack 0
  1641   00004E                     ___fldiv@b:
  1642                           	callstack 0
  1643                           
  1644                           ; 4 bytes @ 0x4D
  1645   00004E                     	ds	4
  1646   000052                     ___flge@ff2:
  1647                           	callstack 0
  1648   000052                     ___fldiv@a:
  1649                           	callstack 0
  1650                           
  1651                           ; 4 bytes @ 0x51
  1652   000052                     	ds	4
  1653   000056                     ??___fldiv:
  1654   000056                     ??___flge:
  1655                           
  1656                           ; 1 bytes @ 0x55
  1657   000056                     	ds	4
  1658   00005A                     ??_VOC:
  1659   00005A                     mat_set@row:
  1660                           	callstack 0
  1661                           
  1662                           ; 1 bytes @ 0x59
  1663   00005A                     	ds	1
  1664   00005B                     
  1665                           ; 1 bytes @ 0x5A
  1666   00005B                     	ds	1
  1667   00005C                     
  1668                           ; 1 bytes @ 0x5B
  1669 ;;
  1670 ;;Main: autosize = 0, tempsize = 0, incstack = 0, save=0
  1671 ;;
  1672 ;; *************** function _main *****************
  1673 ;; Defined at:
  1674 ;;		line 254 in file "main.c"
  1675 ;; Parameters:    Size  Location     Type
  1676 ;;		None
  1677 ;; Auto vars:     Size  Location     Type
  1678 ;;  i_int           2    0        short 
  1679 ;;  v_int           2    0        unsigned short 
  1680 ;;  b               1    0        unsigned char 
  1681 ;;  res             1    0        enum E23424
  1682 ;;  SOC             1    0        unsigned char 
  1683 ;;  Cprime         18  162[BANK3 ] struct MatrixStruct
  1684 ;;  Eprime         18  144[BANK3 ] struct MatrixStruct
  1685 ;;  Aprime         18  126[BANK3 ] struct MatrixStruct
  1686 ;;  Pk_1           18  108[BANK3 ] struct MatrixStruct
  1687 ;;  xhatk_1        18   90[BANK3 ] struct MatrixStruct
  1688 ;;  P              18   72[BANK3 ] struct MatrixStruct
  1689 ;;  Cprime_trans   18   54[BANK3 ] struct MatrixStruct
  1690 ;;  xhatCorrecte   18   36[BANK3 ] struct MatrixStruct
  1691 ;;  Fprime         18   18[BANK3 ] struct MatrixStruct
  1692 ;;  Qk1            18    0[BANK3 ] struct MatrixStruct
  1693 ;;  sub_mat_1      18  226[BANK2 ] struct MatrixStruct
  1694 ;;  PCorrected     18  208[BANK2 ] struct MatrixStruct
  1695 ;;  sub_mat_3      18  186[BANK2 ] struct MatrixStruct
  1696 ;;  sub_mat_2      18  168[BANK2 ] struct MatrixStruct
  1697 ;;  Eprime_trans   18  150[BANK2 ] struct MatrixStruct
  1698 ;;  Aprime_trans   18  132[BANK2 ] struct MatrixStruct
  1699 ;;  Lk             18  114[BANK2 ] struct MatrixStruct
  1700 ;;  fk_            18   96[BANK2 ] struct MatrixStruct
  1701 ;;  xhat           18   78[BANK2 ] struct MatrixStruct
  1702 ;;  Rk              4  204[BANK2 ] float 
  1703 ;;  V               4  223[BANK1 ] float 
  1704 ;;  I               4  219[BANK1 ] float 
  1705 ;;  Ik_1            4  211[BANK1 ] float 
  1706 ;;  Vc              4  207[BANK1 ] float 
  1707 ;;  actualSOC       4  203[BANK1 ] float 
  1708 ;;  i               1    0        unsigned char 
  1709 ;;  j               1    0        unsigned char 
  1710 ;;  cumulative_t    1  142[BANK0 ] unsigned char 
  1711 ;; Return value:  Size  Location     Type
  1712 ;;                  1    wreg      void 
  1713 ;; Registers used:
  1714 ;;		wreg, fsr2l, fsr2h, status,2, status,0, pcl, pclath, pclatu, tosl, tblptrl, tblptrh, tblptru, prodl, prodh, cstack
  1715 ;; Tracked objects:
  1716 ;;		On entry : 0/0
  1717 ;;		On exit  : 0/0
  1718 ;;		Unchanged: 0/0
  1719 ;; Data sizes:     COMRAM   BANK0   BANK1   BANK2   BANK3   BANK4   BANK5   BANK6   BANK7   BANK8   BANK9  BANK10  BANK1
      +1  BANK12  BANK13  BANK14  BANK15
  1720 ;;      Params:         0       0       0       0       0       0       0       0       0       0       0       0       
      +0       0       0       0       0
  1721 ;;      Locals:         0       1      24     166     180       0       0       0       0       0       0       0       
      +0       0       0       0       0
  1722 ;;      Temps:          0       0       0       0       0       0       0       0       0       0       0       0       
      +0       0       0       0       0
  1723 ;;      Totals:         0       1      24     166     180       0       0       0       0       0       0       0       
      +0       0       0       0       0
  1724 ;;Total ram usage:      371 bytes
  1725 ;; Hardware stack levels required when called: 7
  1726 ;; This function calls:
  1727 ;;		_EKF
  1728 ;;		_Frame_Init
  1729 ;;		_Frame_Update
  1730 ;;		_SYSTEM_Initialize
  1731 ;;		_UART1_Read
  1732 ;;		_UART1_Write
  1733 ;;		_UART1_is_rx_ready
  1734 ;;		_UART1_is_tx_ready
  1735 ;;		___fldiv
  1736 ;;		___flmul
  1737 ;;		___fltol
  1738 ;;		___xxtofl
  1739 ;;		_expf
  1740 ;;		_mat_get
  1741 ;;		_mat_init
  1742 ;;		_mat_set
  1743 ;;		_mat_transpose
  1744 ;;		_powf
  1745 ;; This function is called by:
  1746 ;;		Startup code after reset
  1747 ;; This function uses a non-reentrant model
  1748 ;;
  1749                           
  1750                           	psect	text0
  1751   0037B2                     __ptext0:
  1752                           	callstack 0
  1753   0037B2                     _main:
  1754                           	callstack 24
  1755   0037B2                     
  1756                           ;main.c: 256:     SYSTEM_Initialize();
  1757   0037B2  ECCA  F030         	call	_SYSTEM_Initialize	;wreg free
  1758   0037B6                     
  1759                           ;main.c: 259:     Matrix Aprime;;main.c: 260:     mat_init(2, 2, &Aprime);
  1760   0037B6  0E02               	movlw	2
  1761   0037B8  6E0B               	movwf	mat_init@columns^0,c
  1762   0037BA  0E7E               	movlw	low main@Aprime
  1763   0037BC  6E0C               	movwf	mat_init@matrix^0,c
  1764   0037BE  0E03               	movlw	high main@Aprime
  1765   0037C0  6E0D               	movwf	(mat_init@matrix+1)^0,c
  1766   0037C2  0E02               	movlw	2
  1767   0037C4  EC2A  F030         	call	_mat_init
  1768   0037C8                     
  1769                           ;main.c: 261:     mat_set(1, 1, 1.0, &Aprime);
  1770   0037C8  0E01               	movlw	1
  1771   0037CA  0100               	movlb	0	; () banked
  1772   0037CC  6FA7               	movwf	mat_set@column& (0+255),b
  1773   0037CE  0E00               	movlw	0
  1774   0037D0  6FA8               	movwf	mat_set@element& (0+255),b
  1775   0037D2  0E00               	movlw	0
  1776   0037D4  6FA9               	movwf	(mat_set@element+1)& (0+255),b
  1777   0037D6  0E80               	movlw	128
  1778   0037D8  6FAA               	movwf	(mat_set@element+2)& (0+255),b
  1779   0037DA  0E3F               	movlw	63
  1780   0037DC  6FAB               	movwf	(mat_set@element+3)& (0+255),b
  1781   0037DE  0E7E               	movlw	low main@Aprime
  1782   0037E0  6FAC               	movwf	mat_set@matrix& (0+255),b
  1783   0037E2  0E03               	movlw	high main@Aprime
  1784   0037E4  6FAD               	movwf	(mat_set@matrix+1)& (0+255),b
  1785   0037E6  0E01               	movlw	1
  1786   0037E8  EC30  F02E         	call	_mat_set
  1787   0037EC                     
  1788                           ;main.c: 262:     mat_set(2, 2, expf(-0.01 / (2400 * 0.015)), &Aprime);
  1789   0037EC  0E02               	movlw	2
  1790   0037EE  0100               	movlb	0	; () banked
  1791   0037F0  6FA7               	movwf	mat_set@column& (0+255),b
  1792   0037F2  0EB4               	movlw	180
  1793   0037F4  6F6D               	movwf	expf@x& (0+255),b
  1794   0037F6  0EA2               	movlw	162
  1795   0037F8  6F6E               	movwf	(expf@x+1)& (0+255),b
  1796   0037FA  0E91               	movlw	145
  1797   0037FC  6F6F               	movwf	(expf@x+2)& (0+255),b
  1798   0037FE  0EB9               	movlw	185
  1799   003800  6F70               	movwf	(expf@x+3)& (0+255),b
  1800   003802  ECBF  F018         	call	_expf	;wreg free
  1801   003806  C06D  F0A8         	movff	?_expf,mat_set@element
  1802   00380A  C06E  F0A9         	movff	?_expf+1,mat_set@element+1
  1803   00380E  C06F  F0AA         	movff	?_expf+2,mat_set@element+2
  1804   003812  C070  F0AB         	movff	?_expf+3,mat_set@element+3
  1805   003816  0E7E               	movlw	low main@Aprime
  1806   003818  0100               	movlb	0	; () banked
  1807   00381A  6FAC               	movwf	mat_set@matrix& (0+255),b
  1808   00381C  0E03               	movlw	high main@Aprime
  1809   00381E  6FAD               	movwf	(mat_set@matrix+1)& (0+255),b
  1810   003820  0E02               	movlw	2
  1811   003822  EC30  F02E         	call	_mat_set
  1812   003826                     
  1813                           ;main.c: 263:     Matrix Aprime_transpose;;main.c: 264:     mat_transpose(&Aprime, &Apri
      +                          me_transpose);
  1814   003826  0E7E               	movlw	low main@Aprime
  1815   003828  0100               	movlb	0	; () banked
  1816   00382A  6FB3               	movwf	mat_transpose@matrix& (0+255),b
  1817   00382C  0E03               	movlw	high main@Aprime
  1818   00382E  6FB4               	movwf	(mat_transpose@matrix+1)& (0+255),b
  1819   003830  0E84               	movlw	low main@Aprime_transpose
  1820   003832  6FB5               	movwf	mat_transpose@result& (0+255),b
  1821   003834  0E02               	movlw	high main@Aprime_transpose
  1822   003836  6FB6               	movwf	(mat_transpose@result+1)& (0+255),b
  1823   003838  ECD2  F02B         	call	_mat_transpose	;wreg free
  1824   00383C                     
  1825                           ;main.c: 266:     Matrix Eprime;;main.c: 267:     mat_init(2, 2, &Eprime);
  1826   00383C  0E02               	movlw	2
  1827   00383E  6E0B               	movwf	mat_init@columns^0,c
  1828   003840  0E90               	movlw	low main@Eprime
  1829   003842  6E0C               	movwf	mat_init@matrix^0,c
  1830   003844  0E03               	movlw	high main@Eprime
  1831   003846  6E0D               	movwf	(mat_init@matrix+1)^0,c
  1832   003848  0E02               	movlw	2
  1833   00384A  EC2A  F030         	call	_mat_init
  1834   00384E                     
  1835                           ;main.c: 268:     mat_set(1, 1, 1.0, &Eprime);
  1836   00384E  0E01               	movlw	1
  1837   003850  0100               	movlb	0	; () banked
  1838   003852  6FA7               	movwf	mat_set@column& (0+255),b
  1839   003854  0E00               	movlw	0
  1840   003856  6FA8               	movwf	mat_set@element& (0+255),b
  1841   003858  0E00               	movlw	0
  1842   00385A  6FA9               	movwf	(mat_set@element+1)& (0+255),b
  1843   00385C  0E80               	movlw	128
  1844   00385E  6FAA               	movwf	(mat_set@element+2)& (0+255),b
  1845   003860  0E3F               	movlw	63
  1846   003862  6FAB               	movwf	(mat_set@element+3)& (0+255),b
  1847   003864  0E90               	movlw	low main@Eprime
  1848   003866  6FAC               	movwf	mat_set@matrix& (0+255),b
  1849   003868  0E03               	movlw	high main@Eprime
  1850   00386A  6FAD               	movwf	(mat_set@matrix+1)& (0+255),b
  1851   00386C  0E01               	movlw	1
  1852   00386E  EC30  F02E         	call	_mat_set
  1853   003872                     
  1854                           ;main.c: 269:     mat_set(2, 2, 1.0, &Eprime);
  1855   003872  0E02               	movlw	2
  1856   003874  0100               	movlb	0	; () banked
  1857   003876  6FA7               	movwf	mat_set@column& (0+255),b
  1858   003878  0E00               	movlw	0
  1859   00387A  6FA8               	movwf	mat_set@element& (0+255),b
  1860   00387C  0E00               	movlw	0
  1861   00387E  6FA9               	movwf	(mat_set@element+1)& (0+255),b
  1862   003880  0E80               	movlw	128
  1863   003882  6FAA               	movwf	(mat_set@element+2)& (0+255),b
  1864   003884  0E3F               	movlw	63
  1865   003886  6FAB               	movwf	(mat_set@element+3)& (0+255),b
  1866   003888  0E90               	movlw	low main@Eprime
  1867   00388A  6FAC               	movwf	mat_set@matrix& (0+255),b
  1868   00388C  0E03               	movlw	high main@Eprime
  1869   00388E  6FAD               	movwf	(mat_set@matrix+1)& (0+255),b
  1870   003890  0E02               	movlw	2
  1871   003892  EC30  F02E         	call	_mat_set
  1872   003896                     
  1873                           ;main.c: 270:     Matrix Eprime_transpose;;main.c: 271:     mat_transpose(&Eprime, &Epri
      +                          me_transpose);
  1874   003896  0E90               	movlw	low main@Eprime
  1875   003898  0100               	movlb	0	; () banked
  1876   00389A  6FB3               	movwf	mat_transpose@matrix& (0+255),b
  1877   00389C  0E03               	movlw	high main@Eprime
  1878   00389E  6FB4               	movwf	(mat_transpose@matrix+1)& (0+255),b
  1879   0038A0  0E96               	movlw	low main@Eprime_transpose
  1880   0038A2  6FB5               	movwf	mat_transpose@result& (0+255),b
  1881   0038A4  0E02               	movlw	high main@Eprime_transpose
  1882   0038A6  6FB6               	movwf	(mat_transpose@result+1)& (0+255),b
  1883   0038A8  ECD2  F02B         	call	_mat_transpose	;wreg free
  1884   0038AC                     
  1885                           ;main.c: 273:     Matrix Fprime;;main.c: 274:     mat_init(2, 2, &Fprime);
  1886   0038AC  0E02               	movlw	2
  1887   0038AE  6E0B               	movwf	mat_init@columns^0,c
  1888   0038B0  0E12               	movlw	low main@Fprime
  1889   0038B2  6E0C               	movwf	mat_init@matrix^0,c
  1890   0038B4  0E03               	movlw	high main@Fprime
  1891   0038B6  6E0D               	movwf	(mat_init@matrix+1)^0,c
  1892   0038B8  0E02               	movlw	2
  1893   0038BA  EC2A  F030         	call	_mat_init
  1894   0038BE                     
  1895                           ;main.c: 275:     mat_set(1, 1, 1.0, &Fprime);
  1896   0038BE  0E01               	movlw	1
  1897   0038C0  0100               	movlb	0	; () banked
  1898   0038C2  6FA7               	movwf	mat_set@column& (0+255),b
  1899   0038C4  0E00               	movlw	0
  1900   0038C6  6FA8               	movwf	mat_set@element& (0+255),b
  1901   0038C8  0E00               	movlw	0
  1902   0038CA  6FA9               	movwf	(mat_set@element+1)& (0+255),b
  1903   0038CC  0E80               	movlw	128
  1904   0038CE  6FAA               	movwf	(mat_set@element+2)& (0+255),b
  1905   0038D0  0E3F               	movlw	63
  1906   0038D2  6FAB               	movwf	(mat_set@element+3)& (0+255),b
  1907   0038D4  0E12               	movlw	low main@Fprime
  1908   0038D6  6FAC               	movwf	mat_set@matrix& (0+255),b
  1909   0038D8  0E03               	movlw	high main@Fprime
  1910   0038DA  6FAD               	movwf	(mat_set@matrix+1)& (0+255),b
  1911   0038DC  0E01               	movlw	1
  1912   0038DE  EC30  F02E         	call	_mat_set
  1913   0038E2                     
  1914                           ;main.c: 276:     mat_set(2, 2, 1.0, &Fprime);
  1915   0038E2  0E02               	movlw	2
  1916   0038E4  0100               	movlb	0	; () banked
  1917   0038E6  6FA7               	movwf	mat_set@column& (0+255),b
  1918   0038E8  0E00               	movlw	0
  1919   0038EA  6FA8               	movwf	mat_set@element& (0+255),b
  1920   0038EC  0E00               	movlw	0
  1921   0038EE  6FA9               	movwf	(mat_set@element+1)& (0+255),b
  1922   0038F0  0E80               	movlw	128
  1923   0038F2  6FAA               	movwf	(mat_set@element+2)& (0+255),b
  1924   0038F4  0E3F               	movlw	63
  1925   0038F6  6FAB               	movwf	(mat_set@element+3)& (0+255),b
  1926   0038F8  0E12               	movlw	low main@Fprime
  1927   0038FA  6FAC               	movwf	mat_set@matrix& (0+255),b
  1928   0038FC  0E03               	movlw	high main@Fprime
  1929   0038FE  6FAD               	movwf	(mat_set@matrix+1)& (0+255),b
  1930   003900  0E02               	movlw	2
  1931   003902  EC30  F02E         	call	_mat_set
  1932   003906                     
  1933                           ;main.c: 278:     Matrix Cprime;;main.c: 279:     mat_init(2, 1, &Cprime);
  1934   003906  0E01               	movlw	1
  1935   003908  6E0B               	movwf	mat_init@columns^0,c
  1936   00390A  0EA2               	movlw	low main@Cprime
  1937   00390C  6E0C               	movwf	mat_init@matrix^0,c
  1938   00390E  0E03               	movlw	high main@Cprime
  1939   003910  6E0D               	movwf	(mat_init@matrix+1)^0,c
  1940   003912  0E02               	movlw	2
  1941   003914  EC2A  F030         	call	_mat_init
  1942   003918                     
  1943                           ;main.c: 280:     mat_set(1, 1, 0.007, &Cprime);
  1944   003918  0E01               	movlw	1
  1945   00391A  0100               	movlb	0	; () banked
  1946   00391C  6FA7               	movwf	mat_set@column& (0+255),b
  1947   00391E  0E42               	movlw	66
  1948   003920  6FA8               	movwf	mat_set@element& (0+255),b
  1949   003922  0E60               	movlw	96
  1950   003924  6FA9               	movwf	(mat_set@element+1)& (0+255),b
  1951   003926  0EE5               	movlw	229
  1952   003928  6FAA               	movwf	(mat_set@element+2)& (0+255),b
  1953   00392A  0E3B               	movlw	59
  1954   00392C  6FAB               	movwf	(mat_set@element+3)& (0+255),b
  1955   00392E  0EA2               	movlw	low main@Cprime
  1956   003930  6FAC               	movwf	mat_set@matrix& (0+255),b
  1957   003932  0E03               	movlw	high main@Cprime
  1958   003934  6FAD               	movwf	(mat_set@matrix+1)& (0+255),b
  1959   003936  0E01               	movlw	1
  1960   003938  EC30  F02E         	call	_mat_set
  1961   00393C                     
  1962                           ;main.c: 281:     mat_set(2, 1, -1.0, &Cprime);
  1963   00393C  0E01               	movlw	1
  1964   00393E  0100               	movlb	0	; () banked
  1965   003940  6FA7               	movwf	mat_set@column& (0+255),b
  1966   003942  0E00               	movlw	0
  1967   003944  6FA8               	movwf	mat_set@element& (0+255),b
  1968   003946  0E00               	movlw	0
  1969   003948  6FA9               	movwf	(mat_set@element+1)& (0+255),b
  1970   00394A  0E80               	movlw	128
  1971   00394C  6FAA               	movwf	(mat_set@element+2)& (0+255),b
  1972   00394E  0EBF               	movlw	191
  1973   003950  6FAB               	movwf	(mat_set@element+3)& (0+255),b
  1974   003952  0EA2               	movlw	low main@Cprime
  1975   003954  6FAC               	movwf	mat_set@matrix& (0+255),b
  1976   003956  0E03               	movlw	high main@Cprime
  1977   003958  6FAD               	movwf	(mat_set@matrix+1)& (0+255),b
  1978   00395A  0E02               	movlw	2
  1979   00395C  EC30  F02E         	call	_mat_set
  1980   003960                     
  1981                           ;main.c: 282:     Matrix Cprime_transpose;;main.c: 283:     mat_init(2, 1, &Cprime_trans
      +                          pose);
  1982   003960  0E01               	movlw	1
  1983   003962  6E0B               	movwf	mat_init@columns^0,c
  1984   003964  0E36               	movlw	low main@Cprime_transpose
  1985   003966  6E0C               	movwf	mat_init@matrix^0,c
  1986   003968  0E03               	movlw	high main@Cprime_transpose
  1987   00396A  6E0D               	movwf	(mat_init@matrix+1)^0,c
  1988   00396C  0E02               	movlw	2
  1989   00396E  EC2A  F030         	call	_mat_init
  1990   003972                     
  1991                           ;main.c: 284:     mat_set(1, 1, mat_get(1, 1, &Cprime), &Cprime_transpose);
  1992   003972  0E01               	movlw	1
  1993   003974  0100               	movlb	0	; () banked
  1994   003976  6FA7               	movwf	mat_set@column& (0+255),b
  1995   003978  0E01               	movlw	1
  1996   00397A  6E09               	movwf	mat_get@column^0,c
  1997   00397C  0EA2               	movlw	low main@Cprime
  1998   00397E  6E0A               	movwf	mat_get@matrix^0,c
  1999   003980  0E03               	movlw	high main@Cprime
  2000   003982  6E0B               	movwf	(mat_get@matrix+1)^0,c
  2001   003984  0E01               	movlw	1
  2002   003986  EC6B  F02E         	call	_mat_get
  2003   00398A  C009  F0A8         	movff	?_mat_get,mat_set@element
  2004   00398E  C00A  F0A9         	movff	?_mat_get+1,mat_set@element+1
  2005   003992  C00B  F0AA         	movff	?_mat_get+2,mat_set@element+2
  2006   003996  C00C  F0AB         	movff	?_mat_get+3,mat_set@element+3
  2007   00399A  0E36               	movlw	low main@Cprime_transpose
  2008   00399C  0100               	movlb	0	; () banked
  2009   00399E  6FAC               	movwf	mat_set@matrix& (0+255),b
  2010   0039A0  0E03               	movlw	high main@Cprime_transpose
  2011   0039A2  6FAD               	movwf	(mat_set@matrix+1)& (0+255),b
  2012   0039A4  0E01               	movlw	1
  2013   0039A6  EC30  F02E         	call	_mat_set
  2014   0039AA                     
  2015                           ;main.c: 285:     mat_set(2, 1, mat_get(1, 2, &Cprime), &Cprime_transpose);
  2016   0039AA  0E01               	movlw	1
  2017   0039AC  0100               	movlb	0	; () banked
  2018   0039AE  6FA7               	movwf	mat_set@column& (0+255),b
  2019   0039B0  0E02               	movlw	2
  2020   0039B2  6E09               	movwf	mat_get@column^0,c
  2021   0039B4  0EA2               	movlw	low main@Cprime
  2022   0039B6  6E0A               	movwf	mat_get@matrix^0,c
  2023   0039B8  0E03               	movlw	high main@Cprime
  2024   0039BA  6E0B               	movwf	(mat_get@matrix+1)^0,c
  2025   0039BC  0E01               	movlw	1
  2026   0039BE  EC6B  F02E         	call	_mat_get
  2027   0039C2  C009  F0A8         	movff	?_mat_get,mat_set@element
  2028   0039C6  C00A  F0A9         	movff	?_mat_get+1,mat_set@element+1
  2029   0039CA  C00B  F0AA         	movff	?_mat_get+2,mat_set@element+2
  2030   0039CE  C00C  F0AB         	movff	?_mat_get+3,mat_set@element+3
  2031   0039D2  0E36               	movlw	low main@Cprime_transpose
  2032   0039D4  0100               	movlb	0	; () banked
  2033   0039D6  6FAC               	movwf	mat_set@matrix& (0+255),b
  2034   0039D8  0E03               	movlw	high main@Cprime_transpose
  2035   0039DA  6FAD               	movwf	(mat_set@matrix+1)& (0+255),b
  2036   0039DC  0E02               	movlw	2
  2037   0039DE  EC30  F02E         	call	_mat_set
  2038   0039E2                     
  2039                           ;main.c: 289:  float Rk = powf(10,-4);
  2040   0039E2  0E00               	movlw	0
  2041   0039E4  0100               	movlb	0	; () banked
  2042   0039E6  6F8D               	movwf	powf@x& (0+255),b
  2043   0039E8  0E00               	movlw	0
  2044   0039EA  6F8E               	movwf	(powf@x+1)& (0+255),b
  2045   0039EC  0E20               	movlw	32
  2046   0039EE  6F8F               	movwf	(powf@x+2)& (0+255),b
  2047   0039F0  0E41               	movlw	65
  2048   0039F2  6F90               	movwf	(powf@x+3)& (0+255),b
  2049   0039F4  0E00               	movlw	0
  2050   0039F6  6F91               	movwf	powf@y& (0+255),b
  2051   0039F8  0E00               	movlw	0
  2052   0039FA  6F92               	movwf	(powf@y+1)& (0+255),b
  2053   0039FC  0E80               	movlw	128
  2054   0039FE  6F93               	movwf	(powf@y+2)& (0+255),b
  2055   003A00  0EC0               	movlw	192
  2056   003A02  6F94               	movwf	(powf@y+3)& (0+255),b
  2057   003A04  EC0F  F000         	call	_powf	;wreg free
  2058   003A08  C08D  F2CC         	movff	?_powf,main@Rk
  2059   003A0C  C08E  F2CD         	movff	?_powf+1,main@Rk+1
  2060   003A10  C08F  F2CE         	movff	?_powf+2,main@Rk+2
  2061   003A14  C090  F2CF         	movff	?_powf+3,main@Rk+3
  2062   003A18                     
  2063                           ;main.c: 306:     Matrix xhat;;main.c: 307:     mat_init(2, 1, &xhat);
  2064   003A18  0E01               	movlw	1
  2065   003A1A  6E0B               	movwf	mat_init@columns^0,c
  2066   003A1C  0E4E               	movlw	low main@xhat
  2067   003A1E  6E0C               	movwf	mat_init@matrix^0,c
  2068   003A20  0E02               	movlw	high main@xhat
  2069   003A22  6E0D               	movwf	(mat_init@matrix+1)^0,c
  2070   003A24  0E02               	movlw	2
  2071   003A26  EC2A  F030         	call	_mat_init
  2072   003A2A                     
  2073                           ;main.c: 308:  Matrix Qk1;;main.c: 309:     mat_init(2, 2, &Qk1);
  2074   003A2A  0E02               	movlw	2
  2075   003A2C  6E0B               	movwf	mat_init@columns^0,c
  2076   003A2E  0E00               	movlw	low main@Qk1
  2077   003A30  6E0C               	movwf	mat_init@matrix^0,c
  2078   003A32  0E03               	movlw	high main@Qk1
  2079   003A34  6E0D               	movwf	(mat_init@matrix+1)^0,c
  2080   003A36  0E02               	movlw	2
  2081   003A38  EC2A  F030         	call	_mat_init
  2082   003A3C                     
  2083                           ;main.c: 310:     mat_set(1, 1, 2.5 * powf(10,-7), &Qk1);
  2084   003A3C  0E00               	movlw	0
  2085   003A3E  0100               	movlb	0	; () banked
  2086   003A40  6F91               	movwf	powf@y& (0+255),b
  2087   003A42  0E00               	movlw	0
  2088   003A44  6F92               	movwf	(powf@y+1)& (0+255),b
  2089   003A46  0EE0               	movlw	224
  2090   003A48  6F93               	movwf	(powf@y+2)& (0+255),b
  2091   003A4A  0EC0               	movlw	192
  2092   003A4C  6F94               	movwf	(powf@y+3)& (0+255),b
  2093   003A4E  0E00               	movlw	0
  2094   003A50  6F8D               	movwf	powf@x& (0+255),b
  2095   003A52  0E00               	movlw	0
  2096   003A54  6F8E               	movwf	(powf@x+1)& (0+255),b
  2097   003A56  0E20               	movlw	32
  2098   003A58  6F8F               	movwf	(powf@x+2)& (0+255),b
  2099   003A5A  0E41               	movlw	65
  2100   003A5C  6F90               	movwf	(powf@x+3)& (0+255),b
  2101   003A5E  EC0F  F000         	call	_powf	;wreg free
  2102   003A62  C08D  F1D7         	movff	?_powf,_main$1734
  2103   003A66  C08E  F1D8         	movff	?_powf+1,_main$1734+1
  2104   003A6A  C08F  F1D9         	movff	?_powf+2,_main$1734+2
  2105   003A6E  C090  F1DA         	movff	?_powf+3,_main$1734+3
  2106   003A72                     
  2107                           ;main.c: 310:     mat_set(1, 1, 2.5 * powf(10,-7), &Qk1);
  2108   003A72  0E01               	movlw	1
  2109   003A74  0100               	movlb	0	; () banked
  2110   003A76  6FA7               	movwf	mat_set@column& (0+255),b
  2111   003A78  C1D7  F013         	movff	_main$1734,___flmul@b
  2112   003A7C  C1D8  F014         	movff	_main$1734+1,___flmul@b+1
  2113   003A80  C1D9  F015         	movff	_main$1734+2,___flmul@b+2
  2114   003A84  C1DA  F016         	movff	_main$1734+3,___flmul@b+3
  2115   003A88  0E00               	movlw	0
  2116   003A8A  6E17               	movwf	___flmul@a^0,c
  2117   003A8C  0E00               	movlw	0
  2118   003A8E  6E18               	movwf	(___flmul@a+1)^0,c
  2119   003A90  0E20               	movlw	32
  2120   003A92  6E19               	movwf	(___flmul@a+2)^0,c
  2121   003A94  0E40               	movlw	64
  2122   003A96  6E1A               	movwf	(___flmul@a+3)^0,c
  2123   003A98  EC38  F023         	call	___flmul	;wreg free
  2124   003A9C  C013  F0A8         	movff	?___flmul,mat_set@element
  2125   003AA0  C014  F0A9         	movff	?___flmul+1,mat_set@element+1
  2126   003AA4  C015  F0AA         	movff	?___flmul+2,mat_set@element+2
  2127   003AA8  C016  F0AB         	movff	?___flmul+3,mat_set@element+3
  2128   003AAC  0E00               	movlw	low main@Qk1
  2129   003AAE  0100               	movlb	0	; () banked
  2130   003AB0  6FAC               	movwf	mat_set@matrix& (0+255),b
  2131   003AB2  0E03               	movlw	high main@Qk1
  2132   003AB4  6FAD               	movwf	(mat_set@matrix+1)& (0+255),b
  2133   003AB6  0E01               	movlw	1
  2134   003AB8  EC30  F02E         	call	_mat_set
  2135   003ABC                     
  2136                           ;main.c: 311:     Matrix xhatk_1;;main.c: 312:     mat_init(2, 1, &xhatk_1);
  2137   003ABC  0E01               	movlw	1
  2138   003ABE  6E0B               	movwf	mat_init@columns^0,c
  2139   003AC0  0E5A               	movlw	low main@xhatk_1
  2140   003AC2  6E0C               	movwf	mat_init@matrix^0,c
  2141   003AC4  0E03               	movlw	high main@xhatk_1
  2142   003AC6  6E0D               	movwf	(mat_init@matrix+1)^0,c
  2143   003AC8  0E02               	movlw	2
  2144   003ACA  EC2A  F030         	call	_mat_init
  2145   003ACE                     
  2146                           ;main.c: 313:     Matrix fk_;;main.c: 314:     mat_init(2, 1, &fk_);
  2147   003ACE  0E01               	movlw	1
  2148   003AD0  6E0B               	movwf	mat_init@columns^0,c
  2149   003AD2  0E60               	movlw	low main@fk_
  2150   003AD4  6E0C               	movwf	mat_init@matrix^0,c
  2151   003AD6  0E02               	movlw	high main@fk_
  2152   003AD8  6E0D               	movwf	(mat_init@matrix+1)^0,c
  2153   003ADA  0E02               	movlw	2
  2154   003ADC  EC2A  F030         	call	_mat_init
  2155   003AE0                     
  2156                           ;main.c: 315:     Matrix xhatCorrected;;main.c: 316:     mat_init(2, 1, &xhatCorrected);
  2157   003AE0  0E01               	movlw	1
  2158   003AE2  6E0B               	movwf	mat_init@columns^0,c
  2159   003AE4  0E24               	movlw	low main@xhatCorrected
  2160   003AE6  6E0C               	movwf	mat_init@matrix^0,c
  2161   003AE8  0E03               	movlw	high main@xhatCorrected
  2162   003AEA  6E0D               	movwf	(mat_init@matrix+1)^0,c
  2163   003AEC  0E02               	movlw	2
  2164   003AEE  EC2A  F030         	call	_mat_init
  2165   003AF2                     
  2166                           ;main.c: 317:     Matrix PCorrected;;main.c: 318:     mat_init(2, 2, &PCorrected);
  2167   003AF2  0E02               	movlw	2
  2168   003AF4  6E0B               	movwf	mat_init@columns^0,c
  2169   003AF6  0ED0               	movlw	low main@PCorrected
  2170   003AF8  6E0C               	movwf	mat_init@matrix^0,c
  2171   003AFA  0E02               	movlw	high main@PCorrected
  2172   003AFC  6E0D               	movwf	(mat_init@matrix+1)^0,c
  2173   003AFE  0E02               	movlw	2
  2174   003B00  EC2A  F030         	call	_mat_init
  2175   003B04                     
  2176                           ;main.c: 319:     Matrix Lk;;main.c: 320:     mat_init(2, 1, &Lk);
  2177   003B04  0E01               	movlw	1
  2178   003B06  6E0B               	movwf	mat_init@columns^0,c
  2179   003B08  0E72               	movlw	low main@Lk
  2180   003B0A  6E0C               	movwf	mat_init@matrix^0,c
  2181   003B0C  0E02               	movlw	high main@Lk
  2182   003B0E  6E0D               	movwf	(mat_init@matrix+1)^0,c
  2183   003B10  0E02               	movlw	2
  2184   003B12  EC2A  F030         	call	_mat_init
  2185   003B16                     
  2186                           ;main.c: 321:     Matrix P;;main.c: 322:     mat_init(2, 2, &P);
  2187   003B16  0E02               	movlw	2
  2188   003B18  6E0B               	movwf	mat_init@columns^0,c
  2189   003B1A  0E48               	movlw	low main@P
  2190   003B1C  6E0C               	movwf	mat_init@matrix^0,c
  2191   003B1E  0E03               	movlw	high main@P
  2192   003B20  6E0D               	movwf	(mat_init@matrix+1)^0,c
  2193   003B22  0E02               	movlw	2
  2194   003B24  EC2A  F030         	call	_mat_init
  2195   003B28                     
  2196                           ;main.c: 323:     mat_set(1, 1, Rk, &P);
  2197   003B28  0E01               	movlw	1
  2198   003B2A  0100               	movlb	0	; () banked
  2199   003B2C  6FA7               	movwf	mat_set@column& (0+255),b
  2200   003B2E  C2CC  F0A8         	movff	main@Rk,mat_set@element
  2201   003B32  C2CD  F0A9         	movff	main@Rk+1,mat_set@element+1
  2202   003B36  C2CE  F0AA         	movff	main@Rk+2,mat_set@element+2
  2203   003B3A  C2CF  F0AB         	movff	main@Rk+3,mat_set@element+3
  2204   003B3E  0E48               	movlw	low main@P
  2205   003B40  6FAC               	movwf	mat_set@matrix& (0+255),b
  2206   003B42  0E03               	movlw	high main@P
  2207   003B44  6FAD               	movwf	(mat_set@matrix+1)& (0+255),b
  2208   003B46  0E01               	movlw	1
  2209   003B48  EC30  F02E         	call	_mat_set
  2210   003B4C                     
  2211                           ;main.c: 324:     mat_set(2, 2, Rk, &P);
  2212   003B4C  0E02               	movlw	2
  2213   003B4E  0100               	movlb	0	; () banked
  2214   003B50  6FA7               	movwf	mat_set@column& (0+255),b
  2215   003B52  C2CC  F0A8         	movff	main@Rk,mat_set@element
  2216   003B56  C2CD  F0A9         	movff	main@Rk+1,mat_set@element+1
  2217   003B5A  C2CE  F0AA         	movff	main@Rk+2,mat_set@element+2
  2218   003B5E  C2CF  F0AB         	movff	main@Rk+3,mat_set@element+3
  2219   003B62  0E48               	movlw	low main@P
  2220   003B64  6FAC               	movwf	mat_set@matrix& (0+255),b
  2221   003B66  0E03               	movlw	high main@P
  2222   003B68  6FAD               	movwf	(mat_set@matrix+1)& (0+255),b
  2223   003B6A  0E02               	movlw	2
  2224   003B6C  EC30  F02E         	call	_mat_set
  2225   003B70                     
  2226                           ;main.c: 325:     Matrix Pk_1;;main.c: 326:     mat_init(2, 2, &Pk_1);
  2227   003B70  0E02               	movlw	2
  2228   003B72  6E0B               	movwf	mat_init@columns^0,c
  2229   003B74  0E6C               	movlw	low main@Pk_1
  2230   003B76  6E0C               	movwf	mat_init@matrix^0,c
  2231   003B78  0E03               	movlw	high main@Pk_1
  2232   003B7A  6E0D               	movwf	(mat_init@matrix+1)^0,c
  2233   003B7C  0E02               	movlw	2
  2234   003B7E  EC2A  F030         	call	_mat_init
  2235   003B82                     
  2236                           ;main.c: 327:     mat_set(1, 1, Rk, &Pk_1);
  2237   003B82  0E01               	movlw	1
  2238   003B84  0100               	movlb	0	; () banked
  2239   003B86  6FA7               	movwf	mat_set@column& (0+255),b
  2240   003B88  C2CC  F0A8         	movff	main@Rk,mat_set@element
  2241   003B8C  C2CD  F0A9         	movff	main@Rk+1,mat_set@element+1
  2242   003B90  C2CE  F0AA         	movff	main@Rk+2,mat_set@element+2
  2243   003B94  C2CF  F0AB         	movff	main@Rk+3,mat_set@element+3
  2244   003B98  0E6C               	movlw	low main@Pk_1
  2245   003B9A  6FAC               	movwf	mat_set@matrix& (0+255),b
  2246   003B9C  0E03               	movlw	high main@Pk_1
  2247   003B9E  6FAD               	movwf	(mat_set@matrix+1)& (0+255),b
  2248   003BA0  0E01               	movlw	1
  2249   003BA2  EC30  F02E         	call	_mat_set
  2250   003BA6                     
  2251                           ;main.c: 328:     mat_set(2, 2, Rk, &Pk_1);
  2252   003BA6  0E02               	movlw	2
  2253   003BA8  0100               	movlb	0	; () banked
  2254   003BAA  6FA7               	movwf	mat_set@column& (0+255),b
  2255   003BAC  C2CC  F0A8         	movff	main@Rk,mat_set@element
  2256   003BB0  C2CD  F0A9         	movff	main@Rk+1,mat_set@element+1
  2257   003BB4  C2CE  F0AA         	movff	main@Rk+2,mat_set@element+2
  2258   003BB8  C2CF  F0AB         	movff	main@Rk+3,mat_set@element+3
  2259   003BBC  0E6C               	movlw	low main@Pk_1
  2260   003BBE  6FAC               	movwf	mat_set@matrix& (0+255),b
  2261   003BC0  0E03               	movlw	high main@Pk_1
  2262   003BC2  6FAD               	movwf	(mat_set@matrix+1)& (0+255),b
  2263   003BC4  0E02               	movlw	2
  2264   003BC6  EC30  F02E         	call	_mat_set
  2265   003BCA                     
  2266                           ;main.c: 329:     Matrix sub_mat_1;;main.c: 330:     mat_init(2, 2, &sub_mat_1);
  2267   003BCA  0E02               	movlw	2
  2268   003BCC  6E0B               	movwf	mat_init@columns^0,c
  2269   003BCE  0EE2               	movlw	low main@sub_mat_1
  2270   003BD0  6E0C               	movwf	mat_init@matrix^0,c
  2271   003BD2  0E02               	movlw	high main@sub_mat_1
  2272   003BD4  6E0D               	movwf	(mat_init@matrix+1)^0,c
  2273   003BD6  0E02               	movlw	2
  2274   003BD8  EC2A  F030         	call	_mat_init
  2275   003BDC                     
  2276                           ;main.c: 331:     Matrix sub_mat_2;;main.c: 332:     mat_init(2, 2, &sub_mat_2);
  2277   003BDC  0E02               	movlw	2
  2278   003BDE  6E0B               	movwf	mat_init@columns^0,c
  2279   003BE0  0EA8               	movlw	low main@sub_mat_2
  2280   003BE2  6E0C               	movwf	mat_init@matrix^0,c
  2281   003BE4  0E02               	movlw	high main@sub_mat_2
  2282   003BE6  6E0D               	movwf	(mat_init@matrix+1)^0,c
  2283   003BE8  0E02               	movlw	2
  2284   003BEA  EC2A  F030         	call	_mat_init
  2285   003BEE                     
  2286                           ;main.c: 333:     Matrix sub_mat_3;;main.c: 334:     mat_init(2, 2, &sub_mat_3);
  2287   003BEE  0E02               	movlw	2
  2288   003BF0  6E0B               	movwf	mat_init@columns^0,c
  2289   003BF2  0EBA               	movlw	low main@sub_mat_3
  2290   003BF4  6E0C               	movwf	mat_init@matrix^0,c
  2291   003BF6  0E02               	movlw	high main@sub_mat_3
  2292   003BF8  6E0D               	movwf	(mat_init@matrix+1)^0,c
  2293   003BFA  0E02               	movlw	2
  2294   003BFC  EC2A  F030         	call	_mat_init
  2295   003C00                     
  2296                           ;main.c: 338:  uint8_t i, j;;main.c: 339:     float actualSOC = 1.0;
  2297   003C00  0E00               	movlw	0
  2298   003C02  0101               	movlb	1	; () banked
  2299   003C04  6FCB               	movwf	main@actualSOC& (0+255),b
  2300   003C06  0E00               	movlw	0
  2301   003C08  6FCC               	movwf	(main@actualSOC+1)& (0+255),b
  2302   003C0A  0E80               	movlw	128
  2303   003C0C  6FCD               	movwf	(main@actualSOC+2)& (0+255),b
  2304   003C0E  0E3F               	movlw	63
  2305   003C10  6FCE               	movwf	(main@actualSOC+3)& (0+255),b
  2306   003C12                     
  2307                           ; BSR set to: 1
  2308                           ;main.c: 340:     float Vc = 0.0;
  2309   003C12  0E00               	movlw	0
  2310   003C14  6FCF               	movwf	main@Vc& (0+255),b
  2311   003C16  0E00               	movlw	0
  2312   003C18  6FD0               	movwf	(main@Vc+1)& (0+255),b
  2313   003C1A  0E00               	movlw	0
  2314   003C1C  6FD1               	movwf	(main@Vc+2)& (0+255),b
  2315   003C1E  0E00               	movlw	0
  2316   003C20  6FD2               	movwf	(main@Vc+3)& (0+255),b
  2317   003C22                     
  2318                           ; BSR set to: 1
  2319                           ;main.c: 341:  float I = 0.0;
  2320   003C22  0E00               	movlw	0
  2321   003C24  6FDB               	movwf	main@I& (0+255),b
  2322   003C26  0E00               	movlw	0
  2323   003C28  6FDC               	movwf	(main@I+1)& (0+255),b
  2324   003C2A  0E00               	movlw	0
  2325   003C2C  6FDD               	movwf	(main@I+2)& (0+255),b
  2326   003C2E  0E00               	movlw	0
  2327   003C30  6FDE               	movwf	(main@I+3)& (0+255),b
  2328   003C32                     
  2329                           ; BSR set to: 1
  2330                           ;main.c: 342:  float Ik_1 = 0.0;
  2331   003C32  0E00               	movlw	0
  2332   003C34  6FD3               	movwf	main@Ik_1& (0+255),b
  2333   003C36  0E00               	movlw	0
  2334   003C38  6FD4               	movwf	(main@Ik_1+1)& (0+255),b
  2335   003C3A  0E00               	movlw	0
  2336   003C3C  6FD5               	movwf	(main@Ik_1+2)& (0+255),b
  2337   003C3E  0E00               	movlw	0
  2338   003C40  6FD6               	movwf	(main@Ik_1+3)& (0+255),b
  2339   003C42                     
  2340                           ; BSR set to: 1
  2341                           ;main.c: 343:  float V = 0.0;
  2342   003C42  0E00               	movlw	0
  2343   003C44  6FDF               	movwf	main@V& (0+255),b
  2344   003C46  0E00               	movlw	0
  2345   003C48  6FE0               	movwf	(main@V+1)& (0+255),b
  2346   003C4A  0E00               	movlw	0
  2347   003C4C  6FE1               	movwf	(main@V+2)& (0+255),b
  2348   003C4E  0E00               	movlw	0
  2349   003C50  6FE2               	movwf	(main@V+3)& (0+255),b
  2350   003C52                     
  2351                           ; BSR set to: 1
  2352                           ;main.c: 344:     mat_set(1, 1, actualSOC, &xhatk_1);
  2353   003C52  0E01               	movlw	1
  2354   003C54  0100               	movlb	0	; () banked
  2355   003C56  6FA7               	movwf	mat_set@column& (0+255),b
  2356   003C58  C1CB  F0A8         	movff	main@actualSOC,mat_set@element
  2357   003C5C  C1CC  F0A9         	movff	main@actualSOC+1,mat_set@element+1
  2358   003C60  C1CD  F0AA         	movff	main@actualSOC+2,mat_set@element+2
  2359   003C64  C1CE  F0AB         	movff	main@actualSOC+3,mat_set@element+3
  2360   003C68  0E5A               	movlw	low main@xhatk_1
  2361   003C6A  6FAC               	movwf	mat_set@matrix& (0+255),b
  2362   003C6C  0E03               	movlw	high main@xhatk_1
  2363   003C6E  6FAD               	movwf	(mat_set@matrix+1)& (0+255),b
  2364   003C70  0E01               	movlw	1
  2365   003C72  EC30  F02E         	call	_mat_set
  2366   003C76                     
  2367                           ;main.c: 345:  mat_set(2, 1, Vc, &xhatk_1);
  2368   003C76  0E01               	movlw	1
  2369   003C78  0100               	movlb	0	; () banked
  2370   003C7A  6FA7               	movwf	mat_set@column& (0+255),b
  2371   003C7C  C1CF  F0A8         	movff	main@Vc,mat_set@element
  2372   003C80  C1D0  F0A9         	movff	main@Vc+1,mat_set@element+1
  2373   003C84  C1D1  F0AA         	movff	main@Vc+2,mat_set@element+2
  2374   003C88  C1D2  F0AB         	movff	main@Vc+3,mat_set@element+3
  2375   003C8C  0E5A               	movlw	low main@xhatk_1
  2376   003C8E  6FAC               	movwf	mat_set@matrix& (0+255),b
  2377   003C90  0E03               	movlw	high main@xhatk_1
  2378   003C92  6FAD               	movwf	(mat_set@matrix+1)& (0+255),b
  2379   003C94  0E02               	movlw	2
  2380   003C96  EC30  F02E         	call	_mat_set
  2381   003C9A                     
  2382                           ;main.c: 347:     uint8_t cumulative_time = 0;
  2383   003C9A  0E00               	movlw	0
  2384   003C9C  0100               	movlb	0	; () banked
  2385   003C9E  6FEE               	movwf	main@cumulative_time& (0+255),b
  2386   003CA0                     
  2387                           ; BSR set to: 0
  2388                           ;main.c: 349:     static uint8_t rx_buf[128] = {0};;main.c: 350:     static Frame_t rx_f
      +                          rame;;main.c: 351:     Frame_Init(&rx_frame, rx_buf, 128);
  2389   003CA0  0EB4               	movlw	low main@rx_frame
  2390   003CA2  6E03               	movwf	Frame_Init@frame^0,c
  2391   003CA4  0E03               	movlw	high main@rx_frame
  2392   003CA6  6E04               	movwf	(Frame_Init@frame+1)^0,c
  2393   003CA8  0E00               	movlw	low main@rx_buf
  2394   003CAA  6E05               	movwf	Frame_Init@buf^0,c
  2395   003CAC  0E04               	movlw	high main@rx_buf
  2396   003CAE  6E06               	movwf	(Frame_Init@buf+1)^0,c
  2397   003CB0  0E80               	movlw	128
  2398   003CB2  6E07               	movwf	Frame_Init@len^0,c
  2399   003CB4  EC6C  F02F         	call	_Frame_Init	;wreg free
  2400   003CB8                     l5974:
  2401                           
  2402                           ;main.c: 354:     {;main.c: 356:         if(UART1_is_rx_ready() && UART1_is_tx_ready()){
  2403   003CB8  ECE3  F030         	call	_UART1_is_rx_ready	;wreg free
  2404   003CBC  0900               	iorlw	0
  2405   003CBE  B4D8               	btfsc	status,2,c
  2406   003CC0  EF64  F01E         	goto	u5701
  2407   003CC4  EF66  F01E         	goto	u5700
  2408   003CC8                     u5701:
  2409   003CC8  EF5C  F01E         	goto	l5974
  2410   003CCC                     u5700:
  2411   003CCC  EC5D  F030         	call	_UART1_is_tx_ready	;wreg free
  2412   003CD0  0900               	iorlw	0
  2413   003CD2  B4D8               	btfsc	status,2,c
  2414   003CD4  EF6E  F01E         	goto	u5711
  2415   003CD8  EF70  F01E         	goto	u5710
  2416   003CDC                     u5711:
  2417   003CDC  EF5C  F01E         	goto	l5974
  2418   003CE0                     u5710:
  2419   003CE0                     
  2420                           ;main.c: 357:             UART1_Write(UART1_Read());
  2421   003CE0  ECE2  F02D         	call	_UART1_Read	;wreg free
  2422   003CE4  ECBD  F030         	call	_UART1_Write
  2423   003CE8  EF5C  F01E         	goto	l5974
  2424   003CEC  EF0D  F000         	goto	start
  2425   003CF0                     __end_of_main:
  2426                           	callstack 0
  2427                           
  2428 ;; *************** function _mat_transpose *****************
  2429 ;; Defined at:
  2430 ;;		line 53 in file "matrix_mult.c"
  2431 ;; Parameters:    Size  Location     Type
  2432 ;;  matrix          2   83[BANK0 ] PTR struct MatrixStruct
  2433 ;;		 -> main@Eprime(18), main@Aprime(18), 
  2434 ;;  result          2   85[BANK0 ] PTR struct MatrixStruct
  2435 ;;		 -> main@Eprime_transpose(18), main@Aprime_transpose(18), 
  2436 ;; Auto vars:     Size  Location     Type
  2437 ;;  matrix_2_2      4   99[BANK0 ] float 
  2438 ;;  matrix_2_1      4   95[BANK0 ] float 
  2439 ;;  matrix_1_1      4   91[BANK0 ] float 
  2440 ;;  matrix_1_2      4   87[BANK0 ] float 
  2441 ;; Return value:  Size  Location     Type
  2442 ;;                  1    wreg      void 
  2443 ;; Registers used:
  2444 ;;		wreg, fsr2l, fsr2h, status,2, status,0, prodl, prodh, cstack
  2445 ;; Tracked objects:
  2446 ;;		On entry : 0/0
  2447 ;;		On exit  : 0/0
  2448 ;;		Unchanged: 0/0
  2449 ;; Data sizes:     COMRAM   BANK0   BANK1   BANK2   BANK3   BANK4   BANK5   BANK6   BANK7   BANK8   BANK9  BANK10  BANK1
      +1  BANK12  BANK13  BANK14  BANK15
  2450 ;;      Params:         0       4       0       0       0       0       0       0       0       0       0       0       
      +0       0       0       0       0
  2451 ;;      Locals:         0      16       0       0       0       0       0       0       0       0       0       0       
      +0       0       0       0       0
  2452 ;;      Temps:          0       0       0       0       0       0       0       0       0       0       0       0       
      +0       0       0       0       0
  2453 ;;      Totals:         0      20       0       0       0       0       0       0       0       0       0       0       
      +0       0       0       0       0
  2454 ;;Total ram usage:       20 bytes
  2455 ;; Hardware stack levels used: 1
  2456 ;; Hardware stack levels required when called: 5
  2457 ;; This function calls:
  2458 ;;		_mat_get
  2459 ;;		_mat_init
  2460 ;;		_mat_set
  2461 ;; This function is called by:
  2462 ;;		_main
  2463 ;; This function uses a non-reentrant model
  2464 ;;
  2465                           
  2466                           	psect	text1
  2467   0057A4                     __ptext1:
  2468                           	callstack 0
  2469   0057A4                     _mat_transpose:
  2470                           	callstack 25
  2471   0057A4                     
  2472                           ;matrix_mult.c: 58:     mat_init(2, 2, result);
  2473   0057A4  0E02               	movlw	2
  2474   0057A6  6E0B               	movwf	mat_init@columns^0,c
  2475   0057A8  C0B5  F00C         	movff	mat_transpose@result,mat_init@matrix
  2476   0057AC  C0B6  F00D         	movff	mat_transpose@result+1,mat_init@matrix+1
  2477   0057B0  0E02               	movlw	2
  2478   0057B2  EC2A  F030         	call	_mat_init
  2479   0057B6                     
  2480                           ;matrix_mult.c: 60:     float matrix_1_2 = mat_get(1, 2, matrix);
  2481   0057B6  0E02               	movlw	2
  2482   0057B8  6E09               	movwf	mat_get@column^0,c
  2483   0057BA  C0B3  F00A         	movff	mat_transpose@matrix,mat_get@matrix
  2484   0057BE  C0B4  F00B         	movff	mat_transpose@matrix+1,mat_get@matrix+1
  2485   0057C2  0E01               	movlw	1
  2486   0057C4  EC6B  F02E         	call	_mat_get
  2487   0057C8  C009  F0B7         	movff	?_mat_get,mat_transpose@matrix_1_2
  2488   0057CC  C00A  F0B8         	movff	?_mat_get+1,mat_transpose@matrix_1_2+1
  2489   0057D0  C00B  F0B9         	movff	?_mat_get+2,mat_transpose@matrix_1_2+2
  2490   0057D4  C00C  F0BA         	movff	?_mat_get+3,mat_transpose@matrix_1_2+3
  2491   0057D8                     
  2492                           ;matrix_mult.c: 61:     mat_set(2, 1, matrix_1_2, result);
  2493   0057D8  0E01               	movlw	1
  2494   0057DA  0100               	movlb	0	; () banked
  2495   0057DC  6FA7               	movwf	mat_set@column& (0+255),b
  2496   0057DE  C0B7  F0A8         	movff	mat_transpose@matrix_1_2,mat_set@element
  2497   0057E2  C0B8  F0A9         	movff	mat_transpose@matrix_1_2+1,mat_set@element+1
  2498   0057E6  C0B9  F0AA         	movff	mat_transpose@matrix_1_2+2,mat_set@element+2
  2499   0057EA  C0BA  F0AB         	movff	mat_transpose@matrix_1_2+3,mat_set@element+3
  2500   0057EE  C0B5  F0AC         	movff	mat_transpose@result,mat_set@matrix
  2501   0057F2  C0B6  F0AD         	movff	mat_transpose@result+1,mat_set@matrix+1
  2502   0057F6  0E02               	movlw	2
  2503   0057F8  EC30  F02E         	call	_mat_set
  2504   0057FC                     
  2505                           ;matrix_mult.c: 63:     float matrix_1_1 = mat_get(1, 1, matrix);
  2506   0057FC  0E01               	movlw	1
  2507   0057FE  6E09               	movwf	mat_get@column^0,c
  2508   005800  C0B3  F00A         	movff	mat_transpose@matrix,mat_get@matrix
  2509   005804  C0B4  F00B         	movff	mat_transpose@matrix+1,mat_get@matrix+1
  2510   005808  0E01               	movlw	1
  2511   00580A  EC6B  F02E         	call	_mat_get
  2512   00580E  C009  F0BB         	movff	?_mat_get,mat_transpose@matrix_1_1
  2513   005812  C00A  F0BC         	movff	?_mat_get+1,mat_transpose@matrix_1_1+1
  2514   005816  C00B  F0BD         	movff	?_mat_get+2,mat_transpose@matrix_1_1+2
  2515   00581A  C00C  F0BE         	movff	?_mat_get+3,mat_transpose@matrix_1_1+3
  2516   00581E                     
  2517                           ;matrix_mult.c: 64:     mat_set(1, 1, matrix_1_1, result);
  2518   00581E  0E01               	movlw	1
  2519   005820  0100               	movlb	0	; () banked
  2520   005822  6FA7               	movwf	mat_set@column& (0+255),b
  2521   005824  C0BB  F0A8         	movff	mat_transpose@matrix_1_1,mat_set@element
  2522   005828  C0BC  F0A9         	movff	mat_transpose@matrix_1_1+1,mat_set@element+1
  2523   00582C  C0BD  F0AA         	movff	mat_transpose@matrix_1_1+2,mat_set@element+2
  2524   005830  C0BE  F0AB         	movff	mat_transpose@matrix_1_1+3,mat_set@element+3
  2525   005834  C0B5  F0AC         	movff	mat_transpose@result,mat_set@matrix
  2526   005838  C0B6  F0AD         	movff	mat_transpose@result+1,mat_set@matrix+1
  2527   00583C  0E01               	movlw	1
  2528   00583E  EC30  F02E         	call	_mat_set
  2529   005842                     
  2530                           ;matrix_mult.c: 66:     float matrix_2_1 = mat_get(2, 1, matrix);
  2531   005842  0E01               	movlw	1
  2532   005844  6E09               	movwf	mat_get@column^0,c
  2533   005846  C0B3  F00A         	movff	mat_transpose@matrix,mat_get@matrix
  2534   00584A  C0B4  F00B         	movff	mat_transpose@matrix+1,mat_get@matrix+1
  2535   00584E  0E02               	movlw	2
  2536   005850  EC6B  F02E         	call	_mat_get
  2537   005854  C009  F0BF         	movff	?_mat_get,mat_transpose@matrix_2_1
  2538   005858  C00A  F0C0         	movff	?_mat_get+1,mat_transpose@matrix_2_1+1
  2539   00585C  C00B  F0C1         	movff	?_mat_get+2,mat_transpose@matrix_2_1+2
  2540   005860  C00C  F0C2         	movff	?_mat_get+3,mat_transpose@matrix_2_1+3
  2541   005864                     
  2542                           ;matrix_mult.c: 67:     mat_set(1, 2, matrix_2_1, result);
  2543   005864  0E02               	movlw	2
  2544   005866  0100               	movlb	0	; () banked
  2545   005868  6FA7               	movwf	mat_set@column& (0+255),b
  2546   00586A  C0BF  F0A8         	movff	mat_transpose@matrix_2_1,mat_set@element
  2547   00586E  C0C0  F0A9         	movff	mat_transpose@matrix_2_1+1,mat_set@element+1
  2548   005872  C0C1  F0AA         	movff	mat_transpose@matrix_2_1+2,mat_set@element+2
  2549   005876  C0C2  F0AB         	movff	mat_transpose@matrix_2_1+3,mat_set@element+3
  2550   00587A  C0B5  F0AC         	movff	mat_transpose@result,mat_set@matrix
  2551   00587E  C0B6  F0AD         	movff	mat_transpose@result+1,mat_set@matrix+1
  2552   005882  0E01               	movlw	1
  2553   005884  EC30  F02E         	call	_mat_set
  2554   005888                     
  2555                           ;matrix_mult.c: 69:     float matrix_2_2 = mat_get(2, 2, matrix);
  2556   005888  0E02               	movlw	2
  2557   00588A  6E09               	movwf	mat_get@column^0,c
  2558   00588C  C0B3  F00A         	movff	mat_transpose@matrix,mat_get@matrix
  2559   005890  C0B4  F00B         	movff	mat_transpose@matrix+1,mat_get@matrix+1
  2560   005894  0E02               	movlw	2
  2561   005896  EC6B  F02E         	call	_mat_get
  2562   00589A  C009  F0C3         	movff	?_mat_get,mat_transpose@matrix_2_2
  2563   00589E  C00A  F0C4         	movff	?_mat_get+1,mat_transpose@matrix_2_2+1
  2564   0058A2  C00B  F0C5         	movff	?_mat_get+2,mat_transpose@matrix_2_2+2
  2565   0058A6  C00C  F0C6         	movff	?_mat_get+3,mat_transpose@matrix_2_2+3
  2566   0058AA                     
  2567                           ;matrix_mult.c: 70:     mat_set(2, 2, matrix_2_2, result);
  2568   0058AA  0E02               	movlw	2
  2569   0058AC  0100               	movlb	0	; () banked
  2570   0058AE  6FA7               	movwf	mat_set@column& (0+255),b
  2571   0058B0  C0C3  F0A8         	movff	mat_transpose@matrix_2_2,mat_set@element
  2572   0058B4  C0C4  F0A9         	movff	mat_transpose@matrix_2_2+1,mat_set@element+1
  2573   0058B8  C0C5  F0AA         	movff	mat_transpose@matrix_2_2+2,mat_set@element+2
  2574   0058BC  C0C6  F0AB         	movff	mat_transpose@matrix_2_2+3,mat_set@element+3
  2575   0058C0  C0B5  F0AC         	movff	mat_transpose@result,mat_set@matrix
  2576   0058C4  C0B6  F0AD         	movff	mat_transpose@result+1,mat_set@matrix+1
  2577   0058C8  0E02               	movlw	2
  2578   0058CA  EC30  F02E         	call	_mat_set
  2579   0058CE  0012               	return		;funcret
  2580   0058D0                     __end_of_mat_transpose:
  2581                           	callstack 0
  2582                           
  2583 ;; *************** function _expf *****************
  2584 ;; Defined at:
  2585 ;;		line 31 in file "C:\Program Files\Microchip\xc8\v2.41\pic\sources\c99\common\expf.c"
  2586 ;; Parameters:    Size  Location     Type
  2587 ;;  x               4   13[BANK0 ] float 
  2588 ;; Auto vars:     Size  Location     Type
  2589 ;;  hx              4   67[BANK0 ] unsigned long 
  2590 ;;  k               4   63[BANK0 ] long 
  2591 ;;  lo              4   57[BANK0 ] float 
  2592 ;;  hi              4   53[BANK0 ] float 
  2593 ;;  y               4   49[BANK0 ] float 
  2594 ;;  xx              4   45[BANK0 ] float 
  2595 ;;  c               4   41[BANK0 ] float 
  2596 ;;  __xc8_float_    4   21[BANK0 ] struct .
  2597 ;;  sign            2   61[BANK0 ] int 
  2598 ;; Return value:  Size  Location     Type
  2599 ;;                  4   13[BANK0 ] float 
  2600 ;; Registers used:
  2601 ;;		wreg, status,2, status,0, tblptrl, tblptrh, tblptru, prodl, prodh, cstack
  2602 ;; Tracked objects:
  2603 ;;		On entry : 0/0
  2604 ;;		On exit  : 0/0
  2605 ;;		Unchanged: 0/0
  2606 ;; Data sizes:     COMRAM   BANK0   BANK1   BANK2   BANK3   BANK4   BANK5   BANK6   BANK7   BANK8   BANK9  BANK10  BANK1
      +1  BANK12  BANK13  BANK14  BANK15
  2607 ;;      Params:         0       4       0       0       0       0       0       0       0       0       0       0       
      +0       0       0       0       0
  2608 ;;      Locals:         0      50       0       0       0       0       0       0       0       0       0       0       
      +0       0       0       0       0
  2609 ;;      Temps:          0       4       0       0       0       0       0       0       0       0       0       0       
      +0       0       0       0       0
  2610 ;;      Totals:         0      58       0       0       0       0       0       0       0       0       0       0       
      +0       0       0       0       0
  2611 ;;Total ram usage:       58 bytes
  2612 ;; Hardware stack levels used: 1
  2613 ;; Hardware stack levels required when called: 5
  2614 ;; This function calls:
  2615 ;;		___fladd
  2616 ;;		___fldiv
  2617 ;;		___flmul
  2618 ;;		___flsub
  2619 ;;		___fltol
  2620 ;;		___xxtofl
  2621 ;;		_scalbnf
  2622 ;; This function is called by:
  2623 ;;		_main
  2624 ;; This function uses a non-reentrant model
  2625 ;;
  2626                           
  2627                           	psect	text2
  2628   00317E                     __ptext2:
  2629                           	callstack 0
  2630   00317E                     _expf:
  2631                           	callstack 25
  2632   00317E  C06D  F075         	movff	expf@x,expf@__xc8_float_word
  2633   003182  C06E  F076         	movff	expf@x+1,expf@__xc8_float_word+1
  2634   003186  C06F  F077         	movff	expf@x+2,expf@__xc8_float_word+2
  2635   00318A  C070  F078         	movff	expf@x+3,expf@__xc8_float_word+3
  2636   00318E  C075  F0A3         	movff	expf@__xc8_float_word,expf@hx
  2637   003192  C076  F0A4         	movff	expf@__xc8_float_word+1,expf@hx+1
  2638   003196  C077  F0A5         	movff	expf@__xc8_float_word+2,expf@hx+2
  2639   00319A  C078  F0A6         	movff	expf@__xc8_float_word+3,expf@hx+3
  2640   00319E  C0A3  F071         	movff	expf@hx,??_expf
  2641   0031A2  C0A4  F072         	movff	expf@hx+1,??_expf+1
  2642   0031A6  C0A5  F073         	movff	expf@hx+2,??_expf+2
  2643   0031AA  C0A6  F074         	movff	expf@hx+3,??_expf+3
  2644   0031AE  0E20               	movlw	32
  2645   0031B0  EFE0  F018         	goto	u5590
  2646   0031B4                     u5595:
  2647   0031B4  0100               	movlb	0	; () banked
  2648   0031B6  90D8               	bcf	status,0,c
  2649   0031B8  3374               	rrcf	(??_expf+3)& (0+255),f,b
  2650   0031BA  3373               	rrcf	(??_expf+2)& (0+255),f,b
  2651   0031BC  3372               	rrcf	(??_expf+1)& (0+255),f,b
  2652   0031BE  3371               	rrcf	??_expf& (0+255),f,b
  2653   0031C0                     u5590:
  2654   0031C0  2EE8               	decfsz	wreg,f,c
  2655   0031C2  EFDA  F018         	goto	u5595
  2656   0031C6  C071  F09D         	movff	??_expf,expf@sign
  2657   0031CA  C072  F09E         	movff	??_expf+1,expf@sign+1
  2658   0031CE                     
  2659                           ; BSR set to: 0
  2660   0031CE  9FA6               	bcf	(expf@hx+3)& (0+255),7,b
  2661   0031D0                     
  2662                           ; BSR set to: 0
  2663   0031D0  0E50               	movlw	80
  2664   0031D2  5DA3               	subwf	expf@hx& (0+255),w,b
  2665   0031D4  0EAC               	movlw	172
  2666   0031D6  59A4               	subwfb	(expf@hx+1)& (0+255),w,b
  2667   0031D8  0EAE               	movlw	174
  2668   0031DA  59A5               	subwfb	(expf@hx+2)& (0+255),w,b
  2669   0031DC  0E42               	movlw	66
  2670   0031DE  59A6               	subwfb	(expf@hx+3)& (0+255),w,b
  2671   0031E0  A0D8               	btfss	status,0,c
  2672   0031E2  EFF5  F018         	goto	u5601
  2673   0031E6  EFF7  F018         	goto	u5600
  2674   0031EA                     u5601:
  2675   0031EA  EF69  F019         	goto	l5824
  2676   0031EE                     u5600:
  2677   0031EE                     
  2678                           ; BSR set to: 0
  2679   0031EE  0E00               	movlw	0
  2680   0031F0  6FFC               	movwf	(_errno+1)& (0+255),b
  2681   0031F2  0E22               	movlw	34
  2682   0031F4  6FFB               	movwf	_errno& (0+255),b
  2683   0031F6                     
  2684                           ; BSR set to: 0
  2685   0031F6  05A3               	decf	expf@hx& (0+255),w,b
  2686   0031F8  0E00               	movlw	0
  2687   0031FA  59A4               	subwfb	(expf@hx+1)& (0+255),w,b
  2688   0031FC  0E80               	movlw	128
  2689   0031FE  59A5               	subwfb	(expf@hx+2)& (0+255),w,b
  2690   003200  0E7F               	movlw	127
  2691   003202  59A6               	subwfb	(expf@hx+3)& (0+255),w,b
  2692   003204  A0D8               	btfss	status,0,c
  2693   003206  EF07  F019         	goto	u5611
  2694   00320A  EF09  F019         	goto	u5610
  2695   00320E                     u5611:
  2696   00320E  EF13  F019         	goto	l5806
  2697   003212                     u5610:
  2698   003212                     l5804:
  2699   003212  C06D  F06D         	movff	expf@x,?_expf
  2700   003216  C06E  F06E         	movff	expf@x+1,?_expf+1
  2701   00321A  C06F  F06F         	movff	expf@x+2,?_expf+2
  2702   00321E  C070  F070         	movff	expf@x+3,?_expf+3
  2703   003222  EFD8  F01B         	goto	l1123
  2704   003226                     l5806:
  2705                           
  2706                           ; BSR set to: 0
  2707   003226  0E18               	movlw	24
  2708   003228  5DA3               	subwf	expf@hx& (0+255),w,b
  2709   00322A  0E72               	movlw	114
  2710   00322C  59A4               	subwfb	(expf@hx+1)& (0+255),w,b
  2711   00322E  0EB1               	movlw	177
  2712   003230  59A5               	subwfb	(expf@hx+2)& (0+255),w,b
  2713   003232  0E42               	movlw	66
  2714   003234  59A6               	subwfb	(expf@hx+3)& (0+255),w,b
  2715   003236  A0D8               	btfss	status,0,c
  2716   003238  EF20  F019         	goto	u5621
  2717   00323C  EF22  F019         	goto	u5620
  2718   003240                     u5621:
  2719   003240  EF47  F019         	goto	l5816
  2720   003244                     u5620:
  2721   003244                     
  2722                           ; BSR set to: 0
  2723   003244  519D               	movf	expf@sign& (0+255),w,b
  2724   003246  119E               	iorwf	(expf@sign+1)& (0+255),w,b
  2725   003248  A4D8               	btfss	status,2,c
  2726   00324A  EF29  F019         	goto	u5631
  2727   00324E  EF2B  F019         	goto	u5630
  2728   003252                     u5631:
  2729   003252  EF47  F019         	goto	l5816
  2730   003256                     u5630:
  2731   003256                     
  2732                           ; BSR set to: 0
  2733   003256  C06D  F013         	movff	expf@x,___flmul@b
  2734   00325A  C06E  F014         	movff	expf@x+1,___flmul@b+1
  2735   00325E  C06F  F015         	movff	expf@x+2,___flmul@b+2
  2736   003262  C070  F016         	movff	expf@x+3,___flmul@b+3
  2737   003266  0E00               	movlw	0
  2738   003268  6E17               	movwf	___flmul@a^0,c
  2739   00326A  0E00               	movlw	0
  2740   00326C  6E18               	movwf	(___flmul@a+1)^0,c
  2741   00326E  0E00               	movlw	0
  2742   003270  6E19               	movwf	(___flmul@a+2)^0,c
  2743   003272  0E7F               	movlw	127
  2744   003274  6E1A               	movwf	(___flmul@a+3)^0,c
  2745   003276  EC38  F023         	call	___flmul	;wreg free
  2746   00327A  C013  F06D         	movff	?___flmul,expf@x
  2747   00327E  C014  F06E         	movff	?___flmul+1,expf@x+1
  2748   003282  C015  F06F         	movff	?___flmul+2,expf@x+2
  2749   003286  C016  F070         	movff	?___flmul+3,expf@x+3
  2750   00328A  EF09  F019         	goto	l5804
  2751   00328E                     l5816:
  2752                           
  2753                           ; BSR set to: 0
  2754   00328E  519D               	movf	expf@sign& (0+255),w,b
  2755   003290  119E               	iorwf	(expf@sign+1)& (0+255),w,b
  2756   003292  B4D8               	btfsc	status,2,c
  2757   003294  EF4E  F019         	goto	u5641
  2758   003298  EF50  F019         	goto	u5640
  2759   00329C                     u5641:
  2760   00329C  EF69  F019         	goto	l5824
  2761   0032A0                     u5640:
  2762   0032A0                     
  2763                           ; BSR set to: 0
  2764   0032A0  0EB5               	movlw	181
  2765   0032A2  5DA3               	subwf	expf@hx& (0+255),w,b
  2766   0032A4  0EF1               	movlw	241
  2767   0032A6  59A4               	subwfb	(expf@hx+1)& (0+255),w,b
  2768   0032A8  0ECF               	movlw	207
  2769   0032AA  59A5               	subwfb	(expf@hx+2)& (0+255),w,b
  2770   0032AC  0E42               	movlw	66
  2771   0032AE  59A6               	subwfb	(expf@hx+3)& (0+255),w,b
  2772   0032B0  A0D8               	btfss	status,0,c
  2773   0032B2  EF5D  F019         	goto	u5651
  2774   0032B6  EF5F  F019         	goto	u5650
  2775   0032BA                     u5651:
  2776   0032BA  EF69  F019         	goto	l5824
  2777   0032BE                     u5650:
  2778   0032BE                     
  2779                           ; BSR set to: 0
  2780   0032BE  0E00               	movlw	0
  2781   0032C0  6F6D               	movwf	?_expf& (0+255),b
  2782   0032C2  0E00               	movlw	0
  2783   0032C4  6F6E               	movwf	(?_expf+1)& (0+255),b
  2784   0032C6  0E00               	movlw	0
  2785   0032C8  6F6F               	movwf	(?_expf+2)& (0+255),b
  2786   0032CA  0E00               	movlw	0
  2787   0032CC  6F70               	movwf	(?_expf+3)& (0+255),b
  2788   0032CE  EFD8  F01B         	goto	l1123
  2789   0032D2                     l5824:
  2790                           
  2791                           ; BSR set to: 0
  2792   0032D2  0E19               	movlw	25
  2793   0032D4  5DA3               	subwf	expf@hx& (0+255),w,b
  2794   0032D6  0E72               	movlw	114
  2795   0032D8  59A4               	subwfb	(expf@hx+1)& (0+255),w,b
  2796   0032DA  0EB1               	movlw	177
  2797   0032DC  59A5               	subwfb	(expf@hx+2)& (0+255),w,b
  2798   0032DE  0E3E               	movlw	62
  2799   0032E0  59A6               	subwfb	(expf@hx+3)& (0+255),w,b
  2800   0032E2  A0D8               	btfss	status,0,c
  2801   0032E4  EF76  F019         	goto	u5661
  2802   0032E8  EF78  F019         	goto	u5660
  2803   0032EC                     u5661:
  2804   0032EC  EF6A  F01A         	goto	l5838
  2805   0032F0                     u5660:
  2806   0032F0                     
  2807                           ; BSR set to: 0
  2808   0032F0  0E93               	movlw	147
  2809   0032F2  5DA3               	subwf	expf@hx& (0+255),w,b
  2810   0032F4  0E15               	movlw	21
  2811   0032F6  59A4               	subwfb	(expf@hx+1)& (0+255),w,b
  2812   0032F8  0E85               	movlw	133
  2813   0032FA  59A5               	subwfb	(expf@hx+2)& (0+255),w,b
  2814   0032FC  0E3F               	movlw	63
  2815   0032FE  59A6               	subwfb	(expf@hx+3)& (0+255),w,b
  2816   003300  A0D8               	btfss	status,0,c
  2817   003302  EF85  F019         	goto	u5671
  2818   003306  EF87  F019         	goto	u5670
  2819   00330A                     u5671:
  2820   00330A  EFDA  F019         	goto	l5830
  2821   00330E                     u5670:
  2822   00330E                     
  2823                           ; BSR set to: 0
  2824   00330E  C09D  F071         	movff	expf@sign,??_expf
  2825   003312  C09E  F072         	movff	expf@sign+1,??_expf+1
  2826   003316  90D8               	bcf	status,0,c
  2827   003318  3771               	rlcf	??_expf& (0+255),f,b
  2828   00331A  3772               	rlcf	(??_expf+1)& (0+255),f,b
  2829   00331C  90D8               	bcf	status,0,c
  2830   00331E  3771               	rlcf	??_expf& (0+255),f,b
  2831   003320  3772               	rlcf	(??_expf+1)& (0+255),f,b
  2832   003322  0E75               	movlw	low _half
  2833   003324  2571               	addwf	??_expf& (0+255),w,b
  2834   003326  6EF6               	movwf	tblptrl,c
  2835   003328  0EFF               	movlw	high _half
  2836   00332A  2172               	addwfc	(??_expf+1)& (0+255),w,b
  2837   00332C  6EF7               	movwf	tblptrh,c
  2838   00332E                     	if	1	;There are 3 active tblptr bytes
  2839   00332E  6AF8               	clrf	tblptru,c
  2840   003330  0E00               	movlw	low (__mediumconst shr (0+16))
  2841   003332  22F8               	addwfc	tblptru,f,c
  2842   003334                     	endif
  2843   003334  0009               	tblrd		*+
  2844   003336  006F FFD4  F030    	movff	tablat,___fladd@a
  2845   00333C  0009               	tblrd		*+
  2846   00333E  006F FFD4  F031    	movff	tablat,___fladd@a+1
  2847   003344  0009               	tblrd		*+
  2848   003346  006F FFD4  F032    	movff	tablat,___fladd@a+2
  2849   00334C  000A               	tblrd		*-
  2850   00334E  006F FFD4  F033    	movff	tablat,___fladd@a+3
  2851   003354  0E3B               	movlw	59
  2852   003356  6E17               	movwf	___flmul@a^0,c
  2853   003358  0EAA               	movlw	170
  2854   00335A  6E18               	movwf	(___flmul@a+1)^0,c
  2855   00335C  0EB8               	movlw	184
  2856   00335E  6E19               	movwf	(___flmul@a+2)^0,c
  2857   003360  0E3F               	movlw	63
  2858   003362  6E1A               	movwf	(___flmul@a+3)^0,c
  2859   003364  C06D  F013         	movff	expf@x,___flmul@b
  2860   003368  C06E  F014         	movff	expf@x+1,___flmul@b+1
  2861   00336C  C06F  F015         	movff	expf@x+2,___flmul@b+2
  2862   003370  C070  F016         	movff	expf@x+3,___flmul@b+3
  2863   003374  EC38  F023         	call	___flmul	;wreg free
  2864   003378  C013  F02C         	movff	?___flmul,___fladd@b
  2865   00337C  C014  F02D         	movff	?___flmul+1,___fladd@b+1
  2866   003380  C015  F02E         	movff	?___flmul+2,___fladd@b+2
  2867   003384  C016  F02F         	movff	?___flmul+3,___fladd@b+3
  2868   003388  ECD8  F020         	call	___fladd	;wreg free
  2869   00338C  C02C  F03C         	movff	?___fladd,___fltol@f1
  2870   003390  C02D  F03D         	movff	?___fladd+1,___fltol@f1+1
  2871   003394  C02E  F03E         	movff	?___fladd+2,___fltol@f1+2
  2872   003398  C02F  F03F         	movff	?___fladd+3,___fltol@f1+3
  2873   00339C  EC68  F02C         	call	___fltol	;wreg free
  2874   0033A0  C03C  F09F         	movff	?___fltol,expf@k
  2875   0033A4  C03D  F0A0         	movff	?___fltol+1,expf@k+1
  2876   0033A8  C03E  F0A1         	movff	?___fltol+2,expf@k+2
  2877   0033AC  C03F  F0A2         	movff	?___fltol+3,expf@k+3
  2878   0033B0  EFF2  F019         	goto	l5832
  2879   0033B4                     l5830:
  2880                           
  2881                           ; BSR set to: 0
  2882   0033B4  C09D  F071         	movff	expf@sign,??_expf
  2883   0033B8  C09E  F072         	movff	expf@sign+1,??_expf+1
  2884   0033BC  90D8               	bcf	status,0,c
  2885   0033BE  3771               	rlcf	??_expf& (0+255),f,b
  2886   0033C0  3772               	rlcf	(??_expf+1)& (0+255),f,b
  2887   0033C2  5171               	movf	??_expf& (0+255),w,b
  2888   0033C4  0801               	sublw	1
  2889   0033C6  6F73               	movwf	(??_expf+2)& (0+255),b
  2890   0033C8  5172               	movf	(??_expf+1)& (0+255),w,b
  2891   0033CA  A0D8               	btfss	status,0,c
  2892   0033CC  2AE8               	incf	wreg,f,c
  2893   0033CE  0800               	sublw	0
  2894   0033D0  6F74               	movwf	(??_expf+3)& (0+255),b
  2895   0033D2  C073  F09F         	movff	??_expf+2,expf@k
  2896   0033D6  C074  F0A0         	movff	??_expf+3,expf@k+1
  2897   0033DA  0E00               	movlw	0
  2898   0033DC  BFA0               	btfsc	(expf@k+1)& (0+255),7,b
  2899   0033DE  0EFF               	movlw	-1
  2900   0033E0  6FA1               	movwf	(expf@k+2)& (0+255),b
  2901   0033E2  6FA2               	movwf	(expf@k+3)& (0+255),b
  2902   0033E4                     l5832:
  2903   0033E4  C06D  F046         	movff	expf@x,___flsub@b
  2904   0033E8  C06E  F047         	movff	expf@x+1,___flsub@b+1
  2905   0033EC  C06F  F048         	movff	expf@x+2,___flsub@b+2
  2906   0033F0  C070  F049         	movff	expf@x+3,___flsub@b+3
  2907   0033F4  0E00               	movlw	0
  2908   0033F6  6E17               	movwf	___flmul@a^0,c
  2909   0033F8  0E72               	movlw	114
  2910   0033FA  6E18               	movwf	(___flmul@a+1)^0,c
  2911   0033FC  0E31               	movlw	49
  2912   0033FE  6E19               	movwf	(___flmul@a+2)^0,c
  2913   003400  0E3F               	movlw	63
  2914   003402  6E1A               	movwf	(___flmul@a+3)^0,c
  2915   003404  C09F  F003         	movff	expf@k,___xxtofl@val
  2916   003408  C0A0  F004         	movff	expf@k+1,___xxtofl@val+1
  2917   00340C  C0A1  F005         	movff	expf@k+2,___xxtofl@val+2
  2918   003410  C0A2  F006         	movff	expf@k+3,___xxtofl@val+3
  2919   003414  0E01               	movlw	1
  2920   003416  EC61  F029         	call	___xxtofl
  2921   00341A  C003  F013         	movff	?___xxtofl,___flmul@b
  2922   00341E  C004  F014         	movff	?___xxtofl+1,___flmul@b+1
  2923   003422  C005  F015         	movff	?___xxtofl+2,___flmul@b+2
  2924   003426  C006  F016         	movff	?___xxtofl+3,___flmul@b+3
  2925   00342A  EC38  F023         	call	___flmul	;wreg free
  2926   00342E  C013  F04A         	movff	?___flmul,___flsub@a
  2927   003432  C014  F04B         	movff	?___flmul+1,___flsub@a+1
  2928   003436  C015  F04C         	movff	?___flmul+2,___flsub@a+2
  2929   00343A  C016  F04D         	movff	?___flmul+3,___flsub@a+3
  2930   00343E  ECB3  F02F         	call	___flsub	;wreg free
  2931   003442  C046  F095         	movff	?___flsub,expf@hi
  2932   003446  C047  F096         	movff	?___flsub+1,expf@hi+1
  2933   00344A  C048  F097         	movff	?___flsub+2,expf@hi+2
  2934   00344E  C049  F098         	movff	?___flsub+3,expf@hi+3
  2935   003452  C09F  F003         	movff	expf@k,___xxtofl@val
  2936   003456  C0A0  F004         	movff	expf@k+1,___xxtofl@val+1
  2937   00345A  C0A1  F005         	movff	expf@k+2,___xxtofl@val+2
  2938   00345E  C0A2  F006         	movff	expf@k+3,___xxtofl@val+3
  2939   003462  0E01               	movlw	1
  2940   003464  EC61  F029         	call	___xxtofl
  2941   003468  C003  F013         	movff	?___xxtofl,___flmul@b
  2942   00346C  C004  F014         	movff	?___xxtofl+1,___flmul@b+1
  2943   003470  C005  F015         	movff	?___xxtofl+2,___flmul@b+2
  2944   003474  C006  F016         	movff	?___xxtofl+3,___flmul@b+3
  2945   003478  0E8E               	movlw	142
  2946   00347A  6E17               	movwf	___flmul@a^0,c
  2947   00347C  0EBE               	movlw	190
  2948   00347E  6E18               	movwf	(___flmul@a+1)^0,c
  2949   003480  0EBF               	movlw	191
  2950   003482  6E19               	movwf	(___flmul@a+2)^0,c
  2951   003484  0E35               	movlw	53
  2952   003486  6E1A               	movwf	(___flmul@a+3)^0,c
  2953   003488  EC38  F023         	call	___flmul	;wreg free
  2954   00348C  C013  F099         	movff	?___flmul,expf@lo
  2955   003490  C014  F09A         	movff	?___flmul+1,expf@lo+1
  2956   003494  C015  F09B         	movff	?___flmul+2,expf@lo+2
  2957   003498  C016  F09C         	movff	?___flmul+3,expf@lo+3
  2958   00349C  C095  F046         	movff	expf@hi,___flsub@b
  2959   0034A0  C096  F047         	movff	expf@hi+1,___flsub@b+1
  2960   0034A4  C097  F048         	movff	expf@hi+2,___flsub@b+2
  2961   0034A8  C098  F049         	movff	expf@hi+3,___flsub@b+3
  2962   0034AC  C099  F04A         	movff	expf@lo,___flsub@a
  2963   0034B0  C09A  F04B         	movff	expf@lo+1,___flsub@a+1
  2964   0034B4  C09B  F04C         	movff	expf@lo+2,___flsub@a+2
  2965   0034B8  C09C  F04D         	movff	expf@lo+3,___flsub@a+3
  2966   0034BC  ECB3  F02F         	call	___flsub	;wreg free
  2967   0034C0  C046  F06D         	movff	?___flsub,expf@x
  2968   0034C4  C047  F06E         	movff	?___flsub+1,expf@x+1
  2969   0034C8  C048  F06F         	movff	?___flsub+2,expf@x+2
  2970   0034CC  C049  F070         	movff	?___flsub+3,expf@x+3
  2971   0034D0  EFAE  F01A         	goto	l5848
  2972   0034D4                     l5838:
  2973                           
  2974                           ; BSR set to: 0
  2975   0034D4  05A3               	decf	expf@hx& (0+255),w,b
  2976   0034D6  0E00               	movlw	0
  2977   0034D8  59A4               	subwfb	(expf@hx+1)& (0+255),w,b
  2978   0034DA  0E00               	movlw	0
  2979   0034DC  59A5               	subwfb	(expf@hx+2)& (0+255),w,b
  2980   0034DE  0E39               	movlw	57
  2981   0034E0  59A6               	subwfb	(expf@hx+3)& (0+255),w,b
  2982   0034E2  A0D8               	btfss	status,0,c
  2983   0034E4  EF76  F01A         	goto	u5681
  2984   0034E8  EF78  F01A         	goto	u5680
  2985   0034EC                     u5681:
  2986   0034EC  EF92  F01A         	goto	l5844
  2987   0034F0                     u5680:
  2988   0034F0                     
  2989                           ; BSR set to: 0
  2990   0034F0  0E00               	movlw	0
  2991   0034F2  6F9F               	movwf	expf@k& (0+255),b
  2992   0034F4  0E00               	movlw	0
  2993   0034F6  6FA0               	movwf	(expf@k+1)& (0+255),b
  2994   0034F8  0E00               	movlw	0
  2995   0034FA  6FA1               	movwf	(expf@k+2)& (0+255),b
  2996   0034FC  0E00               	movlw	0
  2997   0034FE  6FA2               	movwf	(expf@k+3)& (0+255),b
  2998   003500                     
  2999                           ; BSR set to: 0
  3000   003500  C06D  F095         	movff	expf@x,expf@hi
  3001   003504  C06E  F096         	movff	expf@x+1,expf@hi+1
  3002   003508  C06F  F097         	movff	expf@x+2,expf@hi+2
  3003   00350C  C070  F098         	movff	expf@x+3,expf@hi+3
  3004   003510  0E00               	movlw	0
  3005   003512  6F99               	movwf	expf@lo& (0+255),b
  3006   003514  0E00               	movlw	0
  3007   003516  6F9A               	movwf	(expf@lo+1)& (0+255),b
  3008   003518  0E00               	movlw	0
  3009   00351A  6F9B               	movwf	(expf@lo+2)& (0+255),b
  3010   00351C  0E00               	movlw	0
  3011   00351E  6F9C               	movwf	(expf@lo+3)& (0+255),b
  3012   003520  EFAE  F01A         	goto	l5848
  3013   003524                     l5844:
  3014                           
  3015                           ; BSR set to: 0
  3016   003524  C06D  F02C         	movff	expf@x,___fladd@b
  3017   003528  C06E  F02D         	movff	expf@x+1,___fladd@b+1
  3018   00352C  C06F  F02E         	movff	expf@x+2,___fladd@b+2
  3019   003530  C070  F02F         	movff	expf@x+3,___fladd@b+3
  3020   003534  0E00               	movlw	0
  3021   003536  6E30               	movwf	___fladd@a^0,c
  3022   003538  0E00               	movlw	0
  3023   00353A  6E31               	movwf	(___fladd@a+1)^0,c
  3024   00353C  0E80               	movlw	128
  3025   00353E  6E32               	movwf	(___fladd@a+2)^0,c
  3026   003540  0E3F               	movlw	63
  3027   003542  6E33               	movwf	(___fladd@a+3)^0,c
  3028   003544  ECD8  F020         	call	___fladd	;wreg free
  3029   003548  C02C  F06D         	movff	?___fladd,?_expf
  3030   00354C  C02D  F06E         	movff	?___fladd+1,?_expf+1
  3031   003550  C02E  F06F         	movff	?___fladd+2,?_expf+2
  3032   003554  C02F  F070         	movff	?___fladd+3,?_expf+3
  3033   003558  EFD8  F01B         	goto	l1123
  3034   00355C                     l5848:
  3035   00355C  C06D  F013         	movff	expf@x,___flmul@b
  3036   003560  C06E  F014         	movff	expf@x+1,___flmul@b+1
  3037   003564  C06F  F015         	movff	expf@x+2,___flmul@b+2
  3038   003568  C070  F016         	movff	expf@x+3,___flmul@b+3
  3039   00356C  C06D  F017         	movff	expf@x,___flmul@a
  3040   003570  C06E  F018         	movff	expf@x+1,___flmul@a+1
  3041   003574  C06F  F019         	movff	expf@x+2,___flmul@a+2
  3042   003578  C070  F01A         	movff	expf@x+3,___flmul@a+3
  3043   00357C  EC38  F023         	call	___flmul	;wreg free
  3044   003580  C013  F08D         	movff	?___flmul,expf@xx
  3045   003584  C014  F08E         	movff	?___flmul+1,expf@xx+1
  3046   003588  C015  F08F         	movff	?___flmul+2,expf@xx+2
  3047   00358C  C016  F090         	movff	?___flmul+3,expf@xx+3
  3048   003590  0E8F               	movlw	143
  3049   003592  6E30               	movwf	___fladd@a^0,c
  3050   003594  0EAA               	movlw	170
  3051   003596  6E31               	movwf	(___fladd@a+1)^0,c
  3052   003598  0E2A               	movlw	42
  3053   00359A  6E32               	movwf	(___fladd@a+2)^0,c
  3054   00359C  0E3E               	movlw	62
  3055   00359E  6E33               	movwf	(___fladd@a+3)^0,c
  3056   0035A0  0E15               	movlw	21
  3057   0035A2  6E17               	movwf	___flmul@a^0,c
  3058   0035A4  0E52               	movlw	82
  3059   0035A6  6E18               	movwf	(___flmul@a+1)^0,c
  3060   0035A8  0E35               	movlw	53
  3061   0035AA  6E19               	movwf	(___flmul@a+2)^0,c
  3062   0035AC  0EBB               	movlw	187
  3063   0035AE  6E1A               	movwf	(___flmul@a+3)^0,c
  3064   0035B0  C08D  F013         	movff	expf@xx,___flmul@b
  3065   0035B4  C08E  F014         	movff	expf@xx+1,___flmul@b+1
  3066   0035B8  C08F  F015         	movff	expf@xx+2,___flmul@b+2
  3067   0035BC  C090  F016         	movff	expf@xx+3,___flmul@b+3
  3068   0035C0  EC38  F023         	call	___flmul	;wreg free
  3069   0035C4  C013  F02C         	movff	?___flmul,___fladd@b
  3070   0035C8  C014  F02D         	movff	?___flmul+1,___fladd@b+1
  3071   0035CC  C015  F02E         	movff	?___flmul+2,___fladd@b+2
  3072   0035D0  C016  F02F         	movff	?___flmul+3,___fladd@b+3
  3073   0035D4  ECD8  F020         	call	___fladd	;wreg free
  3074   0035D8  C02C  F079         	movff	?___fladd,_expf$1736
  3075   0035DC  C02D  F07A         	movff	?___fladd+1,_expf$1736+1
  3076   0035E0  C02E  F07B         	movff	?___fladd+2,_expf$1736+2
  3077   0035E4  C02F  F07C         	movff	?___fladd+3,_expf$1736+3
  3078   0035E8  C06D  F046         	movff	expf@x,___flsub@b
  3079   0035EC  C06E  F047         	movff	expf@x+1,___flsub@b+1
  3080   0035F0  C06F  F048         	movff	expf@x+2,___flsub@b+2
  3081   0035F4  C070  F049         	movff	expf@x+3,___flsub@b+3
  3082   0035F8  C08D  F017         	movff	expf@xx,___flmul@a
  3083   0035FC  C08E  F018         	movff	expf@xx+1,___flmul@a+1
  3084   003600  C08F  F019         	movff	expf@xx+2,___flmul@a+2
  3085   003604  C090  F01A         	movff	expf@xx+3,___flmul@a+3
  3086   003608  C079  F013         	movff	_expf$1736,___flmul@b
  3087   00360C  C07A  F014         	movff	_expf$1736+1,___flmul@b+1
  3088   003610  C07B  F015         	movff	_expf$1736+2,___flmul@b+2
  3089   003614  C07C  F016         	movff	_expf$1736+3,___flmul@b+3
  3090   003618  EC38  F023         	call	___flmul	;wreg free
  3091   00361C  C013  F04A         	movff	?___flmul,___flsub@a
  3092   003620  C014  F04B         	movff	?___flmul+1,___flsub@a+1
  3093   003624  C015  F04C         	movff	?___flmul+2,___flsub@a+2
  3094   003628  C016  F04D         	movff	?___flmul+3,___flsub@a+3
  3095   00362C  ECB3  F02F         	call	___flsub	;wreg free
  3096   003630  C046  F089         	movff	?___flsub,expf@c
  3097   003634  C047  F08A         	movff	?___flsub+1,expf@c+1
  3098   003638  C048  F08B         	movff	?___flsub+2,expf@c+2
  3099   00363C  C049  F08C         	movff	?___flsub+3,expf@c+3
  3100   003640  C089  F04A         	movff	expf@c,___flsub@a
  3101   003644  C08A  F04B         	movff	expf@c+1,___flsub@a+1
  3102   003648  C08B  F04C         	movff	expf@c+2,___flsub@a+2
  3103   00364C  C08C  F04D         	movff	expf@c+3,___flsub@a+3
  3104   003650  0E00               	movlw	0
  3105   003652  6E46               	movwf	___flsub@b^0,c
  3106   003654  0E00               	movlw	0
  3107   003656  6E47               	movwf	(___flsub@b+1)^0,c
  3108   003658  0E00               	movlw	0
  3109   00365A  6E48               	movwf	(___flsub@b+2)^0,c
  3110   00365C  0E40               	movlw	64
  3111   00365E  6E49               	movwf	(___flsub@b+3)^0,c
  3112   003660  ECB3  F02F         	call	___flsub	;wreg free
  3113   003664  C046  F052         	movff	?___flsub,___fldiv@a
  3114   003668  C047  F053         	movff	?___flsub+1,___fldiv@a+1
  3115   00366C  C048  F054         	movff	?___flsub+2,___fldiv@a+2
  3116   003670  C049  F055         	movff	?___flsub+3,___fldiv@a+3
  3117   003674  C089  F017         	movff	expf@c,___flmul@a
  3118   003678  C08A  F018         	movff	expf@c+1,___flmul@a+1
  3119   00367C  C08B  F019         	movff	expf@c+2,___flmul@a+2
  3120   003680  C08C  F01A         	movff	expf@c+3,___flmul@a+3
  3121   003684  C06D  F013         	movff	expf@x,___flmul@b
  3122   003688  C06E  F014         	movff	expf@x+1,___flmul@b+1
  3123   00368C  C06F  F015         	movff	expf@x+2,___flmul@b+2
  3124   003690  C070  F016         	movff	expf@x+3,___flmul@b+3
  3125   003694  EC38  F023         	call	___flmul	;wreg free
  3126   003698  C013  F04E         	movff	?___flmul,___fldiv@b
  3127   00369C  C014  F04F         	movff	?___flmul+1,___fldiv@b+1
  3128   0036A0  C015  F050         	movff	?___flmul+2,___fldiv@b+2
  3129   0036A4  C016  F051         	movff	?___flmul+3,___fldiv@b+3
  3130   0036A8  EC5F  F025         	call	___fldiv	;wreg free
  3131   0036AC  C04E  F07D         	movff	?___fldiv,_expf$1737
  3132   0036B0  C04F  F07E         	movff	?___fldiv+1,_expf$1737+1
  3133   0036B4  C050  F07F         	movff	?___fldiv+2,_expf$1737+2
  3134   0036B8  C051  F080         	movff	?___fldiv+3,_expf$1737+3
  3135   0036BC  C099  F04A         	movff	expf@lo,___flsub@a
  3136   0036C0  C09A  F04B         	movff	expf@lo+1,___flsub@a+1
  3137   0036C4  C09B  F04C         	movff	expf@lo+2,___flsub@a+2
  3138   0036C8  C09C  F04D         	movff	expf@lo+3,___flsub@a+3
  3139   0036CC  C07D  F046         	movff	_expf$1737,___flsub@b
  3140   0036D0  C07E  F047         	movff	_expf$1737+1,___flsub@b+1
  3141   0036D4  C07F  F048         	movff	_expf$1737+2,___flsub@b+2
  3142   0036D8  C080  F049         	movff	_expf$1737+3,___flsub@b+3
  3143   0036DC  ECB3  F02F         	call	___flsub	;wreg free
  3144   0036E0  C046  F081         	movff	?___flsub,_expf$1738
  3145   0036E4  C047  F082         	movff	?___flsub+1,_expf$1738+1
  3146   0036E8  C048  F083         	movff	?___flsub+2,_expf$1738+2
  3147   0036EC  C049  F084         	movff	?___flsub+3,_expf$1738+3
  3148   0036F0  C095  F030         	movff	expf@hi,___fladd@a
  3149   0036F4  C096  F031         	movff	expf@hi+1,___fladd@a+1
  3150   0036F8  C097  F032         	movff	expf@hi+2,___fladd@a+2
  3151   0036FC  C098  F033         	movff	expf@hi+3,___fladd@a+3
  3152   003700  C081  F02C         	movff	_expf$1738,___fladd@b
  3153   003704  C082  F02D         	movff	_expf$1738+1,___fladd@b+1
  3154   003708  C083  F02E         	movff	_expf$1738+2,___fladd@b+2
  3155   00370C  C084  F02F         	movff	_expf$1738+3,___fladd@b+3
  3156   003710  ECD8  F020         	call	___fladd	;wreg free
  3157   003714  C02C  F085         	movff	?___fladd,_expf$1739
  3158   003718  C02D  F086         	movff	?___fladd+1,_expf$1739+1
  3159   00371C  C02E  F087         	movff	?___fladd+2,_expf$1739+2
  3160   003720  C02F  F088         	movff	?___fladd+3,_expf$1739+3
  3161   003724  C085  F02C         	movff	_expf$1739,___fladd@b
  3162   003728  C086  F02D         	movff	_expf$1739+1,___fladd@b+1
  3163   00372C  C087  F02E         	movff	_expf$1739+2,___fladd@b+2
  3164   003730  C088  F02F         	movff	_expf$1739+3,___fladd@b+3
  3165   003734  0E00               	movlw	0
  3166   003736  6E30               	movwf	___fladd@a^0,c
  3167   003738  0E00               	movlw	0
  3168   00373A  6E31               	movwf	(___fladd@a+1)^0,c
  3169   00373C  0E80               	movlw	128
  3170   00373E  6E32               	movwf	(___fladd@a+2)^0,c
  3171   003740  0E3F               	movlw	63
  3172   003742  6E33               	movwf	(___fladd@a+3)^0,c
  3173   003744  ECD8  F020         	call	___fladd	;wreg free
  3174   003748  C02C  F091         	movff	?___fladd,expf@y
  3175   00374C  C02D  F092         	movff	?___fladd+1,expf@y+1
  3176   003750  C02E  F093         	movff	?___fladd+2,expf@y+2
  3177   003754  C02F  F094         	movff	?___fladd+3,expf@y+3
  3178   003758  0100               	movlb	0	; () banked
  3179   00375A  519F               	movf	expf@k& (0+255),w,b
  3180   00375C  11A0               	iorwf	(expf@k+1)& (0+255),w,b
  3181   00375E  11A1               	iorwf	(expf@k+2)& (0+255),w,b
  3182   003760  11A2               	iorwf	(expf@k+3)& (0+255),w,b
  3183   003762  A4D8               	btfss	status,2,c
  3184   003764  EFB6  F01B         	goto	u5691
  3185   003768  EFB8  F01B         	goto	u5690
  3186   00376C                     u5691:
  3187   00376C  EFC2  F01B         	goto	l5860
  3188   003770                     u5690:
  3189   003770                     
  3190                           ; BSR set to: 0
  3191   003770  C091  F06D         	movff	expf@y,?_expf
  3192   003774  C092  F06E         	movff	expf@y+1,?_expf+1
  3193   003778  C093  F06F         	movff	expf@y+2,?_expf+2
  3194   00377C  C094  F070         	movff	expf@y+3,?_expf+3
  3195   003780  EFD8  F01B         	goto	l1123
  3196   003784                     l5860:
  3197                           
  3198                           ; BSR set to: 0
  3199   003784  C091  F02C         	movff	expf@y,scalbnf@x
  3200   003788  C092  F02D         	movff	expf@y+1,scalbnf@x+1
  3201   00378C  C093  F02E         	movff	expf@y+2,scalbnf@x+2
  3202   003790  C094  F02F         	movff	expf@y+3,scalbnf@x+3
  3203   003794  C09F  F030         	movff	expf@k,scalbnf@n
  3204   003798  C0A0  F031         	movff	expf@k+1,scalbnf@n+1
  3205   00379C  EC2D  F027         	call	_scalbnf	;wreg free
  3206   0037A0  C02C  F06D         	movff	?_scalbnf,?_expf
  3207   0037A4  C02D  F06E         	movff	?_scalbnf+1,?_expf+1
  3208   0037A8  C02E  F06F         	movff	?_scalbnf+2,?_expf+2
  3209   0037AC  C02F  F070         	movff	?_scalbnf+3,?_expf+3
  3210   0037B0                     l1123:
  3211   0037B0  0012               	return		;funcret
  3212   0037B2                     __end_of_expf:
  3213                           	callstack 0
  3214                           
  3215 ;; *************** function _UART1_is_tx_ready *****************
  3216 ;; Defined at:
  3217 ;;		line 131 in file "mcc_generated_files/uart1.c"
  3218 ;; Parameters:    Size  Location     Type
  3219 ;;		None
  3220 ;; Auto vars:     Size  Location     Type
  3221 ;;		None
  3222 ;; Return value:  Size  Location     Type
  3223 ;;                  1    wreg      _Bool 
  3224 ;; Registers used:
  3225 ;;		wreg, status,2
  3226 ;; Tracked objects:
  3227 ;;		On entry : 0/0
  3228 ;;		On exit  : 0/0
  3229 ;;		Unchanged: 0/0
  3230 ;; Data sizes:     COMRAM   BANK0   BANK1   BANK2   BANK3   BANK4   BANK5   BANK6   BANK7   BANK8   BANK9  BANK10  BANK1
      +1  BANK12  BANK13  BANK14  BANK15
  3231 ;;      Params:         0       0       0       0       0       0       0       0       0       0       0       0       
      +0       0       0       0       0
  3232 ;;      Locals:         1       0       0       0       0       0       0       0       0       0       0       0       
      +0       0       0       0       0
  3233 ;;      Temps:          0       0       0       0       0       0       0       0       0       0       0       0       
      +0       0       0       0       0
  3234 ;;      Totals:         1       0       0       0       0       0       0       0       0       0       0       0       
      +0       0       0       0       0
  3235 ;;Total ram usage:        1 bytes
  3236 ;; Hardware stack levels used: 1
  3237 ;; Hardware stack levels required when called: 3
  3238 ;; This function calls:
  3239 ;;		Nothing
  3240 ;; This function is called by:
  3241 ;;		_main
  3242 ;; This function uses a non-reentrant model
  3243 ;;
  3244                           
  3245                           	psect	text3
  3246   0060BA                     __ptext3:
  3247                           	callstack 0
  3248   0060BA                     _UART1_is_tx_ready:
  3249                           	callstack 27
  3250   0060BA                     
  3251                           ;mcc_generated_files/uart1.c: 133:     return (_Bool)(PIR3bits.U1TXIF && U1CON0bits.TXEN
      +                          );
  3252   0060BA  0E00               	movlw	0
  3253   0060BC  6E03               	movwf	_UART1_is_tx_ready$297^0,c
  3254   0060BE  0139               	movlb	57	; () banked
  3255   0060C0  A9A3               	btfss	163,4,b	;volatile
  3256   0060C2  EF65  F030         	goto	u4271
  3257   0060C6  EF67  F030         	goto	u4270
  3258   0060CA                     u4271:
  3259   0060CA  EF71  F030         	goto	l173
  3260   0060CE                     u4270:
  3261   0060CE                     
  3262                           ; BSR set to: 57
  3263   0060CE  013D               	movlb	61	; () banked
  3264   0060D0  ABF2               	btfss	242,5,b	;volatile
  3265   0060D2  EF6D  F030         	goto	u4281
  3266   0060D6  EF6F  F030         	goto	u4280
  3267   0060DA                     u4281:
  3268   0060DA  EF71  F030         	goto	l173
  3269   0060DE                     u4280:
  3270   0060DE                     
  3271                           ; BSR set to: 61
  3272   0060DE  0E01               	movlw	1
  3273   0060E0  6E03               	movwf	_UART1_is_tx_ready$297^0,c
  3274   0060E2                     l173:
  3275   0060E2  5003               	movf	_UART1_is_tx_ready$297^0,w,c
  3276   0060E4  0012               	return		;funcret
  3277   0060E6                     __end_of_UART1_is_tx_ready:
  3278                           	callstack 0
  3279                           
  3280 ;; *************** function _UART1_is_rx_ready *****************
  3281 ;; Defined at:
  3282 ;;		line 126 in file "mcc_generated_files/uart1.c"
  3283 ;; Parameters:    Size  Location     Type
  3284 ;;		None
  3285 ;; Auto vars:     Size  Location     Type
  3286 ;;		None
  3287 ;; Return value:  Size  Location     Type
  3288 ;;                  1    wreg      _Bool 
  3289 ;; Registers used:
  3290 ;;		wreg
  3291 ;; Tracked objects:
  3292 ;;		On entry : 0/0
  3293 ;;		On exit  : 0/0
  3294 ;;		Unchanged: 0/0
  3295 ;; Data sizes:     COMRAM   BANK0   BANK1   BANK2   BANK3   BANK4   BANK5   BANK6   BANK7   BANK8   BANK9  BANK10  BANK1
      +1  BANK12  BANK13  BANK14  BANK15
  3296 ;;      Params:         0       0       0       0       0       0       0       0       0       0       0       0       
      +0       0       0       0       0
  3297 ;;      Locals:         0       0       0       0       0       0       0       0       0       0       0       0       
      +0       0       0       0       0
  3298 ;;      Temps:          0       0       0       0       0       0       0       0       0       0       0       0       
      +0       0       0       0       0
  3299 ;;      Totals:         0       0       0       0       0       0       0       0       0       0       0       0       
      +0       0       0       0       0
  3300 ;;Total ram usage:        0 bytes
  3301 ;; Hardware stack levels used: 1
  3302 ;; Hardware stack levels required when called: 3
  3303 ;; This function calls:
  3304 ;;		Nothing
  3305 ;; This function is called by:
  3306 ;;		_main
  3307 ;; This function uses a non-reentrant model
  3308 ;;
  3309                           
  3310                           	psect	text4
  3311   0061C6                     __ptext4:
  3312                           	callstack 0
  3313   0061C6                     _UART1_is_rx_ready:
  3314                           	callstack 27
  3315   0061C6                     
  3316                           ;mcc_generated_files/uart1.c: 128:     return (_Bool)(PIR3bits.U1RXIF);
  3317   0061C6  0139               	movlb	57	; () banked
  3318   0061C8  B7A3               	btfsc	163,3,b	;volatile
  3319   0061CA  EFE9  F030         	goto	u4261
  3320   0061CE  EFEC  F030         	goto	u4260
  3321   0061D2                     u4261:
  3322   0061D2  0E01               	movlw	1
  3323   0061D4  EFED  F030         	goto	u4266
  3324   0061D8                     u4260:
  3325   0061D8  0E00               	movlw	0
  3326   0061DA                     u4266:
  3327   0061DA                     
  3328                           ; BSR set to: 57
  3329   0061DA  0012               	return		;funcret
  3330   0061DC                     __end_of_UART1_is_rx_ready:
  3331                           	callstack 0
  3332                           
  3333 ;; *************** function _UART1_Write *****************
  3334 ;; Defined at:
  3335 ;;		line 170 in file "mcc_generated_files/uart1.c"
  3336 ;; Parameters:    Size  Location     Type
  3337 ;;  txData          1    wreg     unsigned char 
  3338 ;; Auto vars:     Size  Location     Type
  3339 ;;  txData          1    2[COMRAM] unsigned char 
  3340 ;; Return value:  Size  Location     Type
  3341 ;;                  1    wreg      void 
  3342 ;; Registers used:
  3343 ;;		wreg
  3344 ;; Tracked objects:
  3345 ;;		On entry : 0/0
  3346 ;;		On exit  : 0/0
  3347 ;;		Unchanged: 0/0
  3348 ;; Data sizes:     COMRAM   BANK0   BANK1   BANK2   BANK3   BANK4   BANK5   BANK6   BANK7   BANK8   BANK9  BANK10  BANK1
      +1  BANK12  BANK13  BANK14  BANK15
  3349 ;;      Params:         0       0       0       0       0       0       0       0       0       0       0       0       
      +0       0       0       0       0
  3350 ;;      Locals:         1       0       0       0       0       0       0       0       0       0       0       0       
      +0       0       0       0       0
  3351 ;;      Temps:          0       0       0       0       0       0       0       0       0       0       0       0       
      +0       0       0       0       0
  3352 ;;      Totals:         1       0       0       0       0       0       0       0       0       0       0       0       
      +0       0       0       0       0
  3353 ;;Total ram usage:        1 bytes
  3354 ;; Hardware stack levels used: 1
  3355 ;; Hardware stack levels required when called: 3
  3356 ;; This function calls:
  3357 ;;		Nothing
  3358 ;; This function is called by:
  3359 ;;		_main
  3360 ;;		_putch
  3361 ;; This function uses a non-reentrant model
  3362 ;;
  3363                           
  3364                           	psect	text5
  3365   00617A                     __ptext5:
  3366                           	callstack 0
  3367   00617A                     _UART1_Write:
  3368                           	callstack 27
  3369                           
  3370                           ; BSR set to: 57
  3371                           ;incstack = 0
  3372                           ;UART1_Write@txData stored from wreg
  3373   00617A  6E03               	movwf	UART1_Write@txData^0,c
  3374   00617C                     l192:
  3375                           
  3376                           ;mcc_generated_files/uart1.c: 172:     while(0 == PIR3bits.U1TXIF)
  3377   00617C  0139               	movlb	57	; () banked
  3378   00617E  A9A3               	btfss	163,4,b	;volatile
  3379   006180  EFC4  F030         	goto	u4361
  3380   006184  EFC6  F030         	goto	u4360
  3381   006188                     u4361:
  3382   006188  EFBE  F030         	goto	l192
  3383   00618C                     u4360:
  3384   00618C                     
  3385                           ; BSR set to: 57
  3386                           ;mcc_generated_files/uart1.c: 176:     U1TXB = txData;
  3387   00618C  0060  F00F  FDEA   	movff	UART1_Write@txData,15850	;volatile
  3388   006192                     
  3389                           ; BSR set to: 57
  3390   006192  0012               	return		;funcret
  3391   006194                     __end_of_UART1_Write:
  3392                           	callstack 0
  3393                           
  3394 ;; *************** function _UART1_Read *****************
  3395 ;; Defined at:
  3396 ;;		line 145 in file "mcc_generated_files/uart1.c"
  3397 ;; Parameters:    Size  Location     Type
  3398 ;;		None
  3399 ;; Auto vars:     Size  Location     Type
  3400 ;;		None
  3401 ;; Return value:  Size  Location     Type
  3402 ;;                  1    wreg      unsigned char 
  3403 ;; Registers used:
  3404 ;;		wreg, status,2, pcl, pclath, pclatu, tosl, cstack
  3405 ;; Tracked objects:
  3406 ;;		On entry : 0/0
  3407 ;;		On exit  : 0/0
  3408 ;;		Unchanged: 0/0
  3409 ;; Data sizes:     COMRAM   BANK0   BANK1   BANK2   BANK3   BANK4   BANK5   BANK6   BANK7   BANK8   BANK9  BANK10  BANK1
      +1  BANK12  BANK13  BANK14  BANK15
  3410 ;;      Params:         0       0       0       0       0       0       0       0       0       0       0       0       
      +0       0       0       0       0
  3411 ;;      Locals:         0       0       0       0       0       0       0       0       0       0       0       0       
      +0       0       0       0       0
  3412 ;;      Temps:          0       0       0       0       0       0       0       0       0       0       0       0       
      +0       0       0       0       0
  3413 ;;      Totals:         0       0       0       0       0       0       0       0       0       0       0       0       
      +0       0       0       0       0
  3414 ;;Total ram usage:        0 bytes
  3415 ;; Hardware stack levels used: 1
  3416 ;; Hardware stack levels required when called: 4
  3417 ;; This function calls:
  3418 ;;		NULL
  3419 ;;		_UART1_DefaultErrorHandler
  3420 ;;		_UART1_DefaultFramingErrorHandler
  3421 ;;		_UART1_DefaultOverrunErrorHandler
  3422 ;; This function is called by:
  3423 ;;		_main
  3424 ;;		_getch2
  3425 ;; This function uses a non-reentrant model
  3426 ;;
  3427                           
  3428                           	psect	text6
  3429   005BC4                     __ptext6:
  3430                           	callstack 0
  3431   005BC4                     _UART1_Read:
  3432                           	callstack 26
  3433   005BC4                     l183:
  3434                           
  3435                           ;mcc_generated_files/uart1.c: 147:     while(!PIR3bits.U1RXIF)
  3436   005BC4  0139               	movlb	57	; () banked
  3437   005BC6  A7A3               	btfss	163,3,b	;volatile
  3438   005BC8  EFE8  F02D         	goto	u4291
  3439   005BCC  EFEA  F02D         	goto	u4290
  3440   005BD0                     u4291:
  3441   005BD0  EFE2  F02D         	goto	l183
  3442   005BD4                     u4290:
  3443   005BD4                     
  3444                           ; BSR set to: 57
  3445                           ;mcc_generated_files/uart1.c: 151:     uart1RxLastError.status = 0;
  3446   005BD4  0E00               	movlw	0
  3447   005BD6  6E5C               	movwf	_uart1RxLastError^0,c	;volatile
  3448   005BD8                     
  3449                           ; BSR set to: 57
  3450                           ;mcc_generated_files/uart1.c: 153:     if(U1ERRIRbits.FERIF){
  3451   005BD8  013D               	movlb	61	; () banked
  3452   005BDA  A7F9               	btfss	249,3,b	;volatile
  3453   005BDC  EFF2  F02D         	goto	u4301
  3454   005BE0  EFF4  F02D         	goto	u4300
  3455   005BE4                     u4301:
  3456   005BE4  EF02  F02E         	goto	l4586
  3457   005BE8                     u4300:
  3458   005BE8                     
  3459                           ; BSR set to: 61
  3460                           ;mcc_generated_files/uart1.c: 154:         uart1RxLastError.ferr = 1;
  3461   005BE8  825C               	bsf	_uart1RxLastError^0,1,c	;volatile
  3462   005BEA                     
  3463                           ; BSR set to: 61
  3464                           ;mcc_generated_files/uart1.c: 155:         UART1_FramingErrorHandler();
  3465   005BEA  D802               	call	u4318
  3466   005BEC  EF02  F02E         	goto	u4319
  3467   005BF0                     u4318:
  3468   005BF0  0005               	push	
  3469   005BF2  6EFA               	movwf	pclath,c
  3470   005BF4  0100               	movlb	0	; () banked
  3471   005BF6  51F5               	movf	_UART1_FramingErrorHandler& (0+255),w,b
  3472   005BF8  6EFD               	movwf	tosl,c
  3473   005BFA  51F6               	movf	(_UART1_FramingErrorHandler+1)& (0+255),w,b
  3474   005BFC  6EFE               	movwf	tosh,c
  3475   005BFE  6AFF               	clrf	tosu,c
  3476   005C00  50FA               	movf	pclath,w,c
  3477   005C02  0012               	return		;indir
  3478   005C04                     u4319:
  3479   005C04                     l4586:
  3480                           
  3481                           ;mcc_generated_files/uart1.c: 158:     if(U1ERRIRbits.RXFOIF){
  3482   005C04  013D               	movlb	61	; () banked
  3483   005C06  A3F9               	btfss	249,1,b	;volatile
  3484   005C08  EF08  F02E         	goto	u4321
  3485   005C0C  EF0A  F02E         	goto	u4320
  3486   005C10                     u4321:
  3487   005C10  EF18  F02E         	goto	l4592
  3488   005C14                     u4320:
  3489   005C14                     
  3490                           ; BSR set to: 61
  3491                           ;mcc_generated_files/uart1.c: 159:         uart1RxLastError.oerr = 1;
  3492   005C14  845C               	bsf	_uart1RxLastError^0,2,c	;volatile
  3493   005C16                     
  3494                           ; BSR set to: 61
  3495                           ;mcc_generated_files/uart1.c: 160:         UART1_OverrunErrorHandler();
  3496   005C16  D802               	call	u4338
  3497   005C18  EF18  F02E         	goto	u4339
  3498   005C1C                     u4338:
  3499   005C1C  0005               	push	
  3500   005C1E  6EFA               	movwf	pclath,c
  3501   005C20  0100               	movlb	0	; () banked
  3502   005C22  51F3               	movf	_UART1_OverrunErrorHandler& (0+255),w,b
  3503   005C24  6EFD               	movwf	tosl,c
  3504   005C26  51F4               	movf	(_UART1_OverrunErrorHandler+1)& (0+255),w,b
  3505   005C28  6EFE               	movwf	tosh,c
  3506   005C2A  6AFF               	clrf	tosu,c
  3507   005C2C  50FA               	movf	pclath,w,c
  3508   005C2E  0012               	return		;indir
  3509   005C30                     u4339:
  3510   005C30                     l4592:
  3511                           
  3512                           ;mcc_generated_files/uart1.c: 163:     if(uart1RxLastError.status){
  3513   005C30  505C               	movf	_uart1RxLastError^0,w,c	;volatile
  3514   005C32  B4D8               	btfsc	status,2,c
  3515   005C34  EF1E  F02E         	goto	u4341
  3516   005C38  EF20  F02E         	goto	u4340
  3517   005C3C                     u4341:
  3518   005C3C  EF2D  F02E         	goto	l4596
  3519   005C40                     u4340:
  3520   005C40                     
  3521                           ;mcc_generated_files/uart1.c: 164:         UART1_ErrorHandler();
  3522   005C40  D802               	call	u4358
  3523   005C42  EF2D  F02E         	goto	u4359
  3524   005C46                     u4358:
  3525   005C46  0005               	push	
  3526   005C48  6EFA               	movwf	pclath,c
  3527   005C4A  0100               	movlb	0	; () banked
  3528   005C4C  51F1               	movf	_UART1_ErrorHandler& (0+255),w,b
  3529   005C4E  6EFD               	movwf	tosl,c
  3530   005C50  51F2               	movf	(_UART1_ErrorHandler+1)& (0+255),w,b
  3531   005C52  6EFE               	movwf	tosh,c
  3532   005C54  6AFF               	clrf	tosu,c
  3533   005C56  50FA               	movf	pclath,w,c
  3534   005C58  0012               	return		;indir
  3535   005C5A                     u4359:
  3536   005C5A                     l4596:
  3537                           
  3538                           ;mcc_generated_files/uart1.c: 167:     return U1RXB;
  3539   005C5A  013D               	movlb	61	; () banked
  3540   005C5C  51E8               	movf	232,w,b	;volatile
  3541   005C5E                     
  3542                           ; BSR set to: 61
  3543   005C5E  0012               	return		;funcret
  3544   005C60                     __end_of_UART1_Read:
  3545                           	callstack 0
  3546                           
  3547 ;; *************** function _UART1_DefaultOverrunErrorHandler *****************
  3548 ;; Defined at:
  3549 ;;		line 195 in file "mcc_generated_files/uart1.c"
  3550 ;; Parameters:    Size  Location     Type
  3551 ;;		None
  3552 ;; Auto vars:     Size  Location     Type
  3553 ;;		None
  3554 ;; Return value:  Size  Location     Type
  3555 ;;                  1    wreg      void 
  3556 ;; Registers used:
  3557 ;;		None
  3558 ;; Tracked objects:
  3559 ;;		On entry : 0/0
  3560 ;;		On exit  : 0/0
  3561 ;;		Unchanged: 0/0
  3562 ;; Data sizes:     COMRAM   BANK0   BANK1   BANK2   BANK3   BANK4   BANK5   BANK6   BANK7   BANK8   BANK9  BANK10  BANK1
      +1  BANK12  BANK13  BANK14  BANK15
  3563 ;;      Params:         0       0       0       0       0       0       0       0       0       0       0       0       
      +0       0       0       0       0
  3564 ;;      Locals:         0       0       0       0       0       0       0       0       0       0       0       0       
      +0       0       0       0       0
  3565 ;;      Temps:          0       0       0       0       0       0       0       0       0       0       0       0       
      +0       0       0       0       0
  3566 ;;      Totals:         0       0       0       0       0       0       0       0       0       0       0       0       
      +0       0       0       0       0
  3567 ;;Total ram usage:        0 bytes
  3568 ;; Hardware stack levels used: 1
  3569 ;; Hardware stack levels required when called: 3
  3570 ;; This function calls:
  3571 ;;		Nothing
  3572 ;; This function is called by:
  3573 ;;		_UART1_Initialize
  3574 ;;		_UART1_Read
  3575 ;; This function uses a non-reentrant model
  3576 ;;
  3577                           
  3578                           	psect	text7
  3579   006208                     __ptext7:
  3580                           	callstack 0
  3581   006208                     _UART1_DefaultOverrunErrorHandler:
  3582                           	callstack 26
  3583   006208  0012               	return		;funcret
  3584   00620A                     __end_of_UART1_DefaultOverrunErrorHandler:
  3585                           	callstack 0
  3586                           
  3587 ;; *************** function _UART1_DefaultFramingErrorHandler *****************
  3588 ;; Defined at:
  3589 ;;		line 193 in file "mcc_generated_files/uart1.c"
  3590 ;; Parameters:    Size  Location     Type
  3591 ;;		None
  3592 ;; Auto vars:     Size  Location     Type
  3593 ;;		None
  3594 ;; Return value:  Size  Location     Type
  3595 ;;                  1    wreg      void 
  3596 ;; Registers used:
  3597 ;;		None
  3598 ;; Tracked objects:
  3599 ;;		On entry : 0/0
  3600 ;;		On exit  : 0/0
  3601 ;;		Unchanged: 0/0
  3602 ;; Data sizes:     COMRAM   BANK0   BANK1   BANK2   BANK3   BANK4   BANK5   BANK6   BANK7   BANK8   BANK9  BANK10  BANK1
      +1  BANK12  BANK13  BANK14  BANK15
  3603 ;;      Params:         0       0       0       0       0       0       0       0       0       0       0       0       
      +0       0       0       0       0
  3604 ;;      Locals:         0       0       0       0       0       0       0       0       0       0       0       0       
      +0       0       0       0       0
  3605 ;;      Temps:          0       0       0       0       0       0       0       0       0       0       0       0       
      +0       0       0       0       0
  3606 ;;      Totals:         0       0       0       0       0       0       0       0       0       0       0       0       
      +0       0       0       0       0
  3607 ;;Total ram usage:        0 bytes
  3608 ;; Hardware stack levels used: 1
  3609 ;; Hardware stack levels required when called: 3
  3610 ;; This function calls:
  3611 ;;		Nothing
  3612 ;; This function is called by:
  3613 ;;		_UART1_Initialize
  3614 ;;		_UART1_Read
  3615 ;; This function uses a non-reentrant model
  3616 ;;
  3617                           
  3618                           	psect	text8
  3619   00620A                     __ptext8:
  3620                           	callstack 0
  3621   00620A                     _UART1_DefaultFramingErrorHandler:
  3622                           	callstack 26
  3623   00620A  0012               	return		;funcret
  3624   00620C                     __end_of_UART1_DefaultFramingErrorHandler:
  3625                           	callstack 0
  3626                           
  3627 ;; *************** function _UART1_DefaultErrorHandler *****************
  3628 ;; Defined at:
  3629 ;;		line 197 in file "mcc_generated_files/uart1.c"
  3630 ;; Parameters:    Size  Location     Type
  3631 ;;		None
  3632 ;; Auto vars:     Size  Location     Type
  3633 ;;		None
  3634 ;; Return value:  Size  Location     Type
  3635 ;;                  1    wreg      void 
  3636 ;; Registers used:
  3637 ;;		None
  3638 ;; Tracked objects:
  3639 ;;		On entry : 0/0
  3640 ;;		On exit  : 0/0
  3641 ;;		Unchanged: 0/0
  3642 ;; Data sizes:     COMRAM   BANK0   BANK1   BANK2   BANK3   BANK4   BANK5   BANK6   BANK7   BANK8   BANK9  BANK10  BANK1
      +1  BANK12  BANK13  BANK14  BANK15
  3643 ;;      Params:         0       0       0       0       0       0       0       0       0       0       0       0       
      +0       0       0       0       0
  3644 ;;      Locals:         0       0       0       0       0       0       0       0       0       0       0       0       
      +0       0       0       0       0
  3645 ;;      Temps:          0       0       0       0       0       0       0       0       0       0       0       0       
      +0       0       0       0       0
  3646 ;;      Totals:         0       0       0       0       0       0       0       0       0       0       0       0       
      +0       0       0       0       0
  3647 ;;Total ram usage:        0 bytes
  3648 ;; Hardware stack levels used: 1
  3649 ;; Hardware stack levels required when called: 3
  3650 ;; This function calls:
  3651 ;;		Nothing
  3652 ;; This function is called by:
  3653 ;;		_UART1_Initialize
  3654 ;;		_UART1_Read
  3655 ;; This function uses a non-reentrant model
  3656 ;;
  3657                           
  3658                           	psect	text9
  3659   00620C                     __ptext9:
  3660                           	callstack 0
  3661   00620C                     _UART1_DefaultErrorHandler:
  3662                           	callstack 26
  3663   00620C  0012               	return		;funcret
  3664   00620E                     __end_of_UART1_DefaultErrorHandler:
  3665                           	callstack 0
  3666                           
  3667 ;; *************** function _SYSTEM_Initialize *****************
  3668 ;; Defined at:
  3669 ;;		line 50 in file "mcc_generated_files/mcc.c"
  3670 ;; Parameters:    Size  Location     Type
  3671 ;;		None
  3672 ;; Auto vars:     Size  Location     Type
  3673 ;;		None
  3674 ;; Return value:  Size  Location     Type
  3675 ;;                  1    wreg      void 
  3676 ;; Registers used:
  3677 ;;		wreg, status,2, status,0, cstack
  3678 ;; Tracked objects:
  3679 ;;		On entry : 0/0
  3680 ;;		On exit  : 0/0
  3681 ;;		Unchanged: 0/0
  3682 ;; Data sizes:     COMRAM   BANK0   BANK1   BANK2   BANK3   BANK4   BANK5   BANK6   BANK7   BANK8   BANK9  BANK10  BANK1
      +1  BANK12  BANK13  BANK14  BANK15
  3683 ;;      Params:         0       0       0       0       0       0       0       0       0       0       0       0       
      +0       0       0       0       0
  3684 ;;      Locals:         0       0       0       0       0       0       0       0       0       0       0       0       
      +0       0       0       0       0
  3685 ;;      Temps:          0       0       0       0       0       0       0       0       0       0       0       0       
      +0       0       0       0       0
  3686 ;;      Totals:         0       0       0       0       0       0       0       0       0       0       0       0       
      +0       0       0       0       0
  3687 ;;Total ram usage:        0 bytes
  3688 ;; Hardware stack levels used: 1
  3689 ;; Hardware stack levels required when called: 5
  3690 ;; This function calls:
  3691 ;;		_INTERRUPT_Initialize
  3692 ;;		_OSCILLATOR_Initialize
  3693 ;;		_PIN_MANAGER_Initialize
  3694 ;;		_PMD_Initialize
  3695 ;;		_TMR0_Initialize
  3696 ;;		_UART1_Initialize
  3697 ;; This function is called by:
  3698 ;;		_main
  3699 ;; This function uses a non-reentrant model
  3700 ;;
  3701                           
  3702                           	psect	text10
  3703   006194                     __ptext10:
  3704                           	callstack 0
  3705   006194                     _SYSTEM_Initialize:
  3706                           	callstack 25
  3707   006194                     
  3708                           ;mcc_generated_files/mcc.c: 52:     INTERRUPT_Initialize();
  3709   006194  EC02  F031         	call	_INTERRUPT_Initialize	;wreg free
  3710   006198                     
  3711                           ;mcc_generated_files/mcc.c: 53:     PMD_Initialize();
  3712   006198  EC9A  F030         	call	_PMD_Initialize	;wreg free
  3713   00619C                     
  3714                           ;mcc_generated_files/mcc.c: 54:     PIN_MANAGER_Initialize();
  3715   00619C  EC42  F02F         	call	_PIN_MANAGER_Initialize	;wreg free
  3716   0061A0                     
  3717                           ;mcc_generated_files/mcc.c: 55:     OSCILLATOR_Initialize();
  3718   0061A0  ECD7  F030         	call	_OSCILLATOR_Initialize	;wreg free
  3719   0061A4                     
  3720                           ;mcc_generated_files/mcc.c: 56:     TMR0_Initialize();
  3721   0061A4  EC88  F030         	call	_TMR0_Initialize	;wreg free
  3722   0061A8                     
  3723                           ;mcc_generated_files/mcc.c: 57:     UART1_Initialize();
  3724   0061A8  ECDB  F02E         	call	_UART1_Initialize	;wreg free
  3725   0061AC  0012               	return		;funcret
  3726   0061AE                     __end_of_SYSTEM_Initialize:
  3727                           	callstack 0
  3728                           
  3729 ;; *************** function _UART1_Initialize *****************
  3730 ;; Defined at:
  3731 ;;		line 66 in file "mcc_generated_files/uart1.c"
  3732 ;; Parameters:    Size  Location     Type
  3733 ;;		None
  3734 ;; Auto vars:     Size  Location     Type
  3735 ;;		None
  3736 ;; Return value:  Size  Location     Type
  3737 ;;                  1    wreg      void 
  3738 ;; Registers used:
  3739 ;;		wreg, status,2, status,0, cstack
  3740 ;; Tracked objects:
  3741 ;;		On entry : 0/0
  3742 ;;		On exit  : 0/0
  3743 ;;		Unchanged: 0/0
  3744 ;; Data sizes:     COMRAM   BANK0   BANK1   BANK2   BANK3   BANK4   BANK5   BANK6   BANK7   BANK8   BANK9  BANK10  BANK1
      +1  BANK12  BANK13  BANK14  BANK15
  3745 ;;      Params:         0       0       0       0       0       0       0       0       0       0       0       0       
      +0       0       0       0       0
  3746 ;;      Locals:         0       0       0       0       0       0       0       0       0       0       0       0       
      +0       0       0       0       0
  3747 ;;      Temps:          0       0       0       0       0       0       0       0       0       0       0       0       
      +0       0       0       0       0
  3748 ;;      Totals:         0       0       0       0       0       0       0       0       0       0       0       0       
      +0       0       0       0       0
  3749 ;;Total ram usage:        0 bytes
  3750 ;; Hardware stack levels used: 1
  3751 ;; Hardware stack levels required when called: 4
  3752 ;; This function calls:
  3753 ;;		_UART1_SetErrorHandler
  3754 ;;		_UART1_SetFramingErrorHandler
  3755 ;;		_UART1_SetOverrunErrorHandler
  3756 ;; This function is called by:
  3757 ;;		_SYSTEM_Initialize
  3758 ;; This function uses a non-reentrant model
  3759 ;;
  3760                           
  3761                           	psect	text11
  3762   005DB6                     __ptext11:
  3763                           	callstack 0
  3764   005DB6                     _UART1_Initialize:
  3765                           	callstack 25
  3766   005DB6                     
  3767                           ;mcc_generated_files/uart1.c: 73:     U1P1L = 0x00;
  3768   005DB6  0E00               	movlw	0
  3769   005DB8  013D               	movlb	61	; () banked
  3770   005DBA  6FEC               	movwf	236,b	;volatile
  3771                           
  3772                           ;mcc_generated_files/uart1.c: 76:     U1P1H = 0x00;
  3773   005DBC  0E00               	movlw	0
  3774   005DBE  6FED               	movwf	237,b	;volatile
  3775                           
  3776                           ;mcc_generated_files/uart1.c: 79:     U1P2L = 0x00;
  3777   005DC0  0E00               	movlw	0
  3778   005DC2  6FEE               	movwf	238,b	;volatile
  3779                           
  3780                           ;mcc_generated_files/uart1.c: 82:     U1P2H = 0x00;
  3781   005DC4  0E00               	movlw	0
  3782   005DC6  6FEF               	movwf	239,b	;volatile
  3783                           
  3784                           ;mcc_generated_files/uart1.c: 85:     U1P3L = 0x00;
  3785   005DC8  0E00               	movlw	0
  3786   005DCA  6FF0               	movwf	240,b	;volatile
  3787                           
  3788                           ;mcc_generated_files/uart1.c: 88:     U1P3H = 0x00;
  3789   005DCC  0E00               	movlw	0
  3790   005DCE  6FF1               	movwf	241,b	;volatile
  3791                           
  3792                           ;mcc_generated_files/uart1.c: 91:     U1CON0 = 0xB0;
  3793   005DD0  0EB0               	movlw	176
  3794   005DD2  6FF2               	movwf	242,b	;volatile
  3795                           
  3796                           ;mcc_generated_files/uart1.c: 94:     U1CON1 = 0x80;
  3797   005DD4  0E80               	movlw	128
  3798   005DD6  6FF3               	movwf	243,b	;volatile
  3799                           
  3800                           ;mcc_generated_files/uart1.c: 97:     U1CON2 = 0x00;
  3801   005DD8  0E00               	movlw	0
  3802   005DDA  6FF4               	movwf	244,b	;volatile
  3803                           
  3804                           ;mcc_generated_files/uart1.c: 100:     U1BRGL = 0x0C;
  3805   005DDC  0E0C               	movlw	12
  3806   005DDE  6FF5               	movwf	245,b	;volatile
  3807                           
  3808                           ;mcc_generated_files/uart1.c: 103:     U1BRGH = 0x00;
  3809   005DE0  0E00               	movlw	0
  3810   005DE2  6FF6               	movwf	246,b	;volatile
  3811                           
  3812                           ;mcc_generated_files/uart1.c: 106:     U1FIFO = 0x00;
  3813   005DE4  0E00               	movlw	0
  3814   005DE6  6FF7               	movwf	247,b	;volatile
  3815                           
  3816                           ;mcc_generated_files/uart1.c: 109:     U1UIR = 0x00;
  3817   005DE8  0E00               	movlw	0
  3818   005DEA  6FF8               	movwf	248,b	;volatile
  3819                           
  3820                           ;mcc_generated_files/uart1.c: 112:     U1ERRIR = 0x00;
  3821   005DEC  0E00               	movlw	0
  3822   005DEE  6FF9               	movwf	249,b	;volatile
  3823                           
  3824                           ;mcc_generated_files/uart1.c: 115:     U1ERRIE = 0x00;
  3825   005DF0  0E00               	movlw	0
  3826   005DF2  6FFA               	movwf	250,b	;volatile
  3827   005DF4                     
  3828                           ; BSR set to: 61
  3829                           ;mcc_generated_files/uart1.c: 118:     UART1_SetFramingErrorHandler(UART1_DefaultFraming
      +                          ErrorHandler);
  3830   005DF4  0E0A               	movlw	low _UART1_DefaultFramingErrorHandler
  3831   005DF6  6E03               	movwf	UART1_SetFramingErrorHandler@interruptHandler^0,c
  3832   005DF8  0E62               	movlw	high _UART1_DefaultFramingErrorHandler
  3833   005DFA  6E04               	movwf	(UART1_SetFramingErrorHandler@interruptHandler+1)^0,c
  3834   005DFC  ECF3  F030         	call	_UART1_SetFramingErrorHandler	;wreg free
  3835   005E00                     
  3836                           ;mcc_generated_files/uart1.c: 119:     UART1_SetOverrunErrorHandler(UART1_DefaultOverrun
      +                          ErrorHandler);
  3837   005E00  0E08               	movlw	low _UART1_DefaultOverrunErrorHandler
  3838   005E02  6E03               	movwf	UART1_SetOverrunErrorHandler@interruptHandler^0,c
  3839   005E04  0E62               	movlw	high _UART1_DefaultOverrunErrorHandler
  3840   005E06  6E04               	movwf	(UART1_SetOverrunErrorHandler@interruptHandler+1)^0,c
  3841   005E08  ECEE  F030         	call	_UART1_SetOverrunErrorHandler	;wreg free
  3842   005E0C                     
  3843                           ;mcc_generated_files/uart1.c: 120:     UART1_SetErrorHandler(UART1_DefaultErrorHandler);
  3844   005E0C  0E0C               	movlw	low _UART1_DefaultErrorHandler
  3845   005E0E  6E03               	movwf	UART1_SetErrorHandler@interruptHandler^0,c
  3846   005E10  0E62               	movlw	high _UART1_DefaultErrorHandler
  3847   005E12  6E04               	movwf	(UART1_SetErrorHandler@interruptHandler+1)^0,c
  3848   005E14  ECF8  F030         	call	_UART1_SetErrorHandler	;wreg free
  3849   005E18                     
  3850                           ;mcc_generated_files/uart1.c: 122:     uart1RxLastError.status = 0;
  3851   005E18  0E00               	movlw	0
  3852   005E1A  6E5C               	movwf	_uart1RxLastError^0,c	;volatile
  3853   005E1C  0012               	return		;funcret
  3854   005E1E                     __end_of_UART1_Initialize:
  3855                           	callstack 0
  3856                           
  3857 ;; *************** function _UART1_SetOverrunErrorHandler *****************
  3858 ;; Defined at:
  3859 ;;		line 204 in file "mcc_generated_files/uart1.c"
  3860 ;; Parameters:    Size  Location     Type
  3861 ;;  interruptHan    2    2[COMRAM] PTR FTN()void 
  3862 ;;		 -> UART1_DefaultOverrunErrorHandler(1), 
  3863 ;; Auto vars:     Size  Location     Type
  3864 ;;		None
  3865 ;; Return value:  Size  Location     Type
  3866 ;;                  1    wreg      void 
  3867 ;; Registers used:
  3868 ;;		wreg, status,2, status,0
  3869 ;; Tracked objects:
  3870 ;;		On entry : 0/0
  3871 ;;		On exit  : 0/0
  3872 ;;		Unchanged: 0/0
  3873 ;; Data sizes:     COMRAM   BANK0   BANK1   BANK2   BANK3   BANK4   BANK5   BANK6   BANK7   BANK8   BANK9  BANK10  BANK1
      +1  BANK12  BANK13  BANK14  BANK15
  3874 ;;      Params:         2       0       0       0       0       0       0       0       0       0       0       0       
      +0       0       0       0       0
  3875 ;;      Locals:         0       0       0       0       0       0       0       0       0       0       0       0       
      +0       0       0       0       0
  3876 ;;      Temps:          0       0       0       0       0       0       0       0       0       0       0       0       
      +0       0       0       0       0
  3877 ;;      Totals:         2       0       0       0       0       0       0       0       0       0       0       0       
      +0       0       0       0       0
  3878 ;;Total ram usage:        2 bytes
  3879 ;; Hardware stack levels used: 1
  3880 ;; Hardware stack levels required when called: 3
  3881 ;; This function calls:
  3882 ;;		Nothing
  3883 ;; This function is called by:
  3884 ;;		_UART1_Initialize
  3885 ;; This function uses a non-reentrant model
  3886 ;;
  3887                           
  3888                           	psect	text12
  3889   0061DC                     __ptext12:
  3890                           	callstack 0
  3891   0061DC                     _UART1_SetOverrunErrorHandler:
  3892                           	callstack 25
  3893   0061DC                     
  3894                           ;mcc_generated_files/uart1.c: 205:     UART1_OverrunErrorHandler = interruptHandler;
  3895   0061DC  C003  F0F3         	movff	UART1_SetOverrunErrorHandler@interruptHandler,_UART1_OverrunErrorHandler
  3896   0061E0  C004  F0F4         	movff	UART1_SetOverrunErrorHandler@interruptHandler+1,_UART1_OverrunErrorHandler+1
  3897   0061E4  0012               	return		;funcret
  3898   0061E6                     __end_of_UART1_SetOverrunErrorHandler:
  3899                           	callstack 0
  3900                           
  3901 ;; *************** function _UART1_SetFramingErrorHandler *****************
  3902 ;; Defined at:
  3903 ;;		line 200 in file "mcc_generated_files/uart1.c"
  3904 ;; Parameters:    Size  Location     Type
  3905 ;;  interruptHan    2    2[COMRAM] PTR FTN()void 
  3906 ;;		 -> UART1_DefaultFramingErrorHandler(1), 
  3907 ;; Auto vars:     Size  Location     Type
  3908 ;;		None
  3909 ;; Return value:  Size  Location     Type
  3910 ;;                  1    wreg      void 
  3911 ;; Registers used:
  3912 ;;		wreg, status,2, status,0
  3913 ;; Tracked objects:
  3914 ;;		On entry : 0/0
  3915 ;;		On exit  : 0/0
  3916 ;;		Unchanged: 0/0
  3917 ;; Data sizes:     COMRAM   BANK0   BANK1   BANK2   BANK3   BANK4   BANK5   BANK6   BANK7   BANK8   BANK9  BANK10  BANK1
      +1  BANK12  BANK13  BANK14  BANK15
  3918 ;;      Params:         2       0       0       0       0       0       0       0       0       0       0       0       
      +0       0       0       0       0
  3919 ;;      Locals:         0       0       0       0       0       0       0       0       0       0       0       0       
      +0       0       0       0       0
  3920 ;;      Temps:          0       0       0       0       0       0       0       0       0       0       0       0       
      +0       0       0       0       0
  3921 ;;      Totals:         2       0       0       0       0       0       0       0       0       0       0       0       
      +0       0       0       0       0
  3922 ;;Total ram usage:        2 bytes
  3923 ;; Hardware stack levels used: 1
  3924 ;; Hardware stack levels required when called: 3
  3925 ;; This function calls:
  3926 ;;		Nothing
  3927 ;; This function is called by:
  3928 ;;		_UART1_Initialize
  3929 ;; This function uses a non-reentrant model
  3930 ;;
  3931                           
  3932                           	psect	text13
  3933   0061E6                     __ptext13:
  3934                           	callstack 0
  3935   0061E6                     _UART1_SetFramingErrorHandler:
  3936                           	callstack 25
  3937   0061E6                     
  3938                           ;mcc_generated_files/uart1.c: 201:     UART1_FramingErrorHandler = interruptHandler;
  3939   0061E6  C003  F0F5         	movff	UART1_SetFramingErrorHandler@interruptHandler,_UART1_FramingErrorHandler
  3940   0061EA  C004  F0F6         	movff	UART1_SetFramingErrorHandler@interruptHandler+1,_UART1_FramingErrorHandler+1
  3941   0061EE  0012               	return		;funcret
  3942   0061F0                     __end_of_UART1_SetFramingErrorHandler:
  3943                           	callstack 0
  3944                           
  3945 ;; *************** function _UART1_SetErrorHandler *****************
  3946 ;; Defined at:
  3947 ;;		line 208 in file "mcc_generated_files/uart1.c"
  3948 ;; Parameters:    Size  Location     Type
  3949 ;;  interruptHan    2    2[COMRAM] PTR FTN()void 
  3950 ;;		 -> UART1_DefaultErrorHandler(1), 
  3951 ;; Auto vars:     Size  Location     Type
  3952 ;;		None
  3953 ;; Return value:  Size  Location     Type
  3954 ;;                  1    wreg      void 
  3955 ;; Registers used:
  3956 ;;		wreg, status,2, status,0
  3957 ;; Tracked objects:
  3958 ;;		On entry : 0/0
  3959 ;;		On exit  : 0/0
  3960 ;;		Unchanged: 0/0
  3961 ;; Data sizes:     COMRAM   BANK0   BANK1   BANK2   BANK3   BANK4   BANK5   BANK6   BANK7   BANK8   BANK9  BANK10  BANK1
      +1  BANK12  BANK13  BANK14  BANK15
  3962 ;;      Params:         2       0       0       0       0       0       0       0       0       0       0       0       
      +0       0       0       0       0
  3963 ;;      Locals:         0       0       0       0       0       0       0       0       0       0       0       0       
      +0       0       0       0       0
  3964 ;;      Temps:          0       0       0       0       0       0       0       0       0       0       0       0       
      +0       0       0       0       0
  3965 ;;      Totals:         2       0       0       0       0       0       0       0       0       0       0       0       
      +0       0       0       0       0
  3966 ;;Total ram usage:        2 bytes
  3967 ;; Hardware stack levels used: 1
  3968 ;; Hardware stack levels required when called: 3
  3969 ;; This function calls:
  3970 ;;		Nothing
  3971 ;; This function is called by:
  3972 ;;		_UART1_Initialize
  3973 ;; This function uses a non-reentrant model
  3974 ;;
  3975                           
  3976                           	psect	text14
  3977   0061F0                     __ptext14:
  3978                           	callstack 0
  3979   0061F0                     _UART1_SetErrorHandler:
  3980                           	callstack 25
  3981   0061F0                     
  3982                           ;mcc_generated_files/uart1.c: 209:     UART1_ErrorHandler = interruptHandler;
  3983   0061F0  C003  F0F1         	movff	UART1_SetErrorHandler@interruptHandler,_UART1_ErrorHandler
  3984   0061F4  C004  F0F2         	movff	UART1_SetErrorHandler@interruptHandler+1,_UART1_ErrorHandler+1
  3985   0061F8  0012               	return		;funcret
  3986   0061FA                     __end_of_UART1_SetErrorHandler:
  3987                           	callstack 0
  3988                           
  3989 ;; *************** function _TMR0_Initialize *****************
  3990 ;; Defined at:
  3991 ;;		line 61 in file "mcc_generated_files/tmr0.c"
  3992 ;; Parameters:    Size  Location     Type
  3993 ;;		None
  3994 ;; Auto vars:     Size  Location     Type
  3995 ;;		None
  3996 ;; Return value:  Size  Location     Type
  3997 ;;                  1    wreg      void 
  3998 ;; Registers used:
  3999 ;;		wreg, status,2, status,0, cstack
  4000 ;; Tracked objects:
  4001 ;;		On entry : 0/0
  4002 ;;		On exit  : 0/0
  4003 ;;		Unchanged: 0/0
  4004 ;; Data sizes:     COMRAM   BANK0   BANK1   BANK2   BANK3   BANK4   BANK5   BANK6   BANK7   BANK8   BANK9  BANK10  BANK1
      +1  BANK12  BANK13  BANK14  BANK15
  4005 ;;      Params:         0       0       0       0       0       0       0       0       0       0       0       0       
      +0       0       0       0       0
  4006 ;;      Locals:         0       0       0       0       0       0       0       0       0       0       0       0       
      +0       0       0       0       0
  4007 ;;      Temps:          0       0       0       0       0       0       0       0       0       0       0       0       
      +0       0       0       0       0
  4008 ;;      Totals:         0       0       0       0       0       0       0       0       0       0       0       0       
      +0       0       0       0       0
  4009 ;;Total ram usage:        0 bytes
  4010 ;; Hardware stack levels used: 1
  4011 ;; Hardware stack levels required when called: 4
  4012 ;; This function calls:
  4013 ;;		_TMR0_SetInterruptHandler
  4014 ;; This function is called by:
  4015 ;;		_SYSTEM_Initialize
  4016 ;; This function uses a non-reentrant model
  4017 ;;
  4018                           
  4019                           	psect	text15
  4020   006110                     __ptext15:
  4021                           	callstack 0
  4022   006110                     _TMR0_Initialize:
  4023                           	callstack 25
  4024   006110                     
  4025                           ;mcc_generated_files/tmr0.c: 66:     T0CON1 = 0x81;
  4026   006110  0E81               	movlw	129
  4027   006112  6EB9               	movwf	185,c	;volatile
  4028                           
  4029                           ;mcc_generated_files/tmr0.c: 69:     TMR0H = 0x9A;
  4030   006114  0E9A               	movlw	154
  4031   006116  6EB7               	movwf	183,c	;volatile
  4032                           
  4033                           ;mcc_generated_files/tmr0.c: 72:     TMR0L = 0x00;
  4034   006118  0E00               	movlw	0
  4035   00611A  6EB6               	movwf	182,c	;volatile
  4036   00611C                     
  4037                           ;mcc_generated_files/tmr0.c: 75:     PIR3bits.TMR0IF = 0;
  4038   00611C  0139               	movlb	57	; () banked
  4039   00611E  9FA3               	bcf	163,7,b	;volatile
  4040   006120                     
  4041                           ; BSR set to: 57
  4042                           ;mcc_generated_files/tmr0.c: 78:     PIE3bits.TMR0IE = 1;
  4043   006120  8F93               	bsf	147,7,b	;volatile
  4044   006122                     
  4045                           ; BSR set to: 57
  4046                           ;mcc_generated_files/tmr0.c: 81:     TMR0_SetInterruptHandler(TMR0_DefaultInterruptHandl
      +                          er);
  4047   006122  0E0E               	movlw	low _TMR0_DefaultInterruptHandler
  4048   006124  6E03               	movwf	TMR0_SetInterruptHandler@InterruptHandler^0,c
  4049   006126  0E62               	movlw	high _TMR0_DefaultInterruptHandler
  4050   006128  6E04               	movwf	(TMR0_SetInterruptHandler@InterruptHandler+1)^0,c
  4051   00612A  ECFD  F030         	call	_TMR0_SetInterruptHandler	;wreg free
  4052   00612E                     
  4053                           ;mcc_generated_files/tmr0.c: 84:     T0CON0 = 0x80;
  4054   00612E  0E80               	movlw	128
  4055   006130  6EB8               	movwf	184,c	;volatile
  4056   006132  0012               	return		;funcret
  4057   006134                     __end_of_TMR0_Initialize:
  4058                           	callstack 0
  4059                           
  4060 ;; *************** function _TMR0_SetInterruptHandler *****************
  4061 ;; Defined at:
  4062 ;;		line 134 in file "mcc_generated_files/tmr0.c"
  4063 ;; Parameters:    Size  Location     Type
  4064 ;;  InterruptHan    2    2[COMRAM] PTR FTN()void 
  4065 ;;		 -> TMR0_DefaultInterruptHandler(1), 
  4066 ;; Auto vars:     Size  Location     Type
  4067 ;;		None
  4068 ;; Return value:  Size  Location     Type
  4069 ;;                  1    wreg      void 
  4070 ;; Registers used:
  4071 ;;		wreg, status,2, status,0
  4072 ;; Tracked objects:
  4073 ;;		On entry : 0/0
  4074 ;;		On exit  : 0/0
  4075 ;;		Unchanged: 0/0
  4076 ;; Data sizes:     COMRAM   BANK0   BANK1   BANK2   BANK3   BANK4   BANK5   BANK6   BANK7   BANK8   BANK9  BANK10  BANK1
      +1  BANK12  BANK13  BANK14  BANK15
  4077 ;;      Params:         2       0       0       0       0       0       0       0       0       0       0       0       
      +0       0       0       0       0
  4078 ;;      Locals:         0       0       0       0       0       0       0       0       0       0       0       0       
      +0       0       0       0       0
  4079 ;;      Temps:          0       0       0       0       0       0       0       0       0       0       0       0       
      +0       0       0       0       0
  4080 ;;      Totals:         2       0       0       0       0       0       0       0       0       0       0       0       
      +0       0       0       0       0
  4081 ;;Total ram usage:        2 bytes
  4082 ;; Hardware stack levels used: 1
  4083 ;; Hardware stack levels required when called: 3
  4084 ;; This function calls:
  4085 ;;		Nothing
  4086 ;; This function is called by:
  4087 ;;		_TMR0_Initialize
  4088 ;; This function uses a non-reentrant model
  4089 ;;
  4090                           
  4091                           	psect	text16
  4092   0061FA                     __ptext16:
  4093                           	callstack 0
  4094   0061FA                     _TMR0_SetInterruptHandler:
  4095                           	callstack 25
  4096   0061FA                     
  4097                           ;mcc_generated_files/tmr0.c: 135:     TMR0_InterruptHandler = InterruptHandler;
  4098   0061FA  C003  F0EF         	movff	TMR0_SetInterruptHandler@InterruptHandler,_TMR0_InterruptHandler
  4099   0061FE  C004  F0F0         	movff	TMR0_SetInterruptHandler@InterruptHandler+1,_TMR0_InterruptHandler+1
  4100   006202  0012               	return		;funcret
  4101   006204                     __end_of_TMR0_SetInterruptHandler:
  4102                           	callstack 0
  4103                           
  4104 ;; *************** function _PMD_Initialize *****************
  4105 ;; Defined at:
  4106 ;;		line 74 in file "mcc_generated_files/mcc.c"
  4107 ;; Parameters:    Size  Location     Type
  4108 ;;		None
  4109 ;; Auto vars:     Size  Location     Type
  4110 ;;		None
  4111 ;; Return value:  Size  Location     Type
  4112 ;;                  1    wreg      void 
  4113 ;; Registers used:
  4114 ;;		wreg, status,2
  4115 ;; Tracked objects:
  4116 ;;		On entry : 0/0
  4117 ;;		On exit  : 0/0
  4118 ;;		Unchanged: 0/0
  4119 ;; Data sizes:     COMRAM   BANK0   BANK1   BANK2   BANK3   BANK4   BANK5   BANK6   BANK7   BANK8   BANK9  BANK10  BANK1
      +1  BANK12  BANK13  BANK14  BANK15
  4120 ;;      Params:         0       0       0       0       0       0       0       0       0       0       0       0       
      +0       0       0       0       0
  4121 ;;      Locals:         0       0       0       0       0       0       0       0       0       0       0       0       
      +0       0       0       0       0
  4122 ;;      Temps:          0       0       0       0       0       0       0       0       0       0       0       0       
      +0       0       0       0       0
  4123 ;;      Totals:         0       0       0       0       0       0       0       0       0       0       0       0       
      +0       0       0       0       0
  4124 ;;Total ram usage:        0 bytes
  4125 ;; Hardware stack levels used: 1
  4126 ;; Hardware stack levels required when called: 3
  4127 ;; This function calls:
  4128 ;;		Nothing
  4129 ;; This function is called by:
  4130 ;;		_SYSTEM_Initialize
  4131 ;; This function uses a non-reentrant model
  4132 ;;
  4133                           
  4134                           	psect	text17
  4135   006134                     __ptext17:
  4136                           	callstack 0
  4137   006134                     _PMD_Initialize:
  4138                           	callstack 26
  4139   006134                     
  4140                           ;mcc_generated_files/mcc.c: 77:     PMD0 = 0x00;
  4141   006134  0E00               	movlw	0
  4142   006136  0139               	movlb	57	; () banked
  4143   006138  6FC0               	movwf	192,b	;volatile
  4144                           
  4145                           ;mcc_generated_files/mcc.c: 79:     PMD1 = 0x00;
  4146   00613A  0E00               	movlw	0
  4147   00613C  6FC1               	movwf	193,b	;volatile
  4148                           
  4149                           ;mcc_generated_files/mcc.c: 81:     PMD2 = 0x00;
  4150   00613E  0E00               	movlw	0
  4151   006140  6FC2               	movwf	194,b	;volatile
  4152                           
  4153                           ;mcc_generated_files/mcc.c: 83:     PMD3 = 0x00;
  4154   006142  0E00               	movlw	0
  4155   006144  6FC3               	movwf	195,b	;volatile
  4156                           
  4157                           ;mcc_generated_files/mcc.c: 85:     PMD4 = 0x00;
  4158   006146  0E00               	movlw	0
  4159   006148  6FC4               	movwf	196,b	;volatile
  4160                           
  4161                           ;mcc_generated_files/mcc.c: 87:     PMD5 = 0x00;
  4162   00614A  0E00               	movlw	0
  4163   00614C  6FC5               	movwf	197,b	;volatile
  4164                           
  4165                           ;mcc_generated_files/mcc.c: 89:     PMD6 = 0x00;
  4166   00614E  0E00               	movlw	0
  4167   006150  6FC6               	movwf	198,b	;volatile
  4168                           
  4169                           ;mcc_generated_files/mcc.c: 91:     PMD7 = 0x00;
  4170   006152  0E00               	movlw	0
  4171   006154  6FC7               	movwf	199,b	;volatile
  4172   006156                     
  4173                           ; BSR set to: 57
  4174   006156  0012               	return		;funcret
  4175   006158                     __end_of_PMD_Initialize:
  4176                           	callstack 0
  4177                           
  4178 ;; *************** function _PIN_MANAGER_Initialize *****************
  4179 ;; Defined at:
  4180 ;;		line 55 in file "mcc_generated_files/pin_manager.c"
  4181 ;; Parameters:    Size  Location     Type
  4182 ;;		None
  4183 ;; Auto vars:     Size  Location     Type
  4184 ;;		None
  4185 ;; Return value:  Size  Location     Type
  4186 ;;                  1    wreg      void 
  4187 ;; Registers used:
  4188 ;;		wreg, status,2
  4189 ;; Tracked objects:
  4190 ;;		On entry : 0/0
  4191 ;;		On exit  : 0/0
  4192 ;;		Unchanged: 0/0
  4193 ;; Data sizes:     COMRAM   BANK0   BANK1   BANK2   BANK3   BANK4   BANK5   BANK6   BANK7   BANK8   BANK9  BANK10  BANK1
      +1  BANK12  BANK13  BANK14  BANK15
  4194 ;;      Params:         0       0       0       0       0       0       0       0       0       0       0       0       
      +0       0       0       0       0
  4195 ;;      Locals:         0       0       0       0       0       0       0       0       0       0       0       0       
      +0       0       0       0       0
  4196 ;;      Temps:          0       0       0       0       0       0       0       0       0       0       0       0       
      +0       0       0       0       0
  4197 ;;      Totals:         0       0       0       0       0       0       0       0       0       0       0       0       
      +0       0       0       0       0
  4198 ;;Total ram usage:        0 bytes
  4199 ;; Hardware stack levels used: 1
  4200 ;; Hardware stack levels required when called: 3
  4201 ;; This function calls:
  4202 ;;		Nothing
  4203 ;; This function is called by:
  4204 ;;		_SYSTEM_Initialize
  4205 ;; This function uses a non-reentrant model
  4206 ;;
  4207                           
  4208                           	psect	text18
  4209   005E84                     __ptext18:
  4210                           	callstack 0
  4211   005E84                     _PIN_MANAGER_Initialize:
  4212                           	callstack 26
  4213   005E84                     
  4214                           ;mcc_generated_files/pin_manager.c: 60:     LATA = 0x00;
  4215   005E84  0E00               	movlw	0
  4216   005E86  6EBA               	movwf	186,c	;volatile
  4217                           
  4218                           ;mcc_generated_files/pin_manager.c: 61:     LATB = 0x00;
  4219   005E88  0E00               	movlw	0
  4220   005E8A  6EBB               	movwf	187,c	;volatile
  4221                           
  4222                           ;mcc_generated_files/pin_manager.c: 62:     LATC = 0x00;
  4223   005E8C  0E00               	movlw	0
  4224   005E8E  6EBC               	movwf	188,c	;volatile
  4225   005E90                     
  4226                           ;mcc_generated_files/pin_manager.c: 67:     TRISA = 0xFF;
  4227   005E90  68C2               	setf	194,c	;volatile
  4228   005E92                     
  4229                           ;mcc_generated_files/pin_manager.c: 68:     TRISB = 0xFF;
  4230   005E92  68C3               	setf	195,c	;volatile
  4231                           
  4232                           ;mcc_generated_files/pin_manager.c: 69:     TRISC = 0xBF;
  4233   005E94  0EBF               	movlw	191
  4234   005E96  6EC4               	movwf	196,c	;volatile
  4235                           
  4236                           ;mcc_generated_files/pin_manager.c: 74:     ANSELC = 0x7F;
  4237   005E98  0E7F               	movlw	127
  4238   005E9A  013A               	movlb	58	; () banked
  4239   005E9C  6F60               	movwf	96,b	;volatile
  4240   005E9E                     
  4241                           ; BSR set to: 58
  4242                           ;mcc_generated_files/pin_manager.c: 75:     ANSELB = 0xFF;
  4243   005E9E  6950               	setf	80,b	;volatile
  4244   005EA0                     
  4245                           ; BSR set to: 58
  4246                           ;mcc_generated_files/pin_manager.c: 76:     ANSELA = 0xFF;
  4247   005EA0  6940               	setf	64,b	;volatile
  4248                           
  4249                           ;mcc_generated_files/pin_manager.c: 81:     WPUE = 0x00;
  4250   005EA2  0E00               	movlw	0
  4251   005EA4  6F81               	movwf	129,b	;volatile
  4252                           
  4253                           ;mcc_generated_files/pin_manager.c: 82:     WPUB = 0x00;
  4254   005EA6  0E00               	movlw	0
  4255   005EA8  6F51               	movwf	81,b	;volatile
  4256                           
  4257                           ;mcc_generated_files/pin_manager.c: 83:     WPUA = 0x00;
  4258   005EAA  0E00               	movlw	0
  4259   005EAC  6F41               	movwf	65,b	;volatile
  4260                           
  4261                           ;mcc_generated_files/pin_manager.c: 84:     WPUC = 0x00;
  4262   005EAE  0E00               	movlw	0
  4263   005EB0  6F61               	movwf	97,b	;volatile
  4264                           
  4265                           ;mcc_generated_files/pin_manager.c: 89:     ODCONA = 0x00;
  4266   005EB2  0E00               	movlw	0
  4267   005EB4  6F42               	movwf	66,b	;volatile
  4268                           
  4269                           ;mcc_generated_files/pin_manager.c: 90:     ODCONB = 0x00;
  4270   005EB6  0E00               	movlw	0
  4271   005EB8  6F52               	movwf	82,b	;volatile
  4272                           
  4273                           ;mcc_generated_files/pin_manager.c: 91:     ODCONC = 0x00;
  4274   005EBA  0E00               	movlw	0
  4275   005EBC  6F62               	movwf	98,b	;volatile
  4276   005EBE                     
  4277                           ; BSR set to: 58
  4278                           ;mcc_generated_files/pin_manager.c: 96:     SLRCONA = 0xFF;
  4279   005EBE  6943               	setf	67,b	;volatile
  4280   005EC0                     
  4281                           ; BSR set to: 58
  4282                           ;mcc_generated_files/pin_manager.c: 97:     SLRCONB = 0xFF;
  4283   005EC0  6953               	setf	83,b	;volatile
  4284   005EC2                     
  4285                           ; BSR set to: 58
  4286                           ;mcc_generated_files/pin_manager.c: 98:     SLRCONC = 0xFF;
  4287   005EC2  6963               	setf	99,b	;volatile
  4288   005EC4                     
  4289                           ; BSR set to: 58
  4290                           ;mcc_generated_files/pin_manager.c: 103:     INLVLA = 0xFF;
  4291   005EC4  6944               	setf	68,b	;volatile
  4292   005EC6                     
  4293                           ; BSR set to: 58
  4294                           ;mcc_generated_files/pin_manager.c: 104:     INLVLB = 0xFF;
  4295   005EC6  6954               	setf	84,b	;volatile
  4296   005EC8                     
  4297                           ; BSR set to: 58
  4298                           ;mcc_generated_files/pin_manager.c: 105:     INLVLC = 0xFF;
  4299   005EC8  6964               	setf	100,b	;volatile
  4300                           
  4301                           ;mcc_generated_files/pin_manager.c: 106:     INLVLE = 0x08;
  4302   005ECA  0E08               	movlw	8
  4303   005ECC  6F84               	movwf	132,b	;volatile
  4304                           
  4305                           ;mcc_generated_files/pin_manager.c: 115:     RC6PPS = 0x13;
  4306   005ECE  0E13               	movlw	19
  4307   005ED0  6F16               	movwf	22,b	;volatile
  4308                           
  4309                           ;mcc_generated_files/pin_manager.c: 116:     U1RXPPS = 0x17;
  4310   005ED2  0E17               	movlw	23
  4311   005ED4  6FE7               	movwf	231,b	;volatile
  4312   005ED6                     
  4313                           ; BSR set to: 58
  4314   005ED6  0012               	return		;funcret
  4315   005ED8                     __end_of_PIN_MANAGER_Initialize:
  4316                           	callstack 0
  4317                           
  4318 ;; *************** function _OSCILLATOR_Initialize *****************
  4319 ;; Defined at:
  4320 ;;		line 60 in file "mcc_generated_files/mcc.c"
  4321 ;; Parameters:    Size  Location     Type
  4322 ;;		None
  4323 ;; Auto vars:     Size  Location     Type
  4324 ;;		None
  4325 ;; Return value:  Size  Location     Type
  4326 ;;                  1    wreg      void 
  4327 ;; Registers used:
  4328 ;;		wreg, status,2
  4329 ;; Tracked objects:
  4330 ;;		On entry : 0/0
  4331 ;;		On exit  : 0/0
  4332 ;;		Unchanged: 0/0
  4333 ;; Data sizes:     COMRAM   BANK0   BANK1   BANK2   BANK3   BANK4   BANK5   BANK6   BANK7   BANK8   BANK9  BANK10  BANK1
      +1  BANK12  BANK13  BANK14  BANK15
  4334 ;;      Params:         0       0       0       0       0       0       0       0       0       0       0       0       
      +0       0       0       0       0
  4335 ;;      Locals:         0       0       0       0       0       0       0       0       0       0       0       0       
      +0       0       0       0       0
  4336 ;;      Temps:          0       0       0       0       0       0       0       0       0       0       0       0       
      +0       0       0       0       0
  4337 ;;      Totals:         0       0       0       0       0       0       0       0       0       0       0       0       
      +0       0       0       0       0
  4338 ;;Total ram usage:        0 bytes
  4339 ;; Hardware stack levels used: 1
  4340 ;; Hardware stack levels required when called: 3
  4341 ;; This function calls:
  4342 ;;		Nothing
  4343 ;; This function is called by:
  4344 ;;		_SYSTEM_Initialize
  4345 ;; This function uses a non-reentrant model
  4346 ;;
  4347                           
  4348                           	psect	text19
  4349   0061AE                     __ptext19:
  4350                           	callstack 0
  4351   0061AE                     _OSCILLATOR_Initialize:
  4352                           	callstack 26
  4353   0061AE                     
  4354                           ;mcc_generated_files/mcc.c: 63:     OSCCON1 = 0x60;
  4355   0061AE  0E60               	movlw	96
  4356   0061B0  0139               	movlb	57	; () banked
  4357   0061B2  6FD9               	movwf	217,b	;volatile
  4358                           
  4359                           ;mcc_generated_files/mcc.c: 65:     OSCCON3 = 0x00;
  4360   0061B4  0E00               	movlw	0
  4361   0061B6  6FDB               	movwf	219,b	;volatile
  4362                           
  4363                           ;mcc_generated_files/mcc.c: 67:     OSCEN = 0x00;
  4364   0061B8  0E00               	movlw	0
  4365   0061BA  6FDD               	movwf	221,b	;volatile
  4366                           
  4367                           ;mcc_generated_files/mcc.c: 69:     OSCFRQ = 0x08;
  4368   0061BC  0E08               	movlw	8
  4369   0061BE  6FDF               	movwf	223,b	;volatile
  4370                           
  4371                           ;mcc_generated_files/mcc.c: 71:     OSCTUNE = 0x00;
  4372   0061C0  0E00               	movlw	0
  4373   0061C2  6FDE               	movwf	222,b	;volatile
  4374   0061C4                     
  4375                           ; BSR set to: 57
  4376   0061C4  0012               	return		;funcret
  4377   0061C6                     __end_of_OSCILLATOR_Initialize:
  4378                           	callstack 0
  4379                           
  4380 ;; *************** function _INTERRUPT_Initialize *****************
  4381 ;; Defined at:
  4382 ;;		line 52 in file "mcc_generated_files/interrupt_manager.c"
  4383 ;; Parameters:    Size  Location     Type
  4384 ;;		None
  4385 ;; Auto vars:     Size  Location     Type
  4386 ;;		None
  4387 ;; Return value:  Size  Location     Type
  4388 ;;                  1    wreg      void 
  4389 ;; Registers used:
  4390 ;;		None
  4391 ;; Tracked objects:
  4392 ;;		On entry : 0/0
  4393 ;;		On exit  : 0/0
  4394 ;;		Unchanged: 0/0
  4395 ;; Data sizes:     COMRAM   BANK0   BANK1   BANK2   BANK3   BANK4   BANK5   BANK6   BANK7   BANK8   BANK9  BANK10  BANK1
      +1  BANK12  BANK13  BANK14  BANK15
  4396 ;;      Params:         0       0       0       0       0       0       0       0       0       0       0       0       
      +0       0       0       0       0
  4397 ;;      Locals:         0       0       0       0       0       0       0       0       0       0       0       0       
      +0       0       0       0       0
  4398 ;;      Temps:          0       0       0       0       0       0       0       0       0       0       0       0       
      +0       0       0       0       0
  4399 ;;      Totals:         0       0       0       0       0       0       0       0       0       0       0       0       
      +0       0       0       0       0
  4400 ;;Total ram usage:        0 bytes
  4401 ;; Hardware stack levels used: 1
  4402 ;; Hardware stack levels required when called: 3
  4403 ;; This function calls:
  4404 ;;		Nothing
  4405 ;; This function is called by:
  4406 ;;		_SYSTEM_Initialize
  4407 ;; This function uses a non-reentrant model
  4408 ;;
  4409                           
  4410                           	psect	text20
  4411   006204                     __ptext20:
  4412                           	callstack 0
  4413   006204                     _INTERRUPT_Initialize:
  4414                           	callstack 26
  4415   006204                     
  4416                           ;mcc_generated_files/interrupt_manager.c: 55:     INTCON0bits.IPEN = 0;
  4417   006204  9AD2               	bcf	210,5,c	;volatile
  4418   006206  0012               	return		;funcret
  4419   006208                     __end_of_INTERRUPT_Initialize:
  4420                           	callstack 0
  4421                           
  4422 ;; *************** function _Frame_Update *****************
  4423 ;; Defined at:
  4424 ;;		line 28 in file "frame.c"
  4425 ;; Parameters:    Size  Location     Type
  4426 ;;  frame           2    2[COMRAM] PTR struct .
  4427 ;;		 -> main@rx_frame(5), 
  4428 ;;  b               1    4[COMRAM] unsigned char 
  4429 ;; Auto vars:     Size  Location     Type
  4430 ;;		None
  4431 ;; Return value:  Size  Location     Type
  4432 ;;                  1    wreg      enum E23424
  4433 ;; Registers used:
  4434 ;;		wreg, fsr1l, fsr1h, fsr2l, fsr2h, status,2, status,0
  4435 ;; Tracked objects:
  4436 ;;		On entry : 0/0
  4437 ;;		On exit  : 0/0
  4438 ;;		Unchanged: 0/0
  4439 ;; Data sizes:     COMRAM   BANK0   BANK1   BANK2   BANK3   BANK4   BANK5   BANK6   BANK7   BANK8   BANK9  BANK10  BANK1
      +1  BANK12  BANK13  BANK14  BANK15
  4440 ;;      Params:         3       0       0       0       0       0       0       0       0       0       0       0       
      +0       0       0       0       0
  4441 ;;      Locals:         0       0       0       0       0       0       0       0       0       0       0       0       
      +0       0       0       0       0
  4442 ;;      Temps:          3       0       0       0       0       0       0       0       0       0       0       0       
      +0       0       0       0       0
  4443 ;;      Totals:         6       0       0       0       0       0       0       0       0       0       0       0       
      +0       0       0       0       0
  4444 ;;Total ram usage:        6 bytes
  4445 ;; Hardware stack levels used: 1
  4446 ;; Hardware stack levels required when called: 3
  4447 ;; This function calls:
  4448 ;;		Nothing
  4449 ;; This function is called by:
  4450 ;;		_main
  4451 ;; This function uses a non-reentrant model
  4452 ;;
  4453                           
  4454                           	psect	text21
  4455   00561A                     __ptext21:
  4456                           	callstack 0
  4457   00561A                     _Frame_Update:
  4458                           	callstack 27
  4459   00561A                     
  4460                           ;frame.c: 28: FrameResult_t Frame_Update(Frame_t* frame, uint8_t b);frame.c: 29: {;frame
      +                          .c: 30:     if(frame->escaped)
  4461   00561A  EE20 F004          	lfsr	2,4
  4462   00561E  5003               	movf	Frame_Update@frame^0,w,c
  4463   005620  26D9               	addwf	fsr2l,f,c
  4464   005622  5004               	movf	(Frame_Update@frame+1)^0,w,c
  4465   005624  22DA               	addwfc	fsr2h,f,c
  4466   005626  50DF               	movf	indf2,w,c
  4467   005628  B4D8               	btfsc	status,2,c
  4468   00562A  EF19  F02B         	goto	u4601
  4469   00562E  EF1B  F02B         	goto	u4600
  4470   005632                     u4601:
  4471   005632  EF82  F02B         	goto	l4874
  4472   005636                     u4600:
  4473   005636                     
  4474                           ;frame.c: 31:     {;frame.c: 32:         if(b == 0x0A)
  4475   005636  0E0A               	movlw	10
  4476   005638  1805               	xorwf	Frame_Update@b^0,w,c
  4477   00563A  A4D8               	btfss	status,2,c
  4478   00563C  EF22  F02B         	goto	u4611
  4479   005640  EF24  F02B         	goto	u4610
  4480   005644                     u4611:
  4481   005644  EF2D  F02B         	goto	l4852
  4482   005648                     u4610:
  4483   005648                     
  4484                           ;frame.c: 33:         {;frame.c: 34:             frame->i = 0;
  4485   005648  EE20 F003          	lfsr	2,3
  4486   00564C  5003               	movf	Frame_Update@frame^0,w,c
  4487   00564E  26D9               	addwf	fsr2l,f,c
  4488   005650  5004               	movf	(Frame_Update@frame+1)^0,w,c
  4489   005652  22DA               	addwfc	fsr2h,f,c
  4490   005654  6ADF               	clrf	indf2,c
  4491                           
  4492                           ;frame.c: 35:         }
  4493   005656  EFD0  F02B         	goto	l4886
  4494   00565A                     l4852:
  4495   00565A  0E05               	movlw	5
  4496   00565C  1805               	xorwf	Frame_Update@b^0,w,c
  4497   00565E  A4D8               	btfss	status,2,c
  4498   005660  EF34  F02B         	goto	u4621
  4499   005664  EF36  F02B         	goto	u4620
  4500   005668                     u4621:
  4501   005668  EF73  F02B         	goto	l4862
  4502   00566C                     u4620:
  4503   00566C                     
  4504                           ;frame.c: 37:         {;frame.c: 38:             if(frame->i >= frame->len)
  4505   00566C  EE20 F002          	lfsr	2,2
  4506   005670  5003               	movf	Frame_Update@frame^0,w,c
  4507   005672  26D9               	addwf	fsr2l,f,c
  4508   005674  5004               	movf	(Frame_Update@frame+1)^0,w,c
  4509   005676  22DA               	addwfc	fsr2h,f,c
  4510   005678  EE10 F003          	lfsr	1,3
  4511   00567C  5003               	movf	Frame_Update@frame^0,w,c
  4512   00567E  26E1               	addwf	fsr1l,f,c
  4513   005680  5004               	movf	(Frame_Update@frame+1)^0,w,c
  4514   005682  22E2               	addwfc	fsr1h,f,c
  4515   005684  50DE               	movf	postinc2,w,c
  4516   005686  5CE6               	subwf	postinc1,w,c
  4517   005688  A0D8               	btfss	status,0,c
  4518   00568A  EF49  F02B         	goto	u4631
  4519   00568E  EF4B  F02B         	goto	u4630
  4520   005692                     u4631:
  4521   005692  EF4E  F02B         	goto	l4860
  4522   005696                     u4630:
  4523   005696                     l4856:
  4524                           
  4525                           ;frame.c: 39:             {;frame.c: 40:                 return FRAME_OVERRUN;
  4526   005696  0E02               	movlw	2
  4527   005698  EFD1  F02B         	goto	l401
  4528   00569C                     l4860:
  4529                           
  4530                           ;frame.c: 42:             frame->buf[frame->i] = 0x05;
  4531   00569C  EE20 F003          	lfsr	2,3
  4532   0056A0  5003               	movf	Frame_Update@frame^0,w,c
  4533   0056A2  26D9               	addwf	fsr2l,f,c
  4534   0056A4  5004               	movf	(Frame_Update@frame+1)^0,w,c
  4535   0056A6  22DA               	addwfc	fsr2h,f,c
  4536   0056A8  50DF               	movf	indf2,w,c
  4537   0056AA  6E06               	movwf	??_Frame_Update^0,c
  4538   0056AC  0060  F00F  FFD9   	movff	Frame_Update@frame,fsr2l
  4539   0056B2  0060  F013  FFDA   	movff	Frame_Update@frame+1,fsr2h
  4540   0056B8  006F FF78  F007    	movff	postinc2,??_Frame_Update+1
  4541   0056BE  006F FF74  F008    	movff	postdec2,??_Frame_Update+2
  4542   0056C4  5006               	movf	??_Frame_Update^0,w,c
  4543   0056C6  2407               	addwf	(??_Frame_Update+1)^0,w,c
  4544   0056C8  6ED9               	movwf	fsr2l,c
  4545   0056CA  0E00               	movlw	0
  4546   0056CC  2008               	addwfc	(??_Frame_Update+2)^0,w,c
  4547   0056CE  6EDA               	movwf	fsr2h,c
  4548   0056D0  0E05               	movlw	5
  4549   0056D2  6EDF               	movwf	indf2,c
  4550                           
  4551                           ;frame.c: 43:             frame->i++;
  4552   0056D4  EE20 F003          	lfsr	2,3
  4553   0056D8  5003               	movf	Frame_Update@frame^0,w,c
  4554   0056DA  26D9               	addwf	fsr2l,f,c
  4555   0056DC  5004               	movf	(Frame_Update@frame+1)^0,w,c
  4556   0056DE  22DA               	addwfc	fsr2h,f,c
  4557   0056E0  2ADF               	incf	indf2,f,c
  4558                           
  4559                           ;frame.c: 44:         }
  4560   0056E2  EFD0  F02B         	goto	l4886
  4561   0056E6                     l4862:
  4562   0056E6  0E0B               	movlw	11
  4563   0056E8  1805               	xorwf	Frame_Update@b^0,w,c
  4564   0056EA  A4D8               	btfss	status,2,c
  4565   0056EC  EF7A  F02B         	goto	u4641
  4566   0056F0  EF7C  F02B         	goto	u4640
  4567   0056F4                     u4641:
  4568   0056F4  EF7F  F02B         	goto	l4870
  4569   0056F8                     u4640:
  4570   0056F8                     
  4571                           ;frame.c: 46:         {;frame.c: 47:             return FRAME_COMPLETE;
  4572   0056F8  0E00               	movlw	0
  4573   0056FA  EFD1  F02B         	goto	l401
  4574   0056FE                     l4870:
  4575                           
  4576                           ;frame.c: 50:         {;frame.c: 51:             return FRAME_INVALID_ESCAPE;
  4577   0056FE  0E03               	movlw	3
  4578   005700  EFD1  F02B         	goto	l401
  4579   005704                     l4874:
  4580                           
  4581                           ;frame.c: 55:     {;frame.c: 56:         if(b == 0x05)
  4582   005704  0E05               	movlw	5
  4583   005706  1805               	xorwf	Frame_Update@b^0,w,c
  4584   005708  A4D8               	btfss	status,2,c
  4585   00570A  EF89  F02B         	goto	u4651
  4586   00570E  EF8B  F02B         	goto	u4650
  4587   005712                     u4651:
  4588   005712  EF95  F02B         	goto	l4878
  4589   005716                     u4650:
  4590   005716                     
  4591                           ;frame.c: 57:         {;frame.c: 58:             frame->escaped = 1;
  4592   005716  EE20 F004          	lfsr	2,4
  4593   00571A  5003               	movf	Frame_Update@frame^0,w,c
  4594   00571C  26D9               	addwf	fsr2l,f,c
  4595   00571E  5004               	movf	(Frame_Update@frame+1)^0,w,c
  4596   005720  22DA               	addwfc	fsr2h,f,c
  4597   005722  0E01               	movlw	1
  4598   005724  6EDF               	movwf	indf2,c
  4599                           
  4600                           ;frame.c: 59:         }
  4601   005726  EFD0  F02B         	goto	l4886
  4602   00572A                     l4878:
  4603                           
  4604                           ;frame.c: 61:         {;frame.c: 62:             if(frame->i >= frame->len)
  4605   00572A  EE20 F002          	lfsr	2,2
  4606   00572E  5003               	movf	Frame_Update@frame^0,w,c
  4607   005730  26D9               	addwf	fsr2l,f,c
  4608   005732  5004               	movf	(Frame_Update@frame+1)^0,w,c
  4609   005734  22DA               	addwfc	fsr2h,f,c
  4610   005736  EE10 F003          	lfsr	1,3
  4611   00573A  5003               	movf	Frame_Update@frame^0,w,c
  4612   00573C  26E1               	addwf	fsr1l,f,c
  4613   00573E  5004               	movf	(Frame_Update@frame+1)^0,w,c
  4614   005740  22E2               	addwfc	fsr1h,f,c
  4615   005742  50DE               	movf	postinc2,w,c
  4616   005744  5CE6               	subwf	postinc1,w,c
  4617   005746  A0D8               	btfss	status,0,c
  4618   005748  EFA8  F02B         	goto	u4661
  4619   00574C  EFAA  F02B         	goto	u4660
  4620   005750                     u4661:
  4621   005750  EFAC  F02B         	goto	l4884
  4622   005754                     u4660:
  4623   005754  EF4B  F02B         	goto	l4856
  4624   005758                     l4884:
  4625                           
  4626                           ;frame.c: 66:             frame->buf[frame->i] = b;
  4627   005758  EE20 F003          	lfsr	2,3
  4628   00575C  5003               	movf	Frame_Update@frame^0,w,c
  4629   00575E  26D9               	addwf	fsr2l,f,c
  4630   005760  5004               	movf	(Frame_Update@frame+1)^0,w,c
  4631   005762  22DA               	addwfc	fsr2h,f,c
  4632   005764  50DF               	movf	indf2,w,c
  4633   005766  6E06               	movwf	??_Frame_Update^0,c
  4634   005768  0060  F00F  FFD9   	movff	Frame_Update@frame,fsr2l
  4635   00576E  0060  F013  FFDA   	movff	Frame_Update@frame+1,fsr2h
  4636   005774  006F FF78  F007    	movff	postinc2,??_Frame_Update+1
  4637   00577A  006F FF74  F008    	movff	postdec2,??_Frame_Update+2
  4638   005780  5006               	movf	??_Frame_Update^0,w,c
  4639   005782  2407               	addwf	(??_Frame_Update+1)^0,w,c
  4640   005784  6ED9               	movwf	fsr2l,c
  4641   005786  0E00               	movlw	0
  4642   005788  2008               	addwfc	(??_Frame_Update+2)^0,w,c
  4643   00578A  6EDA               	movwf	fsr2h,c
  4644   00578C  0060  F017  FFDF   	movff	Frame_Update@b,indf2
  4645                           
  4646                           ;frame.c: 67:             frame->i++;
  4647   005792  EE20 F003          	lfsr	2,3
  4648   005796  5003               	movf	Frame_Update@frame^0,w,c
  4649   005798  26D9               	addwf	fsr2l,f,c
  4650   00579A  5004               	movf	(Frame_Update@frame+1)^0,w,c
  4651   00579C  22DA               	addwfc	fsr2h,f,c
  4652   00579E  2ADF               	incf	indf2,f,c
  4653   0057A0                     l4886:
  4654                           
  4655                           ;frame.c: 70:     return FRAME_INCOMPLETE;
  4656   0057A0  0E01               	movlw	1
  4657   0057A2                     l401:
  4658   0057A2  0012               	return		;funcret
  4659   0057A4                     __end_of_Frame_Update:
  4660                           	callstack 0
  4661                           
  4662 ;; *************** function _Frame_Init *****************
  4663 ;; Defined at:
  4664 ;;		line 20 in file "frame.c"
  4665 ;; Parameters:    Size  Location     Type
  4666 ;;  frame           2    2[COMRAM] PTR struct .
  4667 ;;		 -> main@rx_frame(5), 
  4668 ;;  buf             2    4[COMRAM] PTR unsigned char 
  4669 ;;		 -> main@rx_buf(128), 
  4670 ;;  len             1    6[COMRAM] unsigned char 
  4671 ;; Auto vars:     Size  Location     Type
  4672 ;;		None
  4673 ;; Return value:  Size  Location     Type
  4674 ;;                  1    wreg      void 
  4675 ;; Registers used:
  4676 ;;		wreg, fsr2l, fsr2h, status,2, status,0
  4677 ;; Tracked objects:
  4678 ;;		On entry : 0/0
  4679 ;;		On exit  : 0/0
  4680 ;;		Unchanged: 0/0
  4681 ;; Data sizes:     COMRAM   BANK0   BANK1   BANK2   BANK3   BANK4   BANK5   BANK6   BANK7   BANK8   BANK9  BANK10  BANK1
      +1  BANK12  BANK13  BANK14  BANK15
  4682 ;;      Params:         5       0       0       0       0       0       0       0       0       0       0       0       
      +0       0       0       0       0
  4683 ;;      Locals:         0       0       0       0       0       0       0       0       0       0       0       0       
      +0       0       0       0       0
  4684 ;;      Temps:          0       0       0       0       0       0       0       0       0       0       0       0       
      +0       0       0       0       0
  4685 ;;      Totals:         5       0       0       0       0       0       0       0       0       0       0       0       
      +0       0       0       0       0
  4686 ;;Total ram usage:        5 bytes
  4687 ;; Hardware stack levels used: 1
  4688 ;; Hardware stack levels required when called: 3
  4689 ;; This function calls:
  4690 ;;		Nothing
  4691 ;; This function is called by:
  4692 ;;		_main
  4693 ;; This function uses a non-reentrant model
  4694 ;;
  4695                           
  4696                           	psect	text22
  4697   005ED8                     __ptext22:
  4698                           	callstack 0
  4699   005ED8                     _Frame_Init:
  4700                           	callstack 27
  4701   005ED8                     
  4702                           ;frame.c: 20: void Frame_Init(Frame_t* frame, uint8_t* buf, uint8_t len);frame.c: 21: {;
      +                          frame.c: 22:     frame->buf = buf;
  4703   005ED8  0060  F00F  FFD9   	movff	Frame_Init@frame,fsr2l
  4704   005EDE  0060  F013  FFDA   	movff	Frame_Init@frame+1,fsr2h
  4705   005EE4  0060  F017  FFDE   	movff	Frame_Init@buf,postinc2
  4706   005EEA  0060  F01B  FFDD   	movff	Frame_Init@buf+1,postdec2
  4707   005EF0                     
  4708                           ;frame.c: 23:     frame->len = len;
  4709   005EF0  EE20 F002          	lfsr	2,2
  4710   005EF4  5003               	movf	Frame_Init@frame^0,w,c
  4711   005EF6  26D9               	addwf	fsr2l,f,c
  4712   005EF8  5004               	movf	(Frame_Init@frame+1)^0,w,c
  4713   005EFA  22DA               	addwfc	fsr2h,f,c
  4714   005EFC  0060  F01F  FFDF   	movff	Frame_Init@len,indf2
  4715   005F02                     
  4716                           ;frame.c: 24:     frame->i = 0;
  4717   005F02  EE20 F003          	lfsr	2,3
  4718   005F06  5003               	movf	Frame_Init@frame^0,w,c
  4719   005F08  26D9               	addwf	fsr2l,f,c
  4720   005F0A  5004               	movf	(Frame_Init@frame+1)^0,w,c
  4721   005F0C  22DA               	addwfc	fsr2h,f,c
  4722   005F0E  6ADF               	clrf	indf2,c
  4723   005F10                     
  4724                           ;frame.c: 25:     frame->escaped = 0;
  4725   005F10  EE20 F004          	lfsr	2,4
  4726   005F14  5003               	movf	Frame_Init@frame^0,w,c
  4727   005F16  26D9               	addwf	fsr2l,f,c
  4728   005F18  5004               	movf	(Frame_Init@frame+1)^0,w,c
  4729   005F1A  22DA               	addwfc	fsr2h,f,c
  4730   005F1C  6ADF               	clrf	indf2,c
  4731   005F1E  0012               	return		;funcret
  4732   005F20                     __end_of_Frame_Init:
  4733                           	callstack 0
  4734                           
  4735 ;; *************** function _EKF *****************
  4736 ;; Defined at:
  4737 ;;		line 165 in file "main.c"
  4738 ;; Parameters:    Size  Location     Type
  4739 ;;  xhatk_1         2    0[BANK2 ] PTR struct MatrixStruct
  4740 ;;		 -> main@xhatk_1(18), 
  4741 ;;  Pk_1            2    2[BANK2 ] PTR struct MatrixStruct
  4742 ;;		 -> main@Pk_1(18), 
  4743 ;;  I               4    4[BANK2 ] float 
  4744 ;;  Ik_1            4    8[BANK2 ] float 
  4745 ;;  V               4   12[BANK2 ] float 
  4746 ;;  Voc0            4   16[BANK2 ] float 
  4747 ;;  Rk              4   20[BANK2 ] float 
  4748 ;;  Aprime          2   24[BANK2 ] PTR struct MatrixStruct
  4749 ;;		 -> main@Aprime(18), 
  4750 ;;  Cprime          2   26[BANK2 ] PTR struct MatrixStruct
  4751 ;;		 -> main@Cprime(18), 
  4752 ;;  Eprime          2   28[BANK2 ] PTR struct MatrixStruct
  4753 ;;		 -> main@Eprime(18), 
  4754 ;;  Fprime          2   30[BANK2 ] PTR struct MatrixStruct
  4755 ;;		 -> main@Fprime(18), 
  4756 ;;  fk_             2   32[BANK2 ] PTR struct MatrixStruct
  4757 ;;		 -> main@fk_(18), 
  4758 ;;  dt              4   34[BANK2 ] float 
  4759 ;;  Cbat            4   38[BANK2 ] float 
  4760 ;;  Cc              4   42[BANK2 ] float 
  4761 ;;  Rc              4   46[BANK2 ] float 
  4762 ;;  Qk1             2   50[BANK2 ] PTR struct MatrixStruct
  4763 ;;		 -> main@Qk1(18), 
  4764 ;;  Aprime_trans    2   52[BANK2 ] PTR struct MatrixStruct
  4765 ;;		 -> main@Aprime_transpose(18), 
  4766 ;;  Eprime_trans    2   54[BANK2 ] PTR struct MatrixStruct
  4767 ;;		 -> main@Eprime_transpose(18), 
  4768 ;;  sub_mat_1       2   56[BANK2 ] PTR struct MatrixStruct
  4769 ;;		 -> main@sub_mat_1(18), 
  4770 ;;  sub_mat_2       2   58[BANK2 ] PTR struct MatrixStruct
  4771 ;;		 -> main@sub_mat_2(18), 
  4772 ;;  sub_mat_3       2   60[BANK2 ] PTR struct MatrixStruct
  4773 ;;		 -> main@sub_mat_3(18), 
  4774 ;;  xhat            2   62[BANK2 ] PTR struct MatrixStruct
  4775 ;;		 -> main@xhat(18), 
  4776 ;;  P               2   64[BANK2 ] PTR struct MatrixStruct
  4777 ;;		 -> main@P(18), 
  4778 ;;  Cprime_trans    2   66[BANK2 ] PTR struct MatrixStruct
  4779 ;;		 -> main@Cprime_transpose(18), 
  4780 ;;  Lk              2   68[BANK2 ] PTR struct MatrixStruct
  4781 ;;		 -> main@Lk(18), 
  4782 ;;  R0              4   70[BANK2 ] float 
  4783 ;;  xhatCorrecte    2   74[BANK2 ] PTR struct MatrixStruct
  4784 ;;		 -> main@xhatCorrected(18), 
  4785 ;;  PCorrected      2   76[BANK2 ] PTR struct MatrixStruct
  4786 ;;		 -> main@PCorrected(18), 
  4787 ;; Auto vars:     Size  Location     Type
  4788 ;;  combined_err    4  135[BANK0 ] float 
  4789 ;;  error_estima    4  131[BANK0 ] float 
  4790 ;;  temp_val        4  127[BANK0 ] float 
  4791 ;;  row             1  141[BANK0 ] unsigned char 
  4792 ;;  col             1  140[BANK0 ] unsigned char 
  4793 ;;  index           1  139[BANK0 ] unsigned char 
  4794 ;; Return value:  Size  Location     Type
  4795 ;;                  1    wreg      void 
  4796 ;; Registers used:
  4797 ;;		wreg, fsr2l, fsr2h, status,2, status,0, tblptrl, tblptrh, tblptru, prodl, prodh, cstack
  4798 ;; Tracked objects:
  4799 ;;		On entry : 0/0
  4800 ;;		On exit  : 0/0
  4801 ;;		Unchanged: 0/0
  4802 ;; Data sizes:     COMRAM   BANK0   BANK1   BANK2   BANK3   BANK4   BANK5   BANK6   BANK7   BANK8   BANK9  BANK10  BANK1
      +1  BANK12  BANK13  BANK14  BANK15
  4803 ;;      Params:         0       0       0      78       0       0       0       0       0       0       0       0       
      +0       0       0       0       0
  4804 ;;      Locals:         0      27       0       0       0       0       0       0       0       0       0       0       
      +0       0       0       0       0
  4805 ;;      Temps:          0       0       0       0       0       0       0       0       0       0       0       0       
      +0       0       0       0       0
  4806 ;;      Totals:         0      27       0      78       0       0       0       0       0       0       0       0       
      +0       0       0       0       0
  4807 ;;Total ram usage:      105 bytes
  4808 ;; Hardware stack levels used: 1
  4809 ;; Hardware stack levels required when called: 6
  4810 ;; This function calls:
  4811 ;;		___fladd
  4812 ;;		___flmul
  4813 ;;		___flsub
  4814 ;;		_fk
  4815 ;;		_hk
  4816 ;;		_mat_get
  4817 ;;		_mat_multiply
  4818 ;;		_mat_set
  4819 ;;		_powf
  4820 ;; This function is called by:
  4821 ;;		_main
  4822 ;; This function uses a non-reentrant model
  4823 ;;
  4824                           
  4825                           	psect	text23
  4826   002A92                     __ptext23:
  4827                           	callstack 0
  4828   002A92                     _EKF:
  4829                           	callstack 24
  4830   002A92                     
  4831                           ;main.c: 165: void EKF(Matrix* xhatk_1, Matrix* Pk_1, float I, float Ik_1, float V, floa
      +                          t Voc0,;main.c: 166:  float Rk, Matrix* Aprime, Matrix* Cprime, Matrix* Eprime, Matrix* 
      +                          Fprime,;main.c: 167:  Matrix* fk_, float dt, float Cbat, float Cc, float Rc, Matrix* Qk1
      +                          ,;main.c: 168:  Matrix* Aprime_transpose, Matrix* Eprime_transpose,;main.c: 169:  Matrix
      +                          * sub_mat_1, Matrix* sub_mat_2, Matrix* sub_mat_3, Matrix* xhat,;main.c: 170:  Matrix* P
      +                          , Matrix* Cprime_transpose, Matrix* Lk, float R0,;main.c: 171:  Matrix* xhatCorrected, M
      +                          atrix* PCorrected) {
  4832   002A92  C200  F0B3         	movff	EKF@xhatk_1,fk@xhatk_1
  4833   002A96  C201  F0B4         	movff	EKF@xhatk_1+1,fk@xhatk_1+1
  4834   002A9A  C204  F0B5         	movff	EKF@I,fk@I
  4835   002A9E  C205  F0B6         	movff	EKF@I+1,fk@I+1
  4836   002AA2  C206  F0B7         	movff	EKF@I+2,fk@I+2
  4837   002AA6  C207  F0B8         	movff	EKF@I+3,fk@I+3
  4838   002AAA  C222  F0B9         	movff	EKF@dt,fk@dt
  4839   002AAE  C223  F0BA         	movff	EKF@dt+1,fk@dt+1
  4840   002AB2  C224  F0BB         	movff	EKF@dt+2,fk@dt+2
  4841   002AB6  C225  F0BC         	movff	EKF@dt+3,fk@dt+3
  4842   002ABA  C226  F0BD         	movff	EKF@Cbat,fk@Cbat
  4843   002ABE  C227  F0BE         	movff	EKF@Cbat+1,fk@Cbat+1
  4844   002AC2  C228  F0BF         	movff	EKF@Cbat+2,fk@Cbat+2
  4845   002AC6  C229  F0C0         	movff	EKF@Cbat+3,fk@Cbat+3
  4846   002ACA  C22A  F0C1         	movff	EKF@Cc,fk@Cc
  4847   002ACE  C22B  F0C2         	movff	EKF@Cc+1,fk@Cc+1
  4848   002AD2  C22C  F0C3         	movff	EKF@Cc+2,fk@Cc+2
  4849   002AD6  C22D  F0C4         	movff	EKF@Cc+3,fk@Cc+3
  4850   002ADA  C22E  F0C5         	movff	EKF@Rc,fk@Rc
  4851   002ADE  C22F  F0C6         	movff	EKF@Rc+1,fk@Rc+1
  4852   002AE2  C230  F0C7         	movff	EKF@Rc+2,fk@Rc+2
  4853   002AE6  C231  F0C8         	movff	EKF@Rc+3,fk@Rc+3
  4854   002AEA  C220  F0C9         	movff	EKF@fk_,fk@fk_
  4855   002AEE  C221  F0CA         	movff	EKF@fk_+1,fk@fk_+1
  4856   002AF2  EC47  F028         	call	_fk	;wreg free
  4857   002AF6                     
  4858                           ;main.c: 177:     for (row = 1; row <= 2; row++) {
  4859   002AF6  0E01               	movlw	1
  4860   002AF8  0100               	movlb	0	; () banked
  4861   002AFA  6FED               	movwf	EKF@row& (0+255),b
  4862   002AFC                     l5662:
  4863                           
  4864                           ; BSR set to: 0
  4865                           ;main.c: 178:         mat_set(row, 1, mat_get(row, 1, fk_), xhat);
  4866   002AFC  0E01               	movlw	1
  4867   002AFE  6FA7               	movwf	mat_set@column& (0+255),b
  4868   002B00  0E01               	movlw	1
  4869   002B02  6E09               	movwf	mat_get@column^0,c
  4870   002B04  C220  F00A         	movff	EKF@fk_,mat_get@matrix
  4871   002B08  C221  F00B         	movff	EKF@fk_+1,mat_get@matrix+1
  4872   002B0C  51ED               	movf	EKF@row& (0+255),w,b
  4873   002B0E  EC6B  F02E         	call	_mat_get
  4874   002B12  C009  F0A8         	movff	?_mat_get,mat_set@element
  4875   002B16  C00A  F0A9         	movff	?_mat_get+1,mat_set@element+1
  4876   002B1A  C00B  F0AA         	movff	?_mat_get+2,mat_set@element+2
  4877   002B1E  C00C  F0AB         	movff	?_mat_get+3,mat_set@element+3
  4878   002B22  C23E  F0AC         	movff	EKF@xhat,mat_set@matrix
  4879   002B26  C23F  F0AD         	movff	EKF@xhat+1,mat_set@matrix+1
  4880   002B2A  0100               	movlb	0	; () banked
  4881   002B2C  51ED               	movf	EKF@row& (0+255),w,b
  4882   002B2E  EC30  F02E         	call	_mat_set
  4883   002B32                     
  4884                           ;main.c: 179:     }
  4885   002B32  0100               	movlb	0	; () banked
  4886   002B34  2BED               	incf	EKF@row& (0+255),f,b
  4887   002B36                     
  4888                           ; BSR set to: 0
  4889   002B36  0E02               	movlw	2
  4890   002B38  65ED               	cpfsgt	EKF@row& (0+255),b
  4891   002B3A  EFA1  F015         	goto	u5491
  4892   002B3E  EFA3  F015         	goto	u5490
  4893   002B42                     u5491:
  4894   002B42  EF7E  F015         	goto	l5662
  4895   002B46                     u5490:
  4896   002B46                     
  4897                           ; BSR set to: 0
  4898                           ;main.c: 183:  mat_multiply(Aprime, Pk_1, sub_mat_1);
  4899   002B46  C218  F0B3         	movff	EKF@Aprime,mat_multiply@matrixA
  4900   002B4A  C219  F0B4         	movff	EKF@Aprime+1,mat_multiply@matrixA+1
  4901   002B4E  C202  F0B5         	movff	EKF@Pk_1,mat_multiply@matrixB
  4902   002B52  C203  F0B6         	movff	EKF@Pk_1+1,mat_multiply@matrixB+1
  4903   002B56  C238  F0B7         	movff	EKF@sub_mat_1,mat_multiply@matrixC
  4904   002B5A  C239  F0B8         	movff	EKF@sub_mat_1+1,mat_multiply@matrixC+1
  4905   002B5E  EC3B  F02A         	call	_mat_multiply	;wreg free
  4906                           
  4907                           ;main.c: 184:  mat_multiply(sub_mat_1, Aprime_transpose, sub_mat_2);
  4908   002B62  C238  F0B3         	movff	EKF@sub_mat_1,mat_multiply@matrixA
  4909   002B66  C239  F0B4         	movff	EKF@sub_mat_1+1,mat_multiply@matrixA+1
  4910   002B6A  C234  F0B5         	movff	EKF@Aprime_transpose,mat_multiply@matrixB
  4911   002B6E  C235  F0B6         	movff	EKF@Aprime_transpose+1,mat_multiply@matrixB+1
  4912   002B72  C23A  F0B7         	movff	EKF@sub_mat_2,mat_multiply@matrixC
  4913   002B76  C23B  F0B8         	movff	EKF@sub_mat_2+1,mat_multiply@matrixC+1
  4914   002B7A  EC3B  F02A         	call	_mat_multiply	;wreg free
  4915                           
  4916                           ;main.c: 187:  mat_multiply(Eprime, Qk1, sub_mat_1);
  4917   002B7E  C21C  F0B3         	movff	EKF@Eprime,mat_multiply@matrixA
  4918   002B82  C21D  F0B4         	movff	EKF@Eprime+1,mat_multiply@matrixA+1
  4919   002B86  C232  F0B5         	movff	EKF@Qk1,mat_multiply@matrixB
  4920   002B8A  C233  F0B6         	movff	EKF@Qk1+1,mat_multiply@matrixB+1
  4921   002B8E  C238  F0B7         	movff	EKF@sub_mat_1,mat_multiply@matrixC
  4922   002B92  C239  F0B8         	movff	EKF@sub_mat_1+1,mat_multiply@matrixC+1
  4923   002B96  EC3B  F02A         	call	_mat_multiply	;wreg free
  4924                           
  4925                           ;main.c: 188:  mat_multiply(sub_mat_1, Eprime_transpose, sub_mat_3);
  4926   002B9A  C238  F0B3         	movff	EKF@sub_mat_1,mat_multiply@matrixA
  4927   002B9E  C239  F0B4         	movff	EKF@sub_mat_1+1,mat_multiply@matrixA+1
  4928   002BA2  C236  F0B5         	movff	EKF@Eprime_transpose,mat_multiply@matrixB
  4929   002BA6  C237  F0B6         	movff	EKF@Eprime_transpose+1,mat_multiply@matrixB+1
  4930   002BAA  C23C  F0B7         	movff	EKF@sub_mat_3,mat_multiply@matrixC
  4931   002BAE  C23D  F0B8         	movff	EKF@sub_mat_3+1,mat_multiply@matrixC+1
  4932   002BB2  EC3B  F02A         	call	_mat_multiply	;wreg free
  4933   002BB6                     
  4934                           ;main.c: 191:     for (row = 1; row <= 2; row++) {
  4935   002BB6  0E01               	movlw	1
  4936   002BB8  0100               	movlb	0	; () banked
  4937   002BBA  6FED               	movwf	EKF@row& (0+255),b
  4938   002BBC                     l5676:
  4939                           
  4940                           ; BSR set to: 0
  4941                           ;main.c: 192:   for (col = 1; col <= 2; col++) {
  4942   002BBC  0E01               	movlw	1
  4943   002BBE  6FEC               	movwf	EKF@col& (0+255),b
  4944   002BC0                     l5678:
  4945                           
  4946                           ; BSR set to: 0
  4947   002BC0  0E02               	movlw	2
  4948   002BC2  65EC               	cpfsgt	EKF@col& (0+255),b
  4949   002BC4  EFE6  F015         	goto	u5501
  4950   002BC8  EFE8  F015         	goto	u5500
  4951   002BCC                     u5501:
  4952   002BCC  EFEA  F015         	goto	l5682
  4953   002BD0                     u5500:
  4954   002BD0  EF25  F016         	goto	l5688
  4955   002BD4                     l5682:
  4956                           
  4957                           ; BSR set to: 0
  4958                           ;main.c: 193:             mat_set(row, col, mat_get(row, col, sub_mat_2) + mat_get(row, 
      +                          col, sub_mat_3), P);
  4959   002BD4  C0EC  F0A7         	movff	EKF@col,mat_set@column
  4960   002BD8  C23A  F00A         	movff	EKF@sub_mat_2,mat_get@matrix
  4961   002BDC  C23B  F00B         	movff	EKF@sub_mat_2+1,mat_get@matrix+1
  4962   002BE0  C0EC  F009         	movff	EKF@col,mat_get@column
  4963   002BE4  51ED               	movf	EKF@row& (0+255),w,b
  4964   002BE6  EC6B  F02E         	call	_mat_get
  4965   002BEA  C009  F02C         	movff	?_mat_get,___fladd@b
  4966   002BEE  C00A  F02D         	movff	?_mat_get+1,___fladd@b+1
  4967   002BF2  C00B  F02E         	movff	?_mat_get+2,___fladd@b+2
  4968   002BF6  C00C  F02F         	movff	?_mat_get+3,___fladd@b+3
  4969   002BFA  C23C  F00A         	movff	EKF@sub_mat_3,mat_get@matrix
  4970   002BFE  C23D  F00B         	movff	EKF@sub_mat_3+1,mat_get@matrix+1
  4971   002C02  C0EC  F009         	movff	EKF@col,mat_get@column
  4972   002C06  0100               	movlb	0	; () banked
  4973   002C08  51ED               	movf	EKF@row& (0+255),w,b
  4974   002C0A  EC6B  F02E         	call	_mat_get
  4975   002C0E  C009  F030         	movff	?_mat_get,___fladd@a
  4976   002C12  C00A  F031         	movff	?_mat_get+1,___fladd@a+1
  4977   002C16  C00B  F032         	movff	?_mat_get+2,___fladd@a+2
  4978   002C1A  C00C  F033         	movff	?_mat_get+3,___fladd@a+3
  4979   002C1E  ECD8  F020         	call	___fladd	;wreg free
  4980   002C22  C02C  F0A8         	movff	?___fladd,mat_set@element
  4981   002C26  C02D  F0A9         	movff	?___fladd+1,mat_set@element+1
  4982   002C2A  C02E  F0AA         	movff	?___fladd+2,mat_set@element+2
  4983   002C2E  C02F  F0AB         	movff	?___fladd+3,mat_set@element+3
  4984   002C32  C240  F0AC         	movff	EKF@P,mat_set@matrix
  4985   002C36  C241  F0AD         	movff	EKF@P+1,mat_set@matrix+1
  4986   002C3A  0100               	movlb	0	; () banked
  4987   002C3C  51ED               	movf	EKF@row& (0+255),w,b
  4988   002C3E  EC30  F02E         	call	_mat_set
  4989   002C42                     
  4990                           ;main.c: 194:   }
  4991   002C42  0100               	movlb	0	; () banked
  4992   002C44  2BEC               	incf	EKF@col& (0+255),f,b
  4993   002C46  EFE0  F015         	goto	l5678
  4994   002C4A                     l5688:
  4995                           
  4996                           ; BSR set to: 0
  4997                           ;main.c: 195:  }
  4998   002C4A  2BED               	incf	EKF@row& (0+255),f,b
  4999   002C4C                     
  5000                           ; BSR set to: 0
  5001   002C4C  0E02               	movlw	2
  5002   002C4E  65ED               	cpfsgt	EKF@row& (0+255),b
  5003   002C50  EF2C  F016         	goto	u5511
  5004   002C54  EF2E  F016         	goto	u5510
  5005   002C58                     u5511:
  5006   002C58  EFDE  F015         	goto	l5676
  5007   002C5C                     u5510:
  5008   002C5C                     
  5009                           ; BSR set to: 0
  5010                           ;main.c: 199:  mat_multiply(P, Cprime_transpose, sub_mat_1);
  5011   002C5C  C240  F0B3         	movff	EKF@P,mat_multiply@matrixA
  5012   002C60  C241  F0B4         	movff	EKF@P+1,mat_multiply@matrixA+1
  5013   002C64  C242  F0B5         	movff	EKF@Cprime_transpose,mat_multiply@matrixB
  5014   002C68  C243  F0B6         	movff	EKF@Cprime_transpose+1,mat_multiply@matrixB+1
  5015   002C6C  C238  F0B7         	movff	EKF@sub_mat_1,mat_multiply@matrixC
  5016   002C70  C239  F0B8         	movff	EKF@sub_mat_1+1,mat_multiply@matrixC+1
  5017   002C74  EC3B  F02A         	call	_mat_multiply	;wreg free
  5018   002C78                     
  5019                           ;main.c: 200:  float error_estimate = 0.0, combined_error = 0.0;
  5020   002C78  0E00               	movlw	0
  5021   002C7A  0100               	movlb	0	; () banked
  5022   002C7C  6FE3               	movwf	EKF@error_estimate& (0+255),b
  5023   002C7E  0E00               	movlw	0
  5024   002C80  6FE4               	movwf	(EKF@error_estimate+1)& (0+255),b
  5025   002C82  0E00               	movlw	0
  5026   002C84  6FE5               	movwf	(EKF@error_estimate+2)& (0+255),b
  5027   002C86  0E00               	movlw	0
  5028   002C88  6FE6               	movwf	(EKF@error_estimate+3)& (0+255),b
  5029   002C8A                     
  5030                           ; BSR set to: 0
  5031   002C8A  0E00               	movlw	0
  5032   002C8C  6FE7               	movwf	EKF@combined_error& (0+255),b
  5033   002C8E  0E00               	movlw	0
  5034   002C90  6FE8               	movwf	(EKF@combined_error+1)& (0+255),b
  5035   002C92  0E00               	movlw	0
  5036   002C94  6FE9               	movwf	(EKF@combined_error+2)& (0+255),b
  5037   002C96  0E00               	movlw	0
  5038   002C98  6FEA               	movwf	(EKF@combined_error+3)& (0+255),b
  5039   002C9A                     
  5040                           ; BSR set to: 0
  5041                           ;main.c: 201:     for (row = 1; row <= 2; row++) {
  5042   002C9A  0E01               	movlw	1
  5043   002C9C  6FED               	movwf	EKF@row& (0+255),b
  5044   002C9E                     l5704:
  5045                           
  5046                           ; BSR set to: 0
  5047                           ;main.c: 202:         error_estimate += mat_get(row, 1, sub_mat_1) * mat_get(row, 1, Cpr
      +                          ime);
  5048   002C9E  C0E3  F02C         	movff	EKF@error_estimate,___fladd@b
  5049   002CA2  C0E4  F02D         	movff	EKF@error_estimate+1,___fladd@b+1
  5050   002CA6  C0E5  F02E         	movff	EKF@error_estimate+2,___fladd@b+2
  5051   002CAA  C0E6  F02F         	movff	EKF@error_estimate+3,___fladd@b+3
  5052   002CAE  C21A  F00A         	movff	EKF@Cprime,mat_get@matrix
  5053   002CB2  C21B  F00B         	movff	EKF@Cprime+1,mat_get@matrix+1
  5054   002CB6  0E01               	movlw	1
  5055   002CB8  6E09               	movwf	mat_get@column^0,c
  5056   002CBA  51ED               	movf	EKF@row& (0+255),w,b
  5057   002CBC  EC6B  F02E         	call	_mat_get
  5058   002CC0  C009  F017         	movff	?_mat_get,___flmul@a
  5059   002CC4  C00A  F018         	movff	?_mat_get+1,___flmul@a+1
  5060   002CC8  C00B  F019         	movff	?_mat_get+2,___flmul@a+2
  5061   002CCC  C00C  F01A         	movff	?_mat_get+3,___flmul@a+3
  5062   002CD0  C238  F00A         	movff	EKF@sub_mat_1,mat_get@matrix
  5063   002CD4  C239  F00B         	movff	EKF@sub_mat_1+1,mat_get@matrix+1
  5064   002CD8  0E01               	movlw	1
  5065   002CDA  6E09               	movwf	mat_get@column^0,c
  5066   002CDC  0100               	movlb	0	; () banked
  5067   002CDE  51ED               	movf	EKF@row& (0+255),w,b
  5068   002CE0  EC6B  F02E         	call	_mat_get
  5069   002CE4  C009  F013         	movff	?_mat_get,___flmul@b
  5070   002CE8  C00A  F014         	movff	?_mat_get+1,___flmul@b+1
  5071   002CEC  C00B  F015         	movff	?_mat_get+2,___flmul@b+2
  5072   002CF0  C00C  F016         	movff	?_mat_get+3,___flmul@b+3
  5073   002CF4  EC38  F023         	call	___flmul	;wreg free
  5074   002CF8  C013  F030         	movff	?___flmul,___fladd@a
  5075   002CFC  C014  F031         	movff	?___flmul+1,___fladd@a+1
  5076   002D00  C015  F032         	movff	?___flmul+2,___fladd@a+2
  5077   002D04  C016  F033         	movff	?___flmul+3,___fladd@a+3
  5078   002D08  ECD8  F020         	call	___fladd	;wreg free
  5079   002D0C  C02C  F0E3         	movff	?___fladd,EKF@error_estimate
  5080   002D10  C02D  F0E4         	movff	?___fladd+1,EKF@error_estimate+1
  5081   002D14  C02E  F0E5         	movff	?___fladd+2,EKF@error_estimate+2
  5082   002D18  C02F  F0E6         	movff	?___fladd+3,EKF@error_estimate+3
  5083   002D1C                     
  5084                           ;main.c: 203:  }
  5085   002D1C  0100               	movlb	0	; () banked
  5086   002D1E  2BED               	incf	EKF@row& (0+255),f,b
  5087   002D20                     
  5088                           ; BSR set to: 0
  5089   002D20  0E02               	movlw	2
  5090   002D22  65ED               	cpfsgt	EKF@row& (0+255),b
  5091   002D24  EF96  F016         	goto	u5521
  5092   002D28  EF98  F016         	goto	u5520
  5093   002D2C                     u5521:
  5094   002D2C  EF4F  F016         	goto	l5704
  5095   002D30                     u5520:
  5096   002D30                     
  5097                           ; BSR set to: 0
  5098                           ;main.c: 205:  combined_error = error_estimate + Rk;
  5099   002D30  C0E3  F02C         	movff	EKF@error_estimate,___fladd@b
  5100   002D34  C0E4  F02D         	movff	EKF@error_estimate+1,___fladd@b+1
  5101   002D38  C0E5  F02E         	movff	EKF@error_estimate+2,___fladd@b+2
  5102   002D3C  C0E6  F02F         	movff	EKF@error_estimate+3,___fladd@b+3
  5103   002D40  C214  F030         	movff	EKF@Rk,___fladd@a
  5104   002D44  C215  F031         	movff	EKF@Rk+1,___fladd@a+1
  5105   002D48  C216  F032         	movff	EKF@Rk+2,___fladd@a+2
  5106   002D4C  C217  F033         	movff	EKF@Rk+3,___fladd@a+3
  5107   002D50  ECD8  F020         	call	___fladd	;wreg free
  5108   002D54  C02C  F0E7         	movff	?___fladd,EKF@combined_error
  5109   002D58  C02D  F0E8         	movff	?___fladd+1,EKF@combined_error+1
  5110   002D5C  C02E  F0E9         	movff	?___fladd+2,EKF@combined_error+2
  5111   002D60  C02F  F0EA         	movff	?___fladd+3,EKF@combined_error+3
  5112   002D64                     
  5113                           ;main.c: 206:  combined_error = powf(combined_error,(-1));
  5114   002D64  C0E7  F08D         	movff	EKF@combined_error,powf@x
  5115   002D68  C0E8  F08E         	movff	EKF@combined_error+1,powf@x+1
  5116   002D6C  C0E9  F08F         	movff	EKF@combined_error+2,powf@x+2
  5117   002D70  C0EA  F090         	movff	EKF@combined_error+3,powf@x+3
  5118   002D74  0E00               	movlw	0
  5119   002D76  0100               	movlb	0	; () banked
  5120   002D78  6F91               	movwf	powf@y& (0+255),b
  5121   002D7A  0E00               	movlw	0
  5122   002D7C  6F92               	movwf	(powf@y+1)& (0+255),b
  5123   002D7E  0E80               	movlw	128
  5124   002D80  6F93               	movwf	(powf@y+2)& (0+255),b
  5125   002D82  0EBF               	movlw	191
  5126   002D84  6F94               	movwf	(powf@y+3)& (0+255),b
  5127   002D86  EC0F  F000         	call	_powf	;wreg free
  5128   002D8A  C08D  F0E7         	movff	?_powf,EKF@combined_error
  5129   002D8E  C08E  F0E8         	movff	?_powf+1,EKF@combined_error+1
  5130   002D92  C08F  F0E9         	movff	?_powf+2,EKF@combined_error+2
  5131   002D96  C090  F0EA         	movff	?_powf+3,EKF@combined_error+3
  5132   002D9A                     
  5133                           ;main.c: 209:     for (row = 1; row <= 2; row++) {
  5134   002D9A  0E01               	movlw	1
  5135   002D9C  0100               	movlb	0	; () banked
  5136   002D9E  6FED               	movwf	EKF@row& (0+255),b
  5137   002DA0                     l5720:
  5138                           
  5139                           ; BSR set to: 0
  5140                           ;main.c: 210:   mat_set(row, 1, mat_get(row, 1, sub_mat_1) * combined_error, Lk);
  5141   002DA0  0E01               	movlw	1
  5142   002DA2  6FA7               	movwf	mat_set@column& (0+255),b
  5143   002DA4  C238  F00A         	movff	EKF@sub_mat_1,mat_get@matrix
  5144   002DA8  C239  F00B         	movff	EKF@sub_mat_1+1,mat_get@matrix+1
  5145   002DAC  0E01               	movlw	1
  5146   002DAE  6E09               	movwf	mat_get@column^0,c
  5147   002DB0  51ED               	movf	EKF@row& (0+255),w,b
  5148   002DB2  EC6B  F02E         	call	_mat_get
  5149   002DB6  C009  F013         	movff	?_mat_get,___flmul@b
  5150   002DBA  C00A  F014         	movff	?_mat_get+1,___flmul@b+1
  5151   002DBE  C00B  F015         	movff	?_mat_get+2,___flmul@b+2
  5152   002DC2  C00C  F016         	movff	?_mat_get+3,___flmul@b+3
  5153   002DC6  C0E7  F017         	movff	EKF@combined_error,___flmul@a
  5154   002DCA  C0E8  F018         	movff	EKF@combined_error+1,___flmul@a+1
  5155   002DCE  C0E9  F019         	movff	EKF@combined_error+2,___flmul@a+2
  5156   002DD2  C0EA  F01A         	movff	EKF@combined_error+3,___flmul@a+3
  5157   002DD6  EC38  F023         	call	___flmul	;wreg free
  5158   002DDA  C013  F0A8         	movff	?___flmul,mat_set@element
  5159   002DDE  C014  F0A9         	movff	?___flmul+1,mat_set@element+1
  5160   002DE2  C015  F0AA         	movff	?___flmul+2,mat_set@element+2
  5161   002DE6  C016  F0AB         	movff	?___flmul+3,mat_set@element+3
  5162   002DEA  C244  F0AC         	movff	EKF@Lk,mat_set@matrix
  5163   002DEE  C245  F0AD         	movff	EKF@Lk+1,mat_set@matrix+1
  5164   002DF2  0100               	movlb	0	; () banked
  5165   002DF4  51ED               	movf	EKF@row& (0+255),w,b
  5166   002DF6  EC30  F02E         	call	_mat_set
  5167   002DFA                     
  5168                           ;main.c: 211:  }
  5169   002DFA  0100               	movlb	0	; () banked
  5170   002DFC  2BED               	incf	EKF@row& (0+255),f,b
  5171   002DFE                     
  5172                           ; BSR set to: 0
  5173   002DFE  0E02               	movlw	2
  5174   002E00  65ED               	cpfsgt	EKF@row& (0+255),b
  5175   002E02  EF05  F017         	goto	u5531
  5176   002E06  EF07  F017         	goto	u5530
  5177   002E0A                     u5531:
  5178   002E0A  EFD0  F016         	goto	l5720
  5179   002E0E                     u5530:
  5180   002E0E                     
  5181                           ; BSR set to: 0
  5182                           ;main.c: 215:  float temp_val = 0.0;
  5183   002E0E  0E00               	movlw	0
  5184   002E10  6FDF               	movwf	EKF@temp_val& (0+255),b
  5185   002E12  0E00               	movlw	0
  5186   002E14  6FE0               	movwf	(EKF@temp_val+1)& (0+255),b
  5187   002E16  0E00               	movlw	0
  5188   002E18  6FE1               	movwf	(EKF@temp_val+2)& (0+255),b
  5189   002E1A  0E00               	movlw	0
  5190   002E1C  6FE2               	movwf	(EKF@temp_val+3)& (0+255),b
  5191   002E1E                     
  5192                           ; BSR set to: 0
  5193                           ;main.c: 216:     temp_val = (V + mat_get(2, 1, xhat)) - hk(100 * mat_get(1, 1, xhat), I
      +                          , Voc0, R0);
  5194   002E1E  0E00               	movlw	0
  5195   002E20  6E17               	movwf	___flmul@a^0,c
  5196   002E22  0E00               	movlw	0
  5197   002E24  6E18               	movwf	(___flmul@a+1)^0,c
  5198   002E26  0EC8               	movlw	200
  5199   002E28  6E19               	movwf	(___flmul@a+2)^0,c
  5200   002E2A  0E42               	movlw	66
  5201   002E2C  6E1A               	movwf	(___flmul@a+3)^0,c
  5202   002E2E  C23E  F00A         	movff	EKF@xhat,mat_get@matrix
  5203   002E32  C23F  F00B         	movff	EKF@xhat+1,mat_get@matrix+1
  5204   002E36  0E01               	movlw	1
  5205   002E38  6E09               	movwf	mat_get@column^0,c
  5206   002E3A  0E01               	movlw	1
  5207   002E3C  EC6B  F02E         	call	_mat_get
  5208   002E40  C009  F013         	movff	?_mat_get,___flmul@b
  5209   002E44  C00A  F014         	movff	?_mat_get+1,___flmul@b+1
  5210   002E48  C00B  F015         	movff	?_mat_get+2,___flmul@b+2
  5211   002E4C  C00C  F016         	movff	?_mat_get+3,___flmul@b+3
  5212   002E50  EC38  F023         	call	___flmul	;wreg free
  5213   002E54  C013  F0D3         	movff	?___flmul,_EKF$1731
  5214   002E58  C014  F0D4         	movff	?___flmul+1,_EKF$1731+1
  5215   002E5C  C015  F0D5         	movff	?___flmul+2,_EKF$1731+2
  5216   002E60  C016  F0D6         	movff	?___flmul+3,_EKF$1731+3
  5217   002E64                     
  5218                           ;main.c: 216:     temp_val = (V + mat_get(2, 1, xhat)) - hk(100 * mat_get(1, 1, xhat), I
      +                          , Voc0, R0);
  5219   002E64  C20C  F030         	movff	EKF@V,___fladd@a
  5220   002E68  C20D  F031         	movff	EKF@V+1,___fladd@a+1
  5221   002E6C  C20E  F032         	movff	EKF@V+2,___fladd@a+2
  5222   002E70  C20F  F033         	movff	EKF@V+3,___fladd@a+3
  5223   002E74  C23E  F00A         	movff	EKF@xhat,mat_get@matrix
  5224   002E78  C23F  F00B         	movff	EKF@xhat+1,mat_get@matrix+1
  5225   002E7C  0E01               	movlw	1
  5226   002E7E  6E09               	movwf	mat_get@column^0,c
  5227   002E80  0E02               	movlw	2
  5228   002E82  EC6B  F02E         	call	_mat_get
  5229   002E86  C009  F02C         	movff	?_mat_get,___fladd@b
  5230   002E8A  C00A  F02D         	movff	?_mat_get+1,___fladd@b+1
  5231   002E8E  C00B  F02E         	movff	?_mat_get+2,___fladd@b+2
  5232   002E92  C00C  F02F         	movff	?_mat_get+3,___fladd@b+3
  5233   002E96  ECD8  F020         	call	___fladd	;wreg free
  5234   002E9A  C02C  F0D7         	movff	?___fladd,_EKF$1732
  5235   002E9E  C02D  F0D8         	movff	?___fladd+1,_EKF$1732+1
  5236   002EA2  C02E  F0D9         	movff	?___fladd+2,_EKF$1732+2
  5237   002EA6  C02F  F0DA         	movff	?___fladd+3,_EKF$1732+3
  5238   002EAA                     
  5239                           ;main.c: 216:     temp_val = (V + mat_get(2, 1, xhat)) - hk(100 * mat_get(1, 1, xhat), I
      +                          , Voc0, R0);
  5240   002EAA  C246  F07D         	movff	EKF@R0,hk@R0
  5241   002EAE  C247  F07E         	movff	EKF@R0+1,hk@R0+1
  5242   002EB2  C248  F07F         	movff	EKF@R0+2,hk@R0+2
  5243   002EB6  C249  F080         	movff	EKF@R0+3,hk@R0+3
  5244   002EBA  C210  F079         	movff	EKF@Voc0,hk@Voc0
  5245   002EBE  C211  F07A         	movff	EKF@Voc0+1,hk@Voc0+1
  5246   002EC2  C212  F07B         	movff	EKF@Voc0+2,hk@Voc0+2
  5247   002EC6  C213  F07C         	movff	EKF@Voc0+3,hk@Voc0+3
  5248   002ECA  C204  F075         	movff	EKF@I,hk@I
  5249   002ECE  C205  F076         	movff	EKF@I+1,hk@I+1
  5250   002ED2  C206  F077         	movff	EKF@I+2,hk@I+2
  5251   002ED6  C207  F078         	movff	EKF@I+3,hk@I+3
  5252   002EDA  C0D3  F071         	movff	_EKF$1731,hk@SOC_val
  5253   002EDE  C0D4  F072         	movff	_EKF$1731+1,hk@SOC_val+1
  5254   002EE2  C0D5  F073         	movff	_EKF$1731+2,hk@SOC_val+2
  5255   002EE6  C0D6  F074         	movff	_EKF$1731+3,hk@SOC_val+3
  5256   002EEA  ECA4  F02E         	call	_hk	;wreg free
  5257   002EEE  C071  F0DB         	movff	?_hk,_EKF$1733
  5258   002EF2  C072  F0DC         	movff	?_hk+1,_EKF$1733+1
  5259   002EF6  C073  F0DD         	movff	?_hk+2,_EKF$1733+2
  5260   002EFA  C074  F0DE         	movff	?_hk+3,_EKF$1733+3
  5261   002EFE                     
  5262                           ;main.c: 216:     temp_val = (V + mat_get(2, 1, xhat)) - hk(100 * mat_get(1, 1, xhat), I
      +                          , Voc0, R0);
  5263   002EFE  C0D7  F046         	movff	_EKF$1732,___flsub@b
  5264   002F02  C0D8  F047         	movff	_EKF$1732+1,___flsub@b+1
  5265   002F06  C0D9  F048         	movff	_EKF$1732+2,___flsub@b+2
  5266   002F0A  C0DA  F049         	movff	_EKF$1732+3,___flsub@b+3
  5267   002F0E  C0DB  F04A         	movff	_EKF$1733,___flsub@a
  5268   002F12  C0DC  F04B         	movff	_EKF$1733+1,___flsub@a+1
  5269   002F16  C0DD  F04C         	movff	_EKF$1733+2,___flsub@a+2
  5270   002F1A  C0DE  F04D         	movff	_EKF$1733+3,___flsub@a+3
  5271   002F1E  ECB3  F02F         	call	___flsub	;wreg free
  5272   002F22  C046  F0DF         	movff	?___flsub,EKF@temp_val
  5273   002F26  C047  F0E0         	movff	?___flsub+1,EKF@temp_val+1
  5274   002F2A  C048  F0E1         	movff	?___flsub+2,EKF@temp_val+2
  5275   002F2E  C049  F0E2         	movff	?___flsub+3,EKF@temp_val+3
  5276   002F32                     
  5277                           ;main.c: 219:  for (row = 1; row <= 2; row++) {
  5278   002F32  0E01               	movlw	1
  5279   002F34  0100               	movlb	0	; () banked
  5280   002F36  6FED               	movwf	EKF@row& (0+255),b
  5281   002F38                     l5742:
  5282                           
  5283                           ; BSR set to: 0
  5284                           ;main.c: 220:   mat_set(row, 1, mat_get(row, 1, Lk) * temp_val, sub_mat_1);
  5285   002F38  0E01               	movlw	1
  5286   002F3A  6FA7               	movwf	mat_set@column& (0+255),b
  5287   002F3C  C244  F00A         	movff	EKF@Lk,mat_get@matrix
  5288   002F40  C245  F00B         	movff	EKF@Lk+1,mat_get@matrix+1
  5289   002F44  0E01               	movlw	1
  5290   002F46  6E09               	movwf	mat_get@column^0,c
  5291   002F48  51ED               	movf	EKF@row& (0+255),w,b
  5292   002F4A  EC6B  F02E         	call	_mat_get
  5293   002F4E  C009  F013         	movff	?_mat_get,___flmul@b
  5294   002F52  C00A  F014         	movff	?_mat_get+1,___flmul@b+1
  5295   002F56  C00B  F015         	movff	?_mat_get+2,___flmul@b+2
  5296   002F5A  C00C  F016         	movff	?_mat_get+3,___flmul@b+3
  5297   002F5E  C0DF  F017         	movff	EKF@temp_val,___flmul@a
  5298   002F62  C0E0  F018         	movff	EKF@temp_val+1,___flmul@a+1
  5299   002F66  C0E1  F019         	movff	EKF@temp_val+2,___flmul@a+2
  5300   002F6A  C0E2  F01A         	movff	EKF@temp_val+3,___flmul@a+3
  5301   002F6E  EC38  F023         	call	___flmul	;wreg free
  5302   002F72  C013  F0A8         	movff	?___flmul,mat_set@element
  5303   002F76  C014  F0A9         	movff	?___flmul+1,mat_set@element+1
  5304   002F7A  C015  F0AA         	movff	?___flmul+2,mat_set@element+2
  5305   002F7E  C016  F0AB         	movff	?___flmul+3,mat_set@element+3
  5306   002F82  C238  F0AC         	movff	EKF@sub_mat_1,mat_set@matrix
  5307   002F86  C239  F0AD         	movff	EKF@sub_mat_1+1,mat_set@matrix+1
  5308   002F8A  0100               	movlb	0	; () banked
  5309   002F8C  51ED               	movf	EKF@row& (0+255),w,b
  5310   002F8E  EC30  F02E         	call	_mat_set
  5311                           
  5312                           ;main.c: 221:   mat_set(row, 1, mat_get(row, 1, xhat) + mat_get(row, 1, sub_mat_1), xhat
      +                          Corrected);
  5313   002F92  0E01               	movlw	1
  5314   002F94  0100               	movlb	0	; () banked
  5315   002F96  6FA7               	movwf	mat_set@column& (0+255),b
  5316   002F98  C23E  F00A         	movff	EKF@xhat,mat_get@matrix
  5317   002F9C  C23F  F00B         	movff	EKF@xhat+1,mat_get@matrix+1
  5318   002FA0  0E01               	movlw	1
  5319   002FA2  6E09               	movwf	mat_get@column^0,c
  5320   002FA4  51ED               	movf	EKF@row& (0+255),w,b
  5321   002FA6  EC6B  F02E         	call	_mat_get
  5322   002FAA  C009  F02C         	movff	?_mat_get,___fladd@b
  5323   002FAE  C00A  F02D         	movff	?_mat_get+1,___fladd@b+1
  5324   002FB2  C00B  F02E         	movff	?_mat_get+2,___fladd@b+2
  5325   002FB6  C00C  F02F         	movff	?_mat_get+3,___fladd@b+3
  5326   002FBA  C238  F00A         	movff	EKF@sub_mat_1,mat_get@matrix
  5327   002FBE  C239  F00B         	movff	EKF@sub_mat_1+1,mat_get@matrix+1
  5328   002FC2  0E01               	movlw	1
  5329   002FC4  6E09               	movwf	mat_get@column^0,c
  5330   002FC6  0100               	movlb	0	; () banked
  5331   002FC8  51ED               	movf	EKF@row& (0+255),w,b
  5332   002FCA  EC6B  F02E         	call	_mat_get
  5333   002FCE  C009  F030         	movff	?_mat_get,___fladd@a
  5334   002FD2  C00A  F031         	movff	?_mat_get+1,___fladd@a+1
  5335   002FD6  C00B  F032         	movff	?_mat_get+2,___fladd@a+2
  5336   002FDA  C00C  F033         	movff	?_mat_get+3,___fladd@a+3
  5337   002FDE  ECD8  F020         	call	___fladd	;wreg free
  5338   002FE2  C02C  F0A8         	movff	?___fladd,mat_set@element
  5339   002FE6  C02D  F0A9         	movff	?___fladd+1,mat_set@element+1
  5340   002FEA  C02E  F0AA         	movff	?___fladd+2,mat_set@element+2
  5341   002FEE  C02F  F0AB         	movff	?___fladd+3,mat_set@element+3
  5342   002FF2  C24A  F0AC         	movff	EKF@xhatCorrected,mat_set@matrix
  5343   002FF6  C24B  F0AD         	movff	EKF@xhatCorrected+1,mat_set@matrix+1
  5344   002FFA  0100               	movlb	0	; () banked
  5345   002FFC  51ED               	movf	EKF@row& (0+255),w,b
  5346   002FFE  EC30  F02E         	call	_mat_set
  5347   003002                     
  5348                           ;main.c: 222:  }
  5349   003002  0100               	movlb	0	; () banked
  5350   003004  2BED               	incf	EKF@row& (0+255),f,b
  5351   003006                     
  5352                           ; BSR set to: 0
  5353   003006  0E02               	movlw	2
  5354   003008  65ED               	cpfsgt	EKF@row& (0+255),b
  5355   00300A  EF09  F018         	goto	u5541
  5356   00300E  EF0B  F018         	goto	u5540
  5357   003012                     u5541:
  5358   003012  EF9C  F017         	goto	l5742
  5359   003016                     u5540:
  5360   003016                     
  5361                           ; BSR set to: 0
  5362                           ;main.c: 226:     for (row = 1; row <= 2; row++) {
  5363   003016  0E01               	movlw	1
  5364   003018  6FED               	movwf	EKF@row& (0+255),b
  5365   00301A                     l5754:
  5366                           
  5367                           ; BSR set to: 0
  5368                           ;main.c: 227:   for (index = 1; index <= 2; index++) {
  5369   00301A  0E01               	movlw	1
  5370   00301C  6FEB               	movwf	EKF@index& (0+255),b
  5371   00301E                     l5756:
  5372                           
  5373                           ; BSR set to: 0
  5374   00301E  0E02               	movlw	2
  5375   003020  65EB               	cpfsgt	EKF@index& (0+255),b
  5376   003022  EF15  F018         	goto	u5551
  5377   003026  EF17  F018         	goto	u5550
  5378   00302A                     u5551:
  5379   00302A  EF19  F018         	goto	l5760
  5380   00302E                     u5550:
  5381   00302E  EF54  F018         	goto	l5766
  5382   003032                     l5760:
  5383                           
  5384                           ; BSR set to: 0
  5385                           ;main.c: 228:    mat_set(row, index, mat_get(row, 1, Lk) * mat_get(index, 1, Cprime), su
      +                          b_mat_1);
  5386   003032  C0EB  F0A7         	movff	EKF@index,mat_set@column
  5387   003036  C244  F00A         	movff	EKF@Lk,mat_get@matrix
  5388   00303A  C245  F00B         	movff	EKF@Lk+1,mat_get@matrix+1
  5389   00303E  0E01               	movlw	1
  5390   003040  6E09               	movwf	mat_get@column^0,c
  5391   003042  51ED               	movf	EKF@row& (0+255),w,b
  5392   003044  EC6B  F02E         	call	_mat_get
  5393   003048  C009  F013         	movff	?_mat_get,___flmul@b
  5394   00304C  C00A  F014         	movff	?_mat_get+1,___flmul@b+1
  5395   003050  C00B  F015         	movff	?_mat_get+2,___flmul@b+2
  5396   003054  C00C  F016         	movff	?_mat_get+3,___flmul@b+3
  5397   003058  C21A  F00A         	movff	EKF@Cprime,mat_get@matrix
  5398   00305C  C21B  F00B         	movff	EKF@Cprime+1,mat_get@matrix+1
  5399   003060  0E01               	movlw	1
  5400   003062  6E09               	movwf	mat_get@column^0,c
  5401   003064  0100               	movlb	0	; () banked
  5402   003066  51EB               	movf	EKF@index& (0+255),w,b
  5403   003068  EC6B  F02E         	call	_mat_get
  5404   00306C  C009  F017         	movff	?_mat_get,___flmul@a
  5405   003070  C00A  F018         	movff	?_mat_get+1,___flmul@a+1
  5406   003074  C00B  F019         	movff	?_mat_get+2,___flmul@a+2
  5407   003078  C00C  F01A         	movff	?_mat_get+3,___flmul@a+3
  5408   00307C  EC38  F023         	call	___flmul	;wreg free
  5409   003080  C013  F0A8         	movff	?___flmul,mat_set@element
  5410   003084  C014  F0A9         	movff	?___flmul+1,mat_set@element+1
  5411   003088  C015  F0AA         	movff	?___flmul+2,mat_set@element+2
  5412   00308C  C016  F0AB         	movff	?___flmul+3,mat_set@element+3
  5413   003090  C238  F0AC         	movff	EKF@sub_mat_1,mat_set@matrix
  5414   003094  C239  F0AD         	movff	EKF@sub_mat_1+1,mat_set@matrix+1
  5415   003098  0100               	movlb	0	; () banked
  5416   00309A  51ED               	movf	EKF@row& (0+255),w,b
  5417   00309C  EC30  F02E         	call	_mat_set
  5418   0030A0                     
  5419                           ;main.c: 229:   }
  5420   0030A0  0100               	movlb	0	; () banked
  5421   0030A2  2BEB               	incf	EKF@index& (0+255),f,b
  5422   0030A4  EF0F  F018         	goto	l5756
  5423   0030A8                     l5766:
  5424                           
  5425                           ; BSR set to: 0
  5426                           ;main.c: 230:  }
  5427   0030A8  2BED               	incf	EKF@row& (0+255),f,b
  5428   0030AA                     
  5429                           ; BSR set to: 0
  5430   0030AA  0E02               	movlw	2
  5431   0030AC  65ED               	cpfsgt	EKF@row& (0+255),b
  5432   0030AE  EF5B  F018         	goto	u5561
  5433   0030B2  EF5D  F018         	goto	u5560
  5434   0030B6                     u5561:
  5435   0030B6  EF0D  F018         	goto	l5754
  5436   0030BA                     u5560:
  5437   0030BA                     
  5438                           ; BSR set to: 0
  5439                           ;main.c: 232:  mat_multiply(sub_mat_1, P, sub_mat_2);
  5440   0030BA  C238  F0B3         	movff	EKF@sub_mat_1,mat_multiply@matrixA
  5441   0030BE  C239  F0B4         	movff	EKF@sub_mat_1+1,mat_multiply@matrixA+1
  5442   0030C2  C240  F0B5         	movff	EKF@P,mat_multiply@matrixB
  5443   0030C6  C241  F0B6         	movff	EKF@P+1,mat_multiply@matrixB+1
  5444   0030CA  C23A  F0B7         	movff	EKF@sub_mat_2,mat_multiply@matrixC
  5445   0030CE  C23B  F0B8         	movff	EKF@sub_mat_2+1,mat_multiply@matrixC+1
  5446   0030D2  EC3B  F02A         	call	_mat_multiply	;wreg free
  5447   0030D6                     
  5448                           ;main.c: 235:     for (row = 1; row <= 2; row++) {
  5449   0030D6  0E01               	movlw	1
  5450   0030D8  0100               	movlb	0	; () banked
  5451   0030DA  6FED               	movwf	EKF@row& (0+255),b
  5452   0030DC                     l5778:
  5453                           
  5454                           ; BSR set to: 0
  5455                           ;main.c: 236:   for (col = 1; col <= 2; col++) {
  5456   0030DC  0E01               	movlw	1
  5457   0030DE  6FEC               	movwf	EKF@col& (0+255),b
  5458   0030E0                     l5780:
  5459                           
  5460                           ; BSR set to: 0
  5461   0030E0  0E02               	movlw	2
  5462   0030E2  65EC               	cpfsgt	EKF@col& (0+255),b
  5463   0030E4  EF76  F018         	goto	u5571
  5464   0030E8  EF78  F018         	goto	u5570
  5465   0030EC                     u5571:
  5466   0030EC  EF7A  F018         	goto	l5784
  5467   0030F0                     u5570:
  5468   0030F0  EFB5  F018         	goto	l5790
  5469   0030F4                     l5784:
  5470                           
  5471                           ; BSR set to: 0
  5472                           ;main.c: 237:    mat_set(row, col, mat_get(row, col, P) - mat_get(row, col, sub_mat_2), 
      +                          PCorrected);
  5473   0030F4  C0EC  F0A7         	movff	EKF@col,mat_set@column
  5474   0030F8  C240  F00A         	movff	EKF@P,mat_get@matrix
  5475   0030FC  C241  F00B         	movff	EKF@P+1,mat_get@matrix+1
  5476   003100  C0EC  F009         	movff	EKF@col,mat_get@column
  5477   003104  51ED               	movf	EKF@row& (0+255),w,b
  5478   003106  EC6B  F02E         	call	_mat_get
  5479   00310A  C009  F046         	movff	?_mat_get,___flsub@b
  5480   00310E  C00A  F047         	movff	?_mat_get+1,___flsub@b+1
  5481   003112  C00B  F048         	movff	?_mat_get+2,___flsub@b+2
  5482   003116  C00C  F049         	movff	?_mat_get+3,___flsub@b+3
  5483   00311A  C23A  F00A         	movff	EKF@sub_mat_2,mat_get@matrix
  5484   00311E  C23B  F00B         	movff	EKF@sub_mat_2+1,mat_get@matrix+1
  5485   003122  C0EC  F009         	movff	EKF@col,mat_get@column
  5486   003126  0100               	movlb	0	; () banked
  5487   003128  51ED               	movf	EKF@row& (0+255),w,b
  5488   00312A  EC6B  F02E         	call	_mat_get
  5489   00312E  C009  F04A         	movff	?_mat_get,___flsub@a
  5490   003132  C00A  F04B         	movff	?_mat_get+1,___flsub@a+1
  5491   003136  C00B  F04C         	movff	?_mat_get+2,___flsub@a+2
  5492   00313A  C00C  F04D         	movff	?_mat_get+3,___flsub@a+3
  5493   00313E  ECB3  F02F         	call	___flsub	;wreg free
  5494   003142  C046  F0A8         	movff	?___flsub,mat_set@element
  5495   003146  C047  F0A9         	movff	?___flsub+1,mat_set@element+1
  5496   00314A  C048  F0AA         	movff	?___flsub+2,mat_set@element+2
  5497   00314E  C049  F0AB         	movff	?___flsub+3,mat_set@element+3
  5498   003152  C24C  F0AC         	movff	EKF@PCorrected,mat_set@matrix
  5499   003156  C24D  F0AD         	movff	EKF@PCorrected+1,mat_set@matrix+1
  5500   00315A  0100               	movlb	0	; () banked
  5501   00315C  51ED               	movf	EKF@row& (0+255),w,b
  5502   00315E  EC30  F02E         	call	_mat_set
  5503   003162                     
  5504                           ;main.c: 238:   }
  5505   003162  0100               	movlb	0	; () banked
  5506   003164  2BEC               	incf	EKF@col& (0+255),f,b
  5507   003166  EF70  F018         	goto	l5780
  5508   00316A                     l5790:
  5509                           
  5510                           ; BSR set to: 0
  5511                           ;main.c: 239:  }
  5512   00316A  2BED               	incf	EKF@row& (0+255),f,b
  5513   00316C                     
  5514                           ; BSR set to: 0
  5515   00316C  0E02               	movlw	2
  5516   00316E  65ED               	cpfsgt	EKF@row& (0+255),b
  5517   003170  EFBC  F018         	goto	u5581
  5518   003174  EFBE  F018         	goto	u5580
  5519   003178                     u5581:
  5520   003178  EF6E  F018         	goto	l5778
  5521   00317C                     u5580:
  5522   00317C                     
  5523                           ; BSR set to: 0
  5524   00317C  0012               	return		;funcret
  5525   00317E                     __end_of_EKF:
  5526                           	callstack 0
  5527                           
  5528 ;; *************** function _powf *****************
  5529 ;; Defined at:
  5530 ;;		line 53 in file "C:\Program Files\Microchip\xc8\v2.41\pic\sources\c99\common\powf.c"
  5531 ;; Parameters:    Size  Location     Type
  5532 ;;  x               4   45[BANK0 ] float 
  5533 ;;  y               4   49[BANK0 ] float 
  5534 ;; Auto vars:     Size  Location     Type
  5535 ;;  s2              4  132[BANK1 ] float 
  5536 ;;  s_h             4  100[BANK1 ] float 
  5537 ;;  t_h             4   96[BANK1 ] float 
  5538 ;;  t_l             4   40[BANK1 ] float 
  5539 ;;  s_l             4   36[BANK1 ] float 
  5540 ;;  __xc8_float_    4  176[BANK1 ] struct .
  5541 ;;  z               4  172[BANK1 ] float 
  5542 ;;  t               4  168[BANK1 ] float 
  5543 ;;  j               4  164[BANK1 ] long 
  5544 ;;  ix              4  160[BANK1 ] long 
  5545 ;;  k               4  152[BANK1 ] long 
  5546 ;;  p_h             4  148[BANK1 ] float 
  5547 ;;  is              4  140[BANK1 ] long 
  5548 ;;  iy              4  136[BANK1 ] long 
  5549 ;;  sn              4  128[BANK1 ] float 
  5550 ;;  t1              4  124[BANK1 ] float 
  5551 ;;  n               4  120[BANK1 ] long 
  5552 ;;  hy              4  116[BANK1 ] long 
  5553 ;;  v               4  112[BANK1 ] float 
  5554 ;;  u               4  108[BANK1 ] float 
  5555 ;;  ax              4  104[BANK1 ] float 
  5556 ;;  p_l             4   92[BANK1 ] float 
  5557 ;;  hx              4   88[BANK1 ] long 
  5558 ;;  s               4   84[BANK1 ] float 
  5559 ;;  yisint          4   72[BANK1 ] long 
  5560 ;;  r               4   68[BANK1 ] float 
  5561 ;;  w               4   56[BANK1 ] float 
  5562 ;;  i               4   32[BANK1 ] long 
  5563 ;;  y1              4   28[BANK1 ] float 
  5564 ;;  z_l             4   24[BANK1 ] float 
  5565 ;;  z_h             4   20[BANK1 ] float 
  5566 ;;  t2              4   16[BANK1 ] float 
  5567 ;; Return value:  Size  Location     Type
  5568 ;;                  4   45[BANK0 ] float 
  5569 ;; Registers used:
  5570 ;;		wreg, status,2, status,0, tblptrl, tblptrh, tblptru, prodl, prodh, cstack
  5571 ;; Tracked objects:
  5572 ;;		On entry : 0/0
  5573 ;;		On exit  : 0/0
  5574 ;;		Unchanged: 0/0
  5575 ;; Data sizes:     COMRAM   BANK0   BANK1   BANK2   BANK3   BANK4   BANK5   BANK6   BANK7   BANK8   BANK9  BANK10  BANK1
      +1  BANK12  BANK13  BANK14  BANK15
  5576 ;;      Params:         0       8       0       0       0       0       0       0       0       0       0       0       
      +0       0       0       0       0
  5577 ;;      Locals:         0       0     180       0       0       0       0       0       0       0       0       0       
      +0       0       0       0       0
  5578 ;;      Temps:          0       9       0       0       0       0       0       0       0       0       0       0       
      +0       0       0       0       0
  5579 ;;      Totals:         0      17     180       0       0       0       0       0       0       0       0       0       
      +0       0       0       0       0
  5580 ;;Total ram usage:      197 bytes
  5581 ;; Hardware stack levels used: 1
  5582 ;; Hardware stack levels required when called: 5
  5583 ;; This function calls:
  5584 ;;		___fladd
  5585 ;;		___fldiv
  5586 ;;		___flge
  5587 ;;		___flmul
  5588 ;;		___flneg
  5589 ;;		___flsub
  5590 ;;		___xxtofl
  5591 ;;		_fabsf
  5592 ;;		_scalbnf
  5593 ;;		_sqrtf
  5594 ;; This function is called by:
  5595 ;;		_EKF
  5596 ;;		_main
  5597 ;; This function uses a non-reentrant model
  5598 ;;
  5599                           
  5600                           	psect	text24
  5601   00001E                     __ptext24:
  5602                           	callstack 0
  5603   00001E                     _powf:
  5604                           	callstack 25
  5605   00001E  C08D  F1B0         	movff	powf@x,powf@__xc8_float_word
  5606   000022  C08E  F1B1         	movff	powf@x+1,powf@__xc8_float_word+1
  5607   000026  C08F  F1B2         	movff	powf@x+2,powf@__xc8_float_word+2
  5608   00002A  C090  F1B3         	movff	powf@x+3,powf@__xc8_float_word+3
  5609   00002E  C1B0  F158         	movff	powf@__xc8_float_word,powf@hx
  5610   000032  C1B1  F159         	movff	powf@__xc8_float_word+1,powf@hx+1
  5611   000036  C1B2  F15A         	movff	powf@__xc8_float_word+2,powf@hx+2
  5612   00003A  C1B3  F15B         	movff	powf@__xc8_float_word+3,powf@hx+3
  5613   00003E  C091  F1B0         	movff	powf@y,powf@__xc8_float_word
  5614   000042  C092  F1B1         	movff	powf@y+1,powf@__xc8_float_word+1
  5615   000046  C093  F1B2         	movff	powf@y+2,powf@__xc8_float_word+2
  5616   00004A  C094  F1B3         	movff	powf@y+3,powf@__xc8_float_word+3
  5617   00004E  C1B0  F174         	movff	powf@__xc8_float_word,powf@hy
  5618   000052  C1B1  F175         	movff	powf@__xc8_float_word+1,powf@hy+1
  5619   000056  C1B2  F176         	movff	powf@__xc8_float_word+2,powf@hy+2
  5620   00005A  C1B3  F177         	movff	powf@__xc8_float_word+3,powf@hy+3
  5621   00005E  0EFF               	movlw	255
  5622   000060  0101               	movlb	1	; () banked
  5623   000062  1558               	andwf	powf@hx& (0+255),w,b
  5624   000064  6FA0               	movwf	powf@ix& (0+255),b
  5625   000066  0EFF               	movlw	255
  5626   000068  1559               	andwf	(powf@hx+1)& (0+255),w,b
  5627   00006A  6FA1               	movwf	(powf@ix+1)& (0+255),b
  5628   00006C  0EFF               	movlw	255
  5629   00006E  155A               	andwf	(powf@hx+2)& (0+255),w,b
  5630   000070  6FA2               	movwf	(powf@ix+2)& (0+255),b
  5631   000072  0E7F               	movlw	127
  5632   000074  155B               	andwf	(powf@hx+3)& (0+255),w,b
  5633   000076  6FA3               	movwf	(powf@ix+3)& (0+255),b
  5634   000078  0EFF               	movlw	255
  5635   00007A  1574               	andwf	powf@hy& (0+255),w,b
  5636   00007C  6F88               	movwf	powf@iy& (0+255),b
  5637   00007E  0EFF               	movlw	255
  5638   000080  1575               	andwf	(powf@hy+1)& (0+255),w,b
  5639   000082  6F89               	movwf	(powf@iy+1)& (0+255),b
  5640   000084  0EFF               	movlw	255
  5641   000086  1576               	andwf	(powf@hy+2)& (0+255),w,b
  5642   000088  6F8A               	movwf	(powf@iy+2)& (0+255),b
  5643   00008A  0E7F               	movlw	127
  5644   00008C  1577               	andwf	(powf@hy+3)& (0+255),w,b
  5645   00008E  6F8B               	movwf	(powf@iy+3)& (0+255),b
  5646   000090  5188               	movf	powf@iy& (0+255),w,b
  5647   000092  1189               	iorwf	(powf@iy+1)& (0+255),w,b
  5648   000094  118A               	iorwf	(powf@iy+2)& (0+255),w,b
  5649   000096  118B               	iorwf	(powf@iy+3)& (0+255),w,b
  5650   000098  A4D8               	btfss	status,2,c
  5651   00009A  EF51  F000         	goto	u4921
  5652   00009E  EF53  F000         	goto	u4920
  5653   0000A2                     u4921:
  5654   0000A2  EF5E  F000         	goto	l5208
  5655   0000A6                     u4920:
  5656   0000A6                     
  5657                           ; BSR set to: 1
  5658   0000A6  0E00               	movlw	0
  5659   0000A8  0100               	movlb	0	; () banked
  5660   0000AA  6F8D               	movwf	?_powf& (0+255),b
  5661   0000AC  0E00               	movlw	0
  5662   0000AE  6F8E               	movwf	(?_powf+1)& (0+255),b
  5663   0000B0  0E80               	movlw	128
  5664   0000B2  6F8F               	movwf	(?_powf+2)& (0+255),b
  5665   0000B4  0E3F               	movlw	63
  5666   0000B6  6F90               	movwf	(?_powf+3)& (0+255),b
  5667   0000B8  EF48  F015         	goto	l1205
  5668   0000BC                     l5208:
  5669                           
  5670                           ; BSR set to: 1
  5671   0000BC  0E80               	movlw	128
  5672   0000BE  195A               	xorwf	(powf@hx+2)& (0+255),w,b
  5673   0000C0  E109               	bnz	u4931
  5674   0000C2  0E3F               	movlw	63
  5675   0000C4  195B               	xorwf	(powf@hx+3)& (0+255),w,b
  5676   0000C6  1158               	iorwf	powf@hx& (0+255),w,b
  5677   0000C8  1159               	iorwf	(powf@hx+1)& (0+255),w,b
  5678   0000CA  A4D8               	btfss	status,2,c
  5679   0000CC  EF6A  F000         	goto	u4931
  5680   0000D0  EF6C  F000         	goto	u4930
  5681   0000D4                     u4931:
  5682   0000D4  EF77  F000         	goto	l5214
  5683   0000D8                     u4930:
  5684   0000D8                     
  5685                           ; BSR set to: 1
  5686   0000D8  0E00               	movlw	0
  5687   0000DA  0100               	movlb	0	; () banked
  5688   0000DC  6F8D               	movwf	?_powf& (0+255),b
  5689   0000DE  0E00               	movlw	0
  5690   0000E0  6F8E               	movwf	(?_powf+1)& (0+255),b
  5691   0000E2  0E80               	movlw	128
  5692   0000E4  6F8F               	movwf	(?_powf+2)& (0+255),b
  5693   0000E6  0E3F               	movlw	63
  5694   0000E8  6F90               	movwf	(?_powf+3)& (0+255),b
  5695   0000EA  EF48  F015         	goto	l1205
  5696   0000EE                     l5214:
  5697                           
  5698                           ; BSR set to: 1
  5699   0000EE  BFA3               	btfsc	(powf@ix+3)& (0+255),7,b
  5700   0000F0  EF88  F000         	goto	u4940
  5701   0000F4  05A0               	decf	powf@ix& (0+255),w,b
  5702   0000F6  0E00               	movlw	0
  5703   0000F8  59A1               	subwfb	(powf@ix+1)& (0+255),w,b
  5704   0000FA  0E80               	movlw	128
  5705   0000FC  59A2               	subwfb	(powf@ix+2)& (0+255),w,b
  5706   0000FE  0E7F               	movlw	127
  5707   000100  59A3               	subwfb	(powf@ix+3)& (0+255),w,b
  5708   000102  B0D8               	btfsc	status,0,c
  5709   000104  EF86  F000         	goto	u4941
  5710   000108  EF88  F000         	goto	u4940
  5711   00010C                     u4941:
  5712   00010C  EF99  F000         	goto	l5218
  5713   000110                     u4940:
  5714   000110                     
  5715                           ; BSR set to: 1
  5716   000110  BF8B               	btfsc	(powf@iy+3)& (0+255),7,b
  5717   000112  EF97  F000         	goto	u4951
  5718   000116  0588               	decf	powf@iy& (0+255),w,b
  5719   000118  0E00               	movlw	0
  5720   00011A  5989               	subwfb	(powf@iy+1)& (0+255),w,b
  5721   00011C  0E80               	movlw	128
  5722   00011E  598A               	subwfb	(powf@iy+2)& (0+255),w,b
  5723   000120  0E7F               	movlw	127
  5724   000122  598B               	subwfb	(powf@iy+3)& (0+255),w,b
  5725   000124  A0D8               	btfss	status,0,c
  5726   000126  EF97  F000         	goto	u4951
  5727   00012A  EF99  F000         	goto	u4950
  5728   00012E                     u4951:
  5729   00012E  EFB5  F000         	goto	l5222
  5730   000132                     u4950:
  5731   000132                     l5218:
  5732                           
  5733                           ; BSR set to: 1
  5734   000132  C08D  F02C         	movff	powf@x,___fladd@b
  5735   000136  C08E  F02D         	movff	powf@x+1,___fladd@b+1
  5736   00013A  C08F  F02E         	movff	powf@x+2,___fladd@b+2
  5737   00013E  C090  F02F         	movff	powf@x+3,___fladd@b+3
  5738   000142  C091  F030         	movff	powf@y,___fladd@a
  5739   000146  C092  F031         	movff	powf@y+1,___fladd@a+1
  5740   00014A  C093  F032         	movff	powf@y+2,___fladd@a+2
  5741   00014E  C094  F033         	movff	powf@y+3,___fladd@a+3
  5742   000152  ECD8  F020         	call	___fladd	;wreg free
  5743   000156  C02C  F08D         	movff	?___fladd,?_powf
  5744   00015A  C02D  F08E         	movff	?___fladd+1,?_powf+1
  5745   00015E  C02E  F08F         	movff	?___fladd+2,?_powf+2
  5746   000162  C02F  F090         	movff	?___fladd+3,?_powf+3
  5747   000166  EF48  F015         	goto	l1205
  5748   00016A                     l5222:
  5749                           
  5750                           ; BSR set to: 1
  5751   00016A  0E00               	movlw	0
  5752   00016C  6F48               	movwf	powf@yisint& (0+255),b
  5753   00016E  0E00               	movlw	0
  5754   000170  6F49               	movwf	(powf@yisint+1)& (0+255),b
  5755   000172  0E00               	movlw	0
  5756   000174  6F4A               	movwf	(powf@yisint+2)& (0+255),b
  5757   000176  0E00               	movlw	0
  5758   000178  6F4B               	movwf	(powf@yisint+3)& (0+255),b
  5759   00017A                     
  5760                           ; BSR set to: 1
  5761   00017A  BF5B               	btfsc	(powf@hx+3)& (0+255),7,b
  5762   00017C  EFC4  F000         	goto	u4960
  5763   000180  EFC2  F000         	goto	u4961
  5764   000184                     u4961:
  5765   000184  EF90  F001         	goto	l1210
  5766   000188                     u4960:
  5767   000188                     
  5768                           ; BSR set to: 1
  5769   000188  BF8B               	btfsc	(powf@iy+3)& (0+255),7,b
  5770   00018A  EFD0  F000         	goto	u4971
  5771   00018E  0E80               	movlw	128
  5772   000190  5D8A               	subwf	(powf@iy+2)& (0+255),w,b
  5773   000192  0E4B               	movlw	75
  5774   000194  598B               	subwfb	(powf@iy+3)& (0+255),w,b
  5775   000196  A0D8               	btfss	status,0,c
  5776   000198  EFD0  F000         	goto	u4971
  5777   00019C  EFD2  F000         	goto	u4970
  5778   0001A0                     u4971:
  5779   0001A0  EFDC  F000         	goto	l5230
  5780   0001A4                     u4970:
  5781   0001A4                     
  5782                           ; BSR set to: 1
  5783   0001A4  0E02               	movlw	2
  5784   0001A6  6F48               	movwf	powf@yisint& (0+255),b
  5785   0001A8  0E00               	movlw	0
  5786   0001AA  6F49               	movwf	(powf@yisint+1)& (0+255),b
  5787   0001AC  0E00               	movlw	0
  5788   0001AE  6F4A               	movwf	(powf@yisint+2)& (0+255),b
  5789   0001B0  0E00               	movlw	0
  5790   0001B2  6F4B               	movwf	(powf@yisint+3)& (0+255),b
  5791   0001B4  EF90  F001         	goto	l1210
  5792   0001B8                     l5230:
  5793                           
  5794                           ; BSR set to: 1
  5795   0001B8  BF8B               	btfsc	(powf@iy+3)& (0+255),7,b
  5796   0001BA  EFE8  F000         	goto	u4981
  5797   0001BE  0E80               	movlw	128
  5798   0001C0  5D8A               	subwf	(powf@iy+2)& (0+255),w,b
  5799   0001C2  0E3F               	movlw	63
  5800   0001C4  598B               	subwfb	(powf@iy+3)& (0+255),w,b
  5801   0001C6  A0D8               	btfss	status,0,c
  5802   0001C8  EFE8  F000         	goto	u4981
  5803   0001CC  EFEA  F000         	goto	u4980
  5804   0001D0                     u4981:
  5805   0001D0  EF90  F001         	goto	l1210
  5806   0001D4                     u4980:
  5807   0001D4                     
  5808                           ; BSR set to: 1
  5809   0001D4  0E17               	movlw	23
  5810   0001D6  0100               	movlb	0	; () banked
  5811   0001D8  6F95               	movwf	??_powf& (0+255),b
  5812   0001DA  C188  F096         	movff	powf@iy,??_powf+1
  5813   0001DE  C189  F097         	movff	powf@iy+1,??_powf+2
  5814   0001E2  C18A  F098         	movff	powf@iy+2,??_powf+3
  5815   0001E6  C18B  F099         	movff	powf@iy+3,??_powf+4
  5816   0001EA                     u4995:
  5817   0001EA  6795               	tstfsz	??_powf& (0+255),b
  5818   0001EC  EFFA  F000         	goto	u4996
  5819   0001F0  EF02  F001         	goto	u4997
  5820   0001F4                     u4996:
  5821   0001F4  3599               	rlcf	(??_powf+4)& (0+255),w,b
  5822   0001F6  3399               	rrcf	(??_powf+4)& (0+255),f,b
  5823   0001F8  3398               	rrcf	(??_powf+3)& (0+255),f,b
  5824   0001FA  3397               	rrcf	(??_powf+2)& (0+255),f,b
  5825   0001FC  3396               	rrcf	(??_powf+1)& (0+255),f,b
  5826   0001FE  2F95               	decfsz	??_powf& (0+255),f,b
  5827   000200  EFF5  F000         	goto	u4995
  5828   000204                     u4997:
  5829   000204  0E81               	movlw	129
  5830   000206  0100               	movlb	0	; () banked
  5831   000208  2596               	addwf	(??_powf+1)& (0+255),w,b
  5832   00020A  0101               	movlb	1	; () banked
  5833   00020C  6F98               	movwf	powf@k& (0+255),b
  5834   00020E  0EFF               	movlw	255
  5835   000210  0100               	movlb	0	; () banked
  5836   000212  2197               	addwfc	(??_powf+2)& (0+255),w,b
  5837   000214  0101               	movlb	1	; () banked
  5838   000216  6F99               	movwf	(powf@k+1)& (0+255),b
  5839   000218  0EFF               	movlw	255
  5840   00021A  0100               	movlb	0	; () banked
  5841   00021C  2198               	addwfc	(??_powf+3)& (0+255),w,b
  5842   00021E  0101               	movlb	1	; () banked
  5843   000220  6F9A               	movwf	(powf@k+2)& (0+255),b
  5844   000222  0EFF               	movlw	255
  5845   000224  0100               	movlb	0	; () banked
  5846   000226  2199               	addwfc	(??_powf+4)& (0+255),w,b
  5847   000228  0101               	movlb	1	; () banked
  5848   00022A  6F9B               	movwf	(powf@k+3)& (0+255),b
  5849   00022C  5198               	movf	powf@k& (0+255),w,b
  5850   00022E  0817               	sublw	23
  5851   000230  0100               	movlb	0	; () banked
  5852   000232  6F95               	movwf	??_powf& (0+255),b
  5853   000234  C188  F096         	movff	powf@iy,??_powf+1
  5854   000238  C189  F097         	movff	powf@iy+1,??_powf+2
  5855   00023C  C18A  F098         	movff	powf@iy+2,??_powf+3
  5856   000240  C18B  F099         	movff	powf@iy+3,??_powf+4
  5857   000244                     u5005:
  5858   000244  6795               	tstfsz	??_powf& (0+255),b
  5859   000246  EF27  F001         	goto	u5006
  5860   00024A  EF2F  F001         	goto	u5007
  5861   00024E                     u5006:
  5862   00024E  3599               	rlcf	(??_powf+4)& (0+255),w,b
  5863   000250  3399               	rrcf	(??_powf+4)& (0+255),f,b
  5864   000252  3398               	rrcf	(??_powf+3)& (0+255),f,b
  5865   000254  3397               	rrcf	(??_powf+2)& (0+255),f,b
  5866   000256  3396               	rrcf	(??_powf+1)& (0+255),f,b
  5867   000258  2F95               	decfsz	??_powf& (0+255),f,b
  5868   00025A  EF22  F001         	goto	u5005
  5869   00025E                     u5007:
  5870   00025E  C096  F1A4         	movff	??_powf+1,powf@j
  5871   000262  C097  F1A5         	movff	??_powf+2,powf@j+1
  5872   000266  C098  F1A6         	movff	??_powf+3,powf@j+2
  5873   00026A  C099  F1A7         	movff	??_powf+4,powf@j+3
  5874   00026E  0101               	movlb	1	; () banked
  5875   000270  5198               	movf	powf@k& (0+255),w,b
  5876   000272  0817               	sublw	23
  5877   000274  0100               	movlb	0	; () banked
  5878   000276  6F95               	movwf	??_powf& (0+255),b
  5879   000278  C1A4  F096         	movff	powf@j,??_powf+1
  5880   00027C  C1A5  F097         	movff	powf@j+1,??_powf+2
  5881   000280  C1A6  F098         	movff	powf@j+2,??_powf+3
  5882   000284  C1A7  F099         	movff	powf@j+3,??_powf+4
  5883   000288  2B95               	incf	??_powf& (0+255),f,b
  5884   00028A  EF4C  F001         	goto	u5010
  5885   00028E                     u5015:
  5886   00028E  90D8               	bcf	status,0,c
  5887   000290  3796               	rlcf	(??_powf+1)& (0+255),f,b
  5888   000292  3797               	rlcf	(??_powf+2)& (0+255),f,b
  5889   000294  3798               	rlcf	(??_powf+3)& (0+255),f,b
  5890   000296  3799               	rlcf	(??_powf+4)& (0+255),f,b
  5891   000298                     u5010:
  5892   000298  2F95               	decfsz	??_powf& (0+255),f,b
  5893   00029A  EF47  F001         	goto	u5015
  5894   00029E  0101               	movlb	1	; () banked
  5895   0002A0  5188               	movf	powf@iy& (0+255),w,b
  5896   0002A2  0100               	movlb	0	; () banked
  5897   0002A4  1996               	xorwf	(??_powf+1)& (0+255),w,b
  5898   0002A6  E113               	bnz	u5021
  5899   0002A8  0101               	movlb	1	; () banked
  5900   0002AA  5189               	movf	(powf@iy+1)& (0+255),w,b
  5901   0002AC  0100               	movlb	0	; () banked
  5902   0002AE  1997               	xorwf	(??_powf+2)& (0+255),w,b
  5903   0002B0  E10E               	bnz	u5021
  5904   0002B2  0101               	movlb	1	; () banked
  5905   0002B4  518A               	movf	(powf@iy+2)& (0+255),w,b
  5906   0002B6  0100               	movlb	0	; () banked
  5907   0002B8  1998               	xorwf	(??_powf+3)& (0+255),w,b
  5908   0002BA  E109               	bnz	u5021
  5909   0002BC  0101               	movlb	1	; () banked
  5910   0002BE  518B               	movf	(powf@iy+3)& (0+255),w,b
  5911   0002C0  0100               	movlb	0	; () banked
  5912   0002C2  1999               	xorwf	(??_powf+4)& (0+255),w,b
  5913   0002C4  A4D8               	btfss	status,2,c
  5914   0002C6  EF67  F001         	goto	u5021
  5915   0002CA  EF69  F001         	goto	u5020
  5916   0002CE                     u5021:
  5917   0002CE  EF90  F001         	goto	l1210
  5918   0002D2                     u5020:
  5919   0002D2                     
  5920                           ; BSR set to: 0
  5921   0002D2  0E01               	movlw	1
  5922   0002D4  0101               	movlb	1	; () banked
  5923   0002D6  15A4               	andwf	powf@j& (0+255),w,b
  5924   0002D8  0100               	movlb	0	; () banked
  5925   0002DA  6F95               	movwf	??_powf& (0+255),b
  5926   0002DC  0E00               	movlw	0
  5927   0002DE  0101               	movlb	1	; () banked
  5928   0002E0  15A5               	andwf	(powf@j+1)& (0+255),w,b
  5929   0002E2  0100               	movlb	0	; () banked
  5930   0002E4  6F96               	movwf	(??_powf+1)& (0+255),b
  5931   0002E6  0E00               	movlw	0
  5932   0002E8  0101               	movlb	1	; () banked
  5933   0002EA  15A6               	andwf	(powf@j+2)& (0+255),w,b
  5934   0002EC  0100               	movlb	0	; () banked
  5935   0002EE  6F97               	movwf	(??_powf+2)& (0+255),b
  5936   0002F0  0E00               	movlw	0
  5937   0002F2  0101               	movlb	1	; () banked
  5938   0002F4  15A7               	andwf	(powf@j+3)& (0+255),w,b
  5939   0002F6  0100               	movlb	0	; () banked
  5940   0002F8  6F98               	movwf	(??_powf+3)& (0+255),b
  5941   0002FA  5195               	movf	??_powf& (0+255),w,b
  5942   0002FC  0802               	sublw	2
  5943   0002FE  0101               	movlb	1	; () banked
  5944   000300  6F48               	movwf	powf@yisint& (0+255),b
  5945   000302  0E00               	movlw	0
  5946   000304  0100               	movlb	0	; () banked
  5947   000306  5596               	subfwb	(??_powf+1)& (0+255),w,b
  5948   000308  0101               	movlb	1	; () banked
  5949   00030A  6F49               	movwf	(powf@yisint+1)& (0+255),b
  5950   00030C  0E00               	movlw	0
  5951   00030E  0100               	movlb	0	; () banked
  5952   000310  5597               	subfwb	(??_powf+2)& (0+255),w,b
  5953   000312  0101               	movlb	1	; () banked
  5954   000314  6F4A               	movwf	(powf@yisint+2)& (0+255),b
  5955   000316  0E00               	movlw	0
  5956   000318  0100               	movlb	0	; () banked
  5957   00031A  5598               	subfwb	(??_powf+3)& (0+255),w,b
  5958   00031C  0101               	movlb	1	; () banked
  5959   00031E  6F4B               	movwf	(powf@yisint+3)& (0+255),b
  5960   000320                     l1210:
  5961   000320  0E80               	movlw	128
  5962   000322  0101               	movlb	1	; () banked
  5963   000324  198A               	xorwf	(powf@iy+2)& (0+255),w,b
  5964   000326  E109               	bnz	u5031
  5965   000328  0E7F               	movlw	127
  5966   00032A  198B               	xorwf	(powf@iy+3)& (0+255),w,b
  5967   00032C  1188               	iorwf	powf@iy& (0+255),w,b
  5968   00032E  1189               	iorwf	(powf@iy+1)& (0+255),w,b
  5969   000330  A4D8               	btfss	status,2,c
  5970   000332  EF9D  F001         	goto	u5031
  5971   000336  EF9F  F001         	goto	u5030
  5972   00033A                     u5031:
  5973   00033A  EF0B  F002         	goto	l5260
  5974   00033E                     u5030:
  5975   00033E                     
  5976                           ; BSR set to: 1
  5977   00033E  0E80               	movlw	128
  5978   000340  19A2               	xorwf	(powf@ix+2)& (0+255),w,b
  5979   000342  E109               	bnz	u5041
  5980   000344  0E3F               	movlw	63
  5981   000346  19A3               	xorwf	(powf@ix+3)& (0+255),w,b
  5982   000348  11A0               	iorwf	powf@ix& (0+255),w,b
  5983   00034A  11A1               	iorwf	(powf@ix+1)& (0+255),w,b
  5984   00034C  A4D8               	btfss	status,2,c
  5985   00034E  EFAB  F001         	goto	u5041
  5986   000352  EFAD  F001         	goto	u5040
  5987   000356                     u5041:
  5988   000356  EFB8  F001         	goto	l5244
  5989   00035A                     u5040:
  5990   00035A                     
  5991                           ; BSR set to: 1
  5992   00035A  0E00               	movlw	0
  5993   00035C  0100               	movlb	0	; () banked
  5994   00035E  6F8D               	movwf	?_powf& (0+255),b
  5995   000360  0E00               	movlw	0
  5996   000362  6F8E               	movwf	(?_powf+1)& (0+255),b
  5997   000364  0E80               	movlw	128
  5998   000366  6F8F               	movwf	(?_powf+2)& (0+255),b
  5999   000368  0E3F               	movlw	63
  6000   00036A  6F90               	movwf	(?_powf+3)& (0+255),b
  6001   00036C  EF48  F015         	goto	l1205
  6002   000370                     l5244:
  6003                           
  6004                           ; BSR set to: 1
  6005   000370  BFA3               	btfsc	(powf@ix+3)& (0+255),7,b
  6006   000372  EFC7  F001         	goto	u5051
  6007   000376  05A0               	decf	powf@ix& (0+255),w,b
  6008   000378  0E00               	movlw	0
  6009   00037A  59A1               	subwfb	(powf@ix+1)& (0+255),w,b
  6010   00037C  0E80               	movlw	128
  6011   00037E  59A2               	subwfb	(powf@ix+2)& (0+255),w,b
  6012   000380  0E3F               	movlw	63
  6013   000382  59A3               	subwfb	(powf@ix+3)& (0+255),w,b
  6014   000384  A0D8               	btfss	status,0,c
  6015   000386  EFC7  F001         	goto	u5051
  6016   00038A  EFC9  F001         	goto	u5050
  6017   00038E                     u5051:
  6018   00038E  EFE5  F001         	goto	l5252
  6019   000392                     u5050:
  6020   000392                     
  6021                           ; BSR set to: 1
  6022   000392  BF77               	btfsc	(powf@hy+3)& (0+255),7,b
  6023   000394  EFD0  F001         	goto	u5060
  6024   000398  EFCE  F001         	goto	u5061
  6025   00039C                     u5061:
  6026   00039C  EFDB  F001         	goto	l1220
  6027   0003A0                     u5060:
  6028   0003A0                     
  6029                           ; BSR set to: 1
  6030   0003A0  0E00               	movlw	0
  6031   0003A2  0100               	movlb	0	; () banked
  6032   0003A4  6F8D               	movwf	?_powf& (0+255),b
  6033   0003A6  0E00               	movlw	0
  6034   0003A8  6F8E               	movwf	(?_powf+1)& (0+255),b
  6035   0003AA  0E00               	movlw	0
  6036   0003AC  6F8F               	movwf	(?_powf+2)& (0+255),b
  6037   0003AE  0E00               	movlw	0
  6038   0003B0  6F90               	movwf	(?_powf+3)& (0+255),b
  6039   0003B2  EF48  F015         	goto	l1205
  6040   0003B6                     l1220:
  6041                           
  6042                           ; BSR set to: 1
  6043   0003B6  C091  F08D         	movff	powf@y,?_powf
  6044   0003BA  C092  F08E         	movff	powf@y+1,?_powf+1
  6045   0003BE  C093  F08F         	movff	powf@y+2,?_powf+2
  6046   0003C2  C094  F090         	movff	powf@y+3,?_powf+3
  6047   0003C6  EF48  F015         	goto	l1205
  6048   0003CA                     l5252:
  6049                           
  6050                           ; BSR set to: 1
  6051   0003CA  BF77               	btfsc	(powf@hy+3)& (0+255),7,b
  6052   0003CC  EFEC  F001         	goto	u5070
  6053   0003D0  EFEA  F001         	goto	u5071
  6054   0003D4                     u5071:
  6055   0003D4  EF00  F002         	goto	l5256
  6056   0003D8                     u5070:
  6057   0003D8                     
  6058                           ; BSR set to: 1
  6059   0003D8  C091  F003         	movff	powf@y,___flneg@f1
  6060   0003DC  C092  F004         	movff	powf@y+1,___flneg@f1+1
  6061   0003E0  C093  F005         	movff	powf@y+2,___flneg@f1+2
  6062   0003E4  C094  F006         	movff	powf@y+3,___flneg@f1+3
  6063   0003E8  ECF4  F02F         	call	___flneg	;wreg free
  6064   0003EC  C003  F08D         	movff	?___flneg,?_powf
  6065   0003F0  C004  F08E         	movff	?___flneg+1,?_powf+1
  6066   0003F4  C005  F08F         	movff	?___flneg+2,?_powf+2
  6067   0003F8  C006  F090         	movff	?___flneg+3,?_powf+3
  6068   0003FC  EF48  F015         	goto	l1205
  6069   000400                     l5256:
  6070                           
  6071                           ; BSR set to: 1
  6072   000400  0E00               	movlw	0
  6073   000402  0100               	movlb	0	; () banked
  6074   000404  6F8D               	movwf	?_powf& (0+255),b
  6075   000406  0E00               	movlw	0
  6076   000408  6F8E               	movwf	(?_powf+1)& (0+255),b
  6077   00040A  0E00               	movlw	0
  6078   00040C  6F8F               	movwf	(?_powf+2)& (0+255),b
  6079   00040E  0E00               	movlw	0
  6080   000410  6F90               	movwf	(?_powf+3)& (0+255),b
  6081   000412  EF48  F015         	goto	l1205
  6082   000416                     l5260:
  6083                           
  6084                           ; BSR set to: 1
  6085   000416  0E80               	movlw	128
  6086   000418  198A               	xorwf	(powf@iy+2)& (0+255),w,b
  6087   00041A  E109               	bnz	u5081
  6088   00041C  0E3F               	movlw	63
  6089   00041E  198B               	xorwf	(powf@iy+3)& (0+255),w,b
  6090   000420  1188               	iorwf	powf@iy& (0+255),w,b
  6091   000422  1189               	iorwf	(powf@iy+1)& (0+255),w,b
  6092   000424  A4D8               	btfss	status,2,c
  6093   000426  EF17  F002         	goto	u5081
  6094   00042A  EF19  F002         	goto	u5080
  6095   00042E                     u5081:
  6096   00042E  EF46  F002         	goto	l5266
  6097   000432                     u5080:
  6098   000432                     
  6099                           ; BSR set to: 1
  6100   000432  BF77               	btfsc	(powf@hy+3)& (0+255),7,b
  6101   000434  EF20  F002         	goto	u5090
  6102   000438  EF1E  F002         	goto	u5091
  6103   00043C                     u5091:
  6104   00043C  EF3C  F002         	goto	l1230
  6105   000440                     u5090:
  6106   000440                     
  6107                           ; BSR set to: 1
  6108   000440  0E00               	movlw	0
  6109   000442  6E4E               	movwf	___fldiv@b^0,c
  6110   000444  0E00               	movlw	0
  6111   000446  6E4F               	movwf	(___fldiv@b+1)^0,c
  6112   000448  0E80               	movlw	128
  6113   00044A  6E50               	movwf	(___fldiv@b+2)^0,c
  6114   00044C  0E3F               	movlw	63
  6115   00044E  6E51               	movwf	(___fldiv@b+3)^0,c
  6116   000450  C08D  F052         	movff	powf@x,___fldiv@a
  6117   000454  C08E  F053         	movff	powf@x+1,___fldiv@a+1
  6118   000458  C08F  F054         	movff	powf@x+2,___fldiv@a+2
  6119   00045C  C090  F055         	movff	powf@x+3,___fldiv@a+3
  6120   000460  EC5F  F025         	call	___fldiv	;wreg free
  6121   000464  C04E  F08D         	movff	?___fldiv,?_powf
  6122   000468  C04F  F08E         	movff	?___fldiv+1,?_powf+1
  6123   00046C  C050  F08F         	movff	?___fldiv+2,?_powf+2
  6124   000470  C051  F090         	movff	?___fldiv+3,?_powf+3
  6125   000474  EF48  F015         	goto	l1205
  6126   000478                     l1230:
  6127                           
  6128                           ; BSR set to: 1
  6129   000478  C08D  F08D         	movff	powf@x,?_powf
  6130   00047C  C08E  F08E         	movff	powf@x+1,?_powf+1
  6131   000480  C08F  F08F         	movff	powf@x+2,?_powf+2
  6132   000484  C090  F090         	movff	powf@x+3,?_powf+3
  6133   000488  EF48  F015         	goto	l1205
  6134   00048C                     l5266:
  6135                           
  6136                           ; BSR set to: 1
  6137   00048C  0E40               	movlw	64
  6138   00048E  1977               	xorwf	(powf@hy+3)& (0+255),w,b
  6139   000490  1174               	iorwf	powf@hy& (0+255),w,b
  6140   000492  1175               	iorwf	(powf@hy+1)& (0+255),w,b
  6141   000494  1176               	iorwf	(powf@hy+2)& (0+255),w,b
  6142   000496  A4D8               	btfss	status,2,c
  6143   000498  EF50  F002         	goto	u5101
  6144   00049C  EF52  F002         	goto	u5100
  6145   0004A0                     u5101:
  6146   0004A0  EF6E  F002         	goto	l5272
  6147   0004A4                     u5100:
  6148   0004A4                     
  6149                           ; BSR set to: 1
  6150   0004A4  C08D  F013         	movff	powf@x,___flmul@b
  6151   0004A8  C08E  F014         	movff	powf@x+1,___flmul@b+1
  6152   0004AC  C08F  F015         	movff	powf@x+2,___flmul@b+2
  6153   0004B0  C090  F016         	movff	powf@x+3,___flmul@b+3
  6154   0004B4  C08D  F017         	movff	powf@x,___flmul@a
  6155   0004B8  C08E  F018         	movff	powf@x+1,___flmul@a+1
  6156   0004BC  C08F  F019         	movff	powf@x+2,___flmul@a+2
  6157   0004C0  C090  F01A         	movff	powf@x+3,___flmul@a+3
  6158   0004C4  EC38  F023         	call	___flmul	;wreg free
  6159   0004C8  C013  F08D         	movff	?___flmul,?_powf
  6160   0004CC  C014  F08E         	movff	?___flmul+1,?_powf+1
  6161   0004D0  C015  F08F         	movff	?___flmul+2,?_powf+2
  6162   0004D4  C016  F090         	movff	?___flmul+3,?_powf+3
  6163   0004D8  EF48  F015         	goto	l1205
  6164   0004DC                     l5272:
  6165                           
  6166                           ; BSR set to: 1
  6167   0004DC  0E3F               	movlw	63
  6168   0004DE  1977               	xorwf	(powf@hy+3)& (0+255),w,b
  6169   0004E0  1174               	iorwf	powf@hy& (0+255),w,b
  6170   0004E2  1175               	iorwf	(powf@hy+1)& (0+255),w,b
  6171   0004E4  1176               	iorwf	(powf@hy+2)& (0+255),w,b
  6172   0004E6  A4D8               	btfss	status,2,c
  6173   0004E8  EF78  F002         	goto	u5111
  6174   0004EC  EF7A  F002         	goto	u5110
  6175   0004F0                     u5111:
  6176   0004F0  EF95  F002         	goto	l5280
  6177   0004F4                     u5110:
  6178   0004F4                     
  6179                           ; BSR set to: 1
  6180   0004F4  BF5B               	btfsc	(powf@hx+3)& (0+255),7,b
  6181   0004F6  EF7F  F002         	goto	u5121
  6182   0004FA  EF81  F002         	goto	u5120
  6183   0004FE                     u5121:
  6184   0004FE  EF95  F002         	goto	l5280
  6185   000502                     u5120:
  6186   000502                     
  6187                           ; BSR set to: 1
  6188   000502  C08D  F060         	movff	powf@x,sqrtf@x
  6189   000506  C08E  F061         	movff	powf@x+1,sqrtf@x+1
  6190   00050A  C08F  F062         	movff	powf@x+2,sqrtf@x+2
  6191   00050E  C090  F063         	movff	powf@x+3,sqrtf@x+3
  6192   000512  EC78  F01E         	call	_sqrtf	;wreg free
  6193   000516  C060  F08D         	movff	?_sqrtf,?_powf
  6194   00051A  C061  F08E         	movff	?_sqrtf+1,?_powf+1
  6195   00051E  C062  F08F         	movff	?_sqrtf+2,?_powf+2
  6196   000522  C063  F090         	movff	?_sqrtf+3,?_powf+3
  6197   000526  EF48  F015         	goto	l1205
  6198   00052A                     l5280:
  6199                           
  6200                           ; BSR set to: 1
  6201   00052A  C08D  F003         	movff	powf@x,fabsf@x
  6202   00052E  C08E  F004         	movff	powf@x+1,fabsf@x+1
  6203   000532  C08F  F005         	movff	powf@x+2,fabsf@x+2
  6204   000536  C090  F006         	movff	powf@x+3,fabsf@x+3
  6205   00053A  EC10  F030         	call	_fabsf	;wreg free
  6206   00053E  C003  F168         	movff	?_fabsf,powf@ax
  6207   000542  C004  F169         	movff	?_fabsf+1,powf@ax+1
  6208   000546  C005  F16A         	movff	?_fabsf+2,powf@ax+2
  6209   00054A  C006  F16B         	movff	?_fabsf+3,powf@ax+3
  6210   00054E  0E80               	movlw	128
  6211   000550  0101               	movlb	1	; () banked
  6212   000552  19A2               	xorwf	(powf@ix+2)& (0+255),w,b
  6213   000554  E10B               	bnz	u5130
  6214   000556  0E7F               	movlw	127
  6215   000558  19A3               	xorwf	(powf@ix+3)& (0+255),w,b
  6216   00055A  11A0               	iorwf	powf@ix& (0+255),w,b
  6217   00055C  11A1               	iorwf	(powf@ix+1)& (0+255),w,b
  6218   00055E  B4D8               	btfsc	status,2,c
  6219   000560  EFB4  F002         	goto	u5131
  6220   000564  EFB6  F002         	goto	u5130
  6221   000568                     u5131:
  6222   000568  EFCF  F002         	goto	l1238
  6223   00056C                     u5130:
  6224   00056C                     
  6225                           ; BSR set to: 1
  6226   00056C  51A0               	movf	powf@ix& (0+255),w,b
  6227   00056E  11A1               	iorwf	(powf@ix+1)& (0+255),w,b
  6228   000570  11A2               	iorwf	(powf@ix+2)& (0+255),w,b
  6229   000572  11A3               	iorwf	(powf@ix+3)& (0+255),w,b
  6230   000574  B4D8               	btfsc	status,2,c
  6231   000576  EFBF  F002         	goto	u5141
  6232   00057A  EFC1  F002         	goto	u5140
  6233   00057E                     u5141:
  6234   00057E  EFCF  F002         	goto	l1238
  6235   000582                     u5140:
  6236   000582                     
  6237                           ; BSR set to: 1
  6238   000582  0E80               	movlw	128
  6239   000584  19A2               	xorwf	(powf@ix+2)& (0+255),w,b
  6240   000586  E109               	bnz	u5151
  6241   000588  0E3F               	movlw	63
  6242   00058A  19A3               	xorwf	(powf@ix+3)& (0+255),w,b
  6243   00058C  11A0               	iorwf	powf@ix& (0+255),w,b
  6244   00058E  11A1               	iorwf	(powf@ix+1)& (0+255),w,b
  6245   000590  A4D8               	btfss	status,2,c
  6246   000592  EFCD  F002         	goto	u5151
  6247   000596  EFCF  F002         	goto	u5150
  6248   00059A                     u5151:
  6249   00059A  EF9E  F003         	goto	l5308
  6250   00059E                     u5150:
  6251   00059E                     l1238:
  6252                           
  6253                           ; BSR set to: 1
  6254   00059E  C168  F1AC         	movff	powf@ax,powf@z
  6255   0005A2  C169  F1AD         	movff	powf@ax+1,powf@z+1
  6256   0005A6  C16A  F1AE         	movff	powf@ax+2,powf@z+2
  6257   0005AA  C16B  F1AF         	movff	powf@ax+3,powf@z+3
  6258   0005AE                     
  6259                           ; BSR set to: 1
  6260   0005AE  BF77               	btfsc	(powf@hy+3)& (0+255),7,b
  6261   0005B0  EFDE  F002         	goto	u5160
  6262   0005B4  EFDC  F002         	goto	u5161
  6263   0005B8                     u5161:
  6264   0005B8  EFF8  F002         	goto	l5292
  6265   0005BC                     u5160:
  6266   0005BC                     
  6267                           ; BSR set to: 1
  6268   0005BC  0E00               	movlw	0
  6269   0005BE  6E4E               	movwf	___fldiv@b^0,c
  6270   0005C0  0E00               	movlw	0
  6271   0005C2  6E4F               	movwf	(___fldiv@b+1)^0,c
  6272   0005C4  0E80               	movlw	128
  6273   0005C6  6E50               	movwf	(___fldiv@b+2)^0,c
  6274   0005C8  0E3F               	movlw	63
  6275   0005CA  6E51               	movwf	(___fldiv@b+3)^0,c
  6276   0005CC  C1AC  F052         	movff	powf@z,___fldiv@a
  6277   0005D0  C1AD  F053         	movff	powf@z+1,___fldiv@a+1
  6278   0005D4  C1AE  F054         	movff	powf@z+2,___fldiv@a+2
  6279   0005D8  C1AF  F055         	movff	powf@z+3,___fldiv@a+3
  6280   0005DC  EC5F  F025         	call	___fldiv	;wreg free
  6281   0005E0  C04E  F1AC         	movff	?___fldiv,powf@z
  6282   0005E4  C04F  F1AD         	movff	?___fldiv+1,powf@z+1
  6283   0005E8  C050  F1AE         	movff	?___fldiv+2,powf@z+2
  6284   0005EC  C051  F1AF         	movff	?___fldiv+3,powf@z+3
  6285   0005F0                     l5292:
  6286   0005F0  0101               	movlb	1	; () banked
  6287   0005F2  BF5B               	btfsc	(powf@hx+3)& (0+255),7,b
  6288   0005F4  EF00  F003         	goto	u5170
  6289   0005F8  EFFE  F002         	goto	u5171
  6290   0005FC                     u5171:
  6291   0005FC  EF94  F003         	goto	l5304
  6292   000600                     u5170:
  6293   000600                     
  6294                           ; BSR set to: 1
  6295   000600  0E00               	movlw	0
  6296   000602  25A0               	addwf	powf@ix& (0+255),w,b
  6297   000604  0100               	movlb	0	; () banked
  6298   000606  6F95               	movwf	??_powf& (0+255),b
  6299   000608  0E00               	movlw	0
  6300   00060A  0101               	movlb	1	; () banked
  6301   00060C  21A1               	addwfc	(powf@ix+1)& (0+255),w,b
  6302   00060E  0100               	movlb	0	; () banked
  6303   000610  6F96               	movwf	(??_powf+1)& (0+255),b
  6304   000612  0E80               	movlw	128
  6305   000614  0101               	movlb	1	; () banked
  6306   000616  21A2               	addwfc	(powf@ix+2)& (0+255),w,b
  6307   000618  0100               	movlb	0	; () banked
  6308   00061A  6F97               	movwf	(??_powf+2)& (0+255),b
  6309   00061C  0EC0               	movlw	192
  6310   00061E  0101               	movlb	1	; () banked
  6311   000620  21A3               	addwfc	(powf@ix+3)& (0+255),w,b
  6312   000622  0100               	movlb	0	; () banked
  6313   000624  6F98               	movwf	(??_powf+3)& (0+255),b
  6314   000626  0101               	movlb	1	; () banked
  6315   000628  5148               	movf	powf@yisint& (0+255),w,b
  6316   00062A  0100               	movlb	0	; () banked
  6317   00062C  1195               	iorwf	??_powf& (0+255),w,b
  6318   00062E  6F99               	movwf	(??_powf+4)& (0+255),b
  6319   000630  0101               	movlb	1	; () banked
  6320   000632  5149               	movf	(powf@yisint+1)& (0+255),w,b
  6321   000634  0100               	movlb	0	; () banked
  6322   000636  1196               	iorwf	(??_powf+1)& (0+255),w,b
  6323   000638  6F9A               	movwf	(??_powf+5)& (0+255),b
  6324   00063A  0101               	movlb	1	; () banked
  6325   00063C  514A               	movf	(powf@yisint+2)& (0+255),w,b
  6326   00063E  0100               	movlb	0	; () banked
  6327   000640  1197               	iorwf	(??_powf+2)& (0+255),w,b
  6328   000642  6F9B               	movwf	(??_powf+6)& (0+255),b
  6329   000644  0101               	movlb	1	; () banked
  6330   000646  514B               	movf	(powf@yisint+3)& (0+255),w,b
  6331   000648  0100               	movlb	0	; () banked
  6332   00064A  1198               	iorwf	(??_powf+3)& (0+255),w,b
  6333   00064C  6F9C               	movwf	(??_powf+7)& (0+255),b
  6334   00064E  5199               	movf	(??_powf+4)& (0+255),w,b
  6335   000650  119A               	iorwf	(??_powf+5)& (0+255),w,b
  6336   000652  119B               	iorwf	(??_powf+6)& (0+255),w,b
  6337   000654  119C               	iorwf	(??_powf+7)& (0+255),w,b
  6338   000656  A4D8               	btfss	status,2,c
  6339   000658  EF30  F003         	goto	u5181
  6340   00065C  EF32  F003         	goto	u5180
  6341   000660                     u5181:
  6342   000660  EF76  F003         	goto	l5300
  6343   000664                     u5180:
  6344   000664                     
  6345                           ; BSR set to: 0
  6346   000664  0E00               	movlw	0
  6347   000666  6FFC               	movwf	(_errno+1)& (0+255),b
  6348   000668  0E21               	movlw	33
  6349   00066A  6FFB               	movwf	_errno& (0+255),b
  6350   00066C                     
  6351                           ; BSR set to: 0
  6352   00066C  C1AC  F04A         	movff	powf@z,___flsub@a
  6353   000670  C1AD  F04B         	movff	powf@z+1,___flsub@a+1
  6354   000674  C1AE  F04C         	movff	powf@z+2,___flsub@a+2
  6355   000678  C1AF  F04D         	movff	powf@z+3,___flsub@a+3
  6356   00067C  C1AC  F046         	movff	powf@z,___flsub@b
  6357   000680  C1AD  F047         	movff	powf@z+1,___flsub@b+1
  6358   000684  C1AE  F048         	movff	powf@z+2,___flsub@b+2
  6359   000688  C1AF  F049         	movff	powf@z+3,___flsub@b+3
  6360   00068C  ECB3  F02F         	call	___flsub	;wreg free
  6361   000690  C046  F04E         	movff	?___flsub,___fldiv@b
  6362   000694  C047  F04F         	movff	?___flsub+1,___fldiv@b+1
  6363   000698  C048  F050         	movff	?___flsub+2,___fldiv@b+2
  6364   00069C  C049  F051         	movff	?___flsub+3,___fldiv@b+3
  6365   0006A0  C1AC  F04A         	movff	powf@z,___flsub@a
  6366   0006A4  C1AD  F04B         	movff	powf@z+1,___flsub@a+1
  6367   0006A8  C1AE  F04C         	movff	powf@z+2,___flsub@a+2
  6368   0006AC  C1AF  F04D         	movff	powf@z+3,___flsub@a+3
  6369   0006B0  C1AC  F046         	movff	powf@z,___flsub@b
  6370   0006B4  C1AD  F047         	movff	powf@z+1,___flsub@b+1
  6371   0006B8  C1AE  F048         	movff	powf@z+2,___flsub@b+2
  6372   0006BC  C1AF  F049         	movff	powf@z+3,___flsub@b+3
  6373   0006C0  ECB3  F02F         	call	___flsub	;wreg free
  6374   0006C4  C046  F052         	movff	?___flsub,___fldiv@a
  6375   0006C8  C047  F053         	movff	?___flsub+1,___fldiv@a+1
  6376   0006CC  C048  F054         	movff	?___flsub+2,___fldiv@a+2
  6377   0006D0  C049  F055         	movff	?___flsub+3,___fldiv@a+3
  6378   0006D4  EC5F  F025         	call	___fldiv	;wreg free
  6379   0006D8  C04E  F1AC         	movff	?___fldiv,powf@z
  6380   0006DC  C04F  F1AD         	movff	?___fldiv+1,powf@z+1
  6381   0006E0  C050  F1AE         	movff	?___fldiv+2,powf@z+2
  6382   0006E4  C051  F1AF         	movff	?___fldiv+3,powf@z+3
  6383   0006E8  EF94  F003         	goto	l5304
  6384   0006EC                     l5300:
  6385                           
  6386                           ; BSR set to: 0
  6387   0006EC  0101               	movlb	1	; () banked
  6388   0006EE  0548               	decf	powf@yisint& (0+255),w,b
  6389   0006F0  1149               	iorwf	(powf@yisint+1)& (0+255),w,b
  6390   0006F2  114A               	iorwf	(powf@yisint+2)& (0+255),w,b
  6391   0006F4  114B               	iorwf	(powf@yisint+3)& (0+255),w,b
  6392   0006F6  A4D8               	btfss	status,2,c
  6393   0006F8  EF80  F003         	goto	u5191
  6394   0006FC  EF82  F003         	goto	u5190
  6395   000700                     u5191:
  6396   000700  EF94  F003         	goto	l5304
  6397   000704                     u5190:
  6398   000704                     
  6399                           ; BSR set to: 1
  6400   000704  C1AC  F003         	movff	powf@z,___flneg@f1
  6401   000708  C1AD  F004         	movff	powf@z+1,___flneg@f1+1
  6402   00070C  C1AE  F005         	movff	powf@z+2,___flneg@f1+2
  6403   000710  C1AF  F006         	movff	powf@z+3,___flneg@f1+3
  6404   000714  ECF4  F02F         	call	___flneg	;wreg free
  6405   000718  C003  F1AC         	movff	?___flneg,powf@z
  6406   00071C  C004  F1AD         	movff	?___flneg+1,powf@z+1
  6407   000720  C005  F1AE         	movff	?___flneg+2,powf@z+2
  6408   000724  C006  F1AF         	movff	?___flneg+3,powf@z+3
  6409   000728                     l5304:
  6410   000728  C1AC  F08D         	movff	powf@z,?_powf
  6411   00072C  C1AD  F08E         	movff	powf@z+1,?_powf+1
  6412   000730  C1AE  F08F         	movff	powf@z+2,?_powf+2
  6413   000734  C1AF  F090         	movff	powf@z+3,?_powf+3
  6414   000738  EF48  F015         	goto	l1205
  6415   00073C                     l5308:
  6416                           
  6417                           ; BSR set to: 1
  6418   00073C  0E00               	movlw	0
  6419   00073E  6F80               	movwf	powf@sn& (0+255),b
  6420   000740  0E00               	movlw	0
  6421   000742  6F81               	movwf	(powf@sn+1)& (0+255),b
  6422   000744  0E80               	movlw	128
  6423   000746  6F82               	movwf	(powf@sn+2)& (0+255),b
  6424   000748  0E3F               	movlw	63
  6425   00074A  6F83               	movwf	(powf@sn+3)& (0+255),b
  6426   00074C                     
  6427                           ; BSR set to: 1
  6428   00074C  BF5B               	btfsc	(powf@hx+3)& (0+255),7,b
  6429   00074E  EFAD  F003         	goto	u5200
  6430   000752  EFAB  F003         	goto	u5201
  6431   000756                     u5201:
  6432   000756  EF10  F004         	goto	l5324
  6433   00075A                     u5200:
  6434   00075A                     
  6435                           ; BSR set to: 1
  6436   00075A  5148               	movf	powf@yisint& (0+255),w,b
  6437   00075C  1149               	iorwf	(powf@yisint+1)& (0+255),w,b
  6438   00075E  114A               	iorwf	(powf@yisint+2)& (0+255),w,b
  6439   000760  114B               	iorwf	(powf@yisint+3)& (0+255),w,b
  6440   000762  A4D8               	btfss	status,2,c
  6441   000764  EFB6  F003         	goto	u5211
  6442   000768  EFB8  F003         	goto	u5210
  6443   00076C                     u5211:
  6444   00076C  EFFD  F003         	goto	l5320
  6445   000770                     u5210:
  6446   000770                     
  6447                           ; BSR set to: 1
  6448   000770  0E00               	movlw	0
  6449   000772  0100               	movlb	0	; () banked
  6450   000774  6FFC               	movwf	(_errno+1)& (0+255),b
  6451   000776  0E21               	movlw	33
  6452   000778  6FFB               	movwf	_errno& (0+255),b
  6453   00077A                     
  6454                           ; BSR set to: 0
  6455   00077A  C08D  F04A         	movff	powf@x,___flsub@a
  6456   00077E  C08E  F04B         	movff	powf@x+1,___flsub@a+1
  6457   000782  C08F  F04C         	movff	powf@x+2,___flsub@a+2
  6458   000786  C090  F04D         	movff	powf@x+3,___flsub@a+3
  6459   00078A  C08D  F046         	movff	powf@x,___flsub@b
  6460   00078E  C08E  F047         	movff	powf@x+1,___flsub@b+1
  6461   000792  C08F  F048         	movff	powf@x+2,___flsub@b+2
  6462   000796  C090  F049         	movff	powf@x+3,___flsub@b+3
  6463   00079A  ECB3  F02F         	call	___flsub	;wreg free
  6464   00079E  C046  F04E         	movff	?___flsub,___fldiv@b
  6465   0007A2  C047  F04F         	movff	?___flsub+1,___fldiv@b+1
  6466   0007A6  C048  F050         	movff	?___flsub+2,___fldiv@b+2
  6467   0007AA  C049  F051         	movff	?___flsub+3,___fldiv@b+3
  6468   0007AE  C08D  F04A         	movff	powf@x,___flsub@a
  6469   0007B2  C08E  F04B         	movff	powf@x+1,___flsub@a+1
  6470   0007B6  C08F  F04C         	movff	powf@x+2,___flsub@a+2
  6471   0007BA  C090  F04D         	movff	powf@x+3,___flsub@a+3
  6472   0007BE  C08D  F046         	movff	powf@x,___flsub@b
  6473   0007C2  C08E  F047         	movff	powf@x+1,___flsub@b+1
  6474   0007C6  C08F  F048         	movff	powf@x+2,___flsub@b+2
  6475   0007CA  C090  F049         	movff	powf@x+3,___flsub@b+3
  6476   0007CE  ECB3  F02F         	call	___flsub	;wreg free
  6477   0007D2  C046  F052         	movff	?___flsub,___fldiv@a
  6478   0007D6  C047  F053         	movff	?___flsub+1,___fldiv@a+1
  6479   0007DA  C048  F054         	movff	?___flsub+2,___fldiv@a+2
  6480   0007DE  C049  F055         	movff	?___flsub+3,___fldiv@a+3
  6481   0007E2  EC5F  F025         	call	___fldiv	;wreg free
  6482   0007E6  C04E  F08D         	movff	?___fldiv,?_powf
  6483   0007EA  C04F  F08E         	movff	?___fldiv+1,?_powf+1
  6484   0007EE  C050  F08F         	movff	?___fldiv+2,?_powf+2
  6485   0007F2  C051  F090         	movff	?___fldiv+3,?_powf+3
  6486   0007F6  EF48  F015         	goto	l1205
  6487   0007FA                     l5320:
  6488                           
  6489                           ; BSR set to: 1
  6490   0007FA  0548               	decf	powf@yisint& (0+255),w,b
  6491   0007FC  1149               	iorwf	(powf@yisint+1)& (0+255),w,b
  6492   0007FE  114A               	iorwf	(powf@yisint+2)& (0+255),w,b
  6493   000800  114B               	iorwf	(powf@yisint+3)& (0+255),w,b
  6494   000802  A4D8               	btfss	status,2,c
  6495   000804  EF06  F004         	goto	u5221
  6496   000808  EF08  F004         	goto	u5220
  6497   00080C                     u5221:
  6498   00080C  EF10  F004         	goto	l5324
  6499   000810                     u5220:
  6500   000810                     
  6501                           ; BSR set to: 1
  6502   000810  0E00               	movlw	0
  6503   000812  6F80               	movwf	powf@sn& (0+255),b
  6504   000814  0E00               	movlw	0
  6505   000816  6F81               	movwf	(powf@sn+1)& (0+255),b
  6506   000818  0E80               	movlw	128
  6507   00081A  6F82               	movwf	(powf@sn+2)& (0+255),b
  6508   00081C  0EBF               	movlw	191
  6509   00081E  6F83               	movwf	(powf@sn+3)& (0+255),b
  6510   000820                     l5324:
  6511                           
  6512                           ; BSR set to: 1
  6513   000820  BF8B               	btfsc	(powf@iy+3)& (0+255),7,b
  6514   000822  EF1F  F004         	goto	u5231
  6515   000826  0588               	decf	powf@iy& (0+255),w,b
  6516   000828  0E00               	movlw	0
  6517   00082A  5989               	subwfb	(powf@iy+1)& (0+255),w,b
  6518   00082C  0E00               	movlw	0
  6519   00082E  598A               	subwfb	(powf@iy+2)& (0+255),w,b
  6520   000830  0E4D               	movlw	77
  6521   000832  598B               	subwfb	(powf@iy+3)& (0+255),w,b
  6522   000834  A0D8               	btfss	status,0,c
  6523   000836  EF1F  F004         	goto	u5231
  6524   00083A  EF21  F004         	goto	u5230
  6525   00083E                     u5231:
  6526   00083E  EFA6  F006         	goto	l5372
  6527   000842                     u5230:
  6528   000842                     
  6529                           ; BSR set to: 1
  6530   000842  BFA3               	btfsc	(powf@ix+3)& (0+255),7,b
  6531   000844  EF33  F004         	goto	u5240
  6532   000848  0EF8               	movlw	248
  6533   00084A  5DA0               	subwf	powf@ix& (0+255),w,b
  6534   00084C  0EFF               	movlw	255
  6535   00084E  59A1               	subwfb	(powf@ix+1)& (0+255),w,b
  6536   000850  0E7F               	movlw	127
  6537   000852  59A2               	subwfb	(powf@ix+2)& (0+255),w,b
  6538   000854  0E3F               	movlw	63
  6539   000856  59A3               	subwfb	(powf@ix+3)& (0+255),w,b
  6540   000858  B0D8               	btfsc	status,0,c
  6541   00085A  EF31  F004         	goto	u5241
  6542   00085E  EF33  F004         	goto	u5240
  6543   000862                     u5241:
  6544   000862  EFA6  F004         	goto	l5336
  6545   000866                     u5240:
  6546   000866                     
  6547                           ; BSR set to: 1
  6548   000866  BF77               	btfsc	(powf@hy+3)& (0+255),7,b
  6549   000868  EF38  F004         	goto	u5251
  6550   00086C  EF3A  F004         	goto	u5250
  6551   000870                     u5251:
  6552   000870  EF70  F004         	goto	l5332
  6553   000874                     u5250:
  6554   000874                     
  6555                           ; BSR set to: 1
  6556   000874  0E60               	movlw	96
  6557   000876  6E17               	movwf	___flmul@a^0,c
  6558   000878  0E42               	movlw	66
  6559   00087A  6E18               	movwf	(___flmul@a+1)^0,c
  6560   00087C  0EA2               	movlw	162
  6561   00087E  6E19               	movwf	(___flmul@a+2)^0,c
  6562   000880  0E0D               	movlw	13
  6563   000882  6E1A               	movwf	(___flmul@a+3)^0,c
  6564   000884  C180  F013         	movff	powf@sn,___flmul@b
  6565   000888  C181  F014         	movff	powf@sn+1,___flmul@b+1
  6566   00088C  C182  F015         	movff	powf@sn+2,___flmul@b+2
  6567   000890  C183  F016         	movff	powf@sn+3,___flmul@b+3
  6568   000894  EC38  F023         	call	___flmul	;wreg free
  6569   000898  C013  F19C         	movff	?___flmul,_powf$1740
  6570   00089C  C014  F19D         	movff	?___flmul+1,_powf$1740+1
  6571   0008A0  C015  F19E         	movff	?___flmul+2,_powf$1740+2
  6572   0008A4  C016  F19F         	movff	?___flmul+3,_powf$1740+3
  6573   0008A8  C19C  F013         	movff	_powf$1740,___flmul@b
  6574   0008AC  C19D  F014         	movff	_powf$1740+1,___flmul@b+1
  6575   0008B0  C19E  F015         	movff	_powf$1740+2,___flmul@b+2
  6576   0008B4  C19F  F016         	movff	_powf$1740+3,___flmul@b+3
  6577   0008B8  0E60               	movlw	96
  6578   0008BA  6E17               	movwf	___flmul@a^0,c
  6579   0008BC  0E42               	movlw	66
  6580   0008BE  6E18               	movwf	(___flmul@a+1)^0,c
  6581   0008C0  0EA2               	movlw	162
  6582   0008C2  6E19               	movwf	(___flmul@a+2)^0,c
  6583   0008C4  0E0D               	movlw	13
  6584   0008C6  6E1A               	movwf	(___flmul@a+3)^0,c
  6585   0008C8  EC38  F023         	call	___flmul	;wreg free
  6586   0008CC  C013  F08D         	movff	?___flmul,?_powf
  6587   0008D0  C014  F08E         	movff	?___flmul+1,?_powf+1
  6588   0008D4  C015  F08F         	movff	?___flmul+2,?_powf+2
  6589   0008D8  C016  F090         	movff	?___flmul+3,?_powf+3
  6590   0008DC  EF48  F015         	goto	l1205
  6591   0008E0                     l5332:
  6592                           
  6593                           ; BSR set to: 1
  6594   0008E0  0ECA               	movlw	202
  6595   0008E2  6E17               	movwf	___flmul@a^0,c
  6596   0008E4  0EF2               	movlw	242
  6597   0008E6  6E18               	movwf	(___flmul@a+1)^0,c
  6598   0008E8  0E49               	movlw	73
  6599   0008EA  6E19               	movwf	(___flmul@a+2)^0,c
  6600   0008EC  0E71               	movlw	113
  6601   0008EE  6E1A               	movwf	(___flmul@a+3)^0,c
  6602   0008F0  C180  F013         	movff	powf@sn,___flmul@b
  6603   0008F4  C181  F014         	movff	powf@sn+1,___flmul@b+1
  6604   0008F8  C182  F015         	movff	powf@sn+2,___flmul@b+2
  6605   0008FC  C183  F016         	movff	powf@sn+3,___flmul@b+3
  6606   000900  EC38  F023         	call	___flmul	;wreg free
  6607   000904  C013  F19C         	movff	?___flmul,_powf$1740
  6608   000908  C014  F19D         	movff	?___flmul+1,_powf$1740+1
  6609   00090C  C015  F19E         	movff	?___flmul+2,_powf$1740+2
  6610   000910  C016  F19F         	movff	?___flmul+3,_powf$1740+3
  6611   000914  C19C  F013         	movff	_powf$1740,___flmul@b
  6612   000918  C19D  F014         	movff	_powf$1740+1,___flmul@b+1
  6613   00091C  C19E  F015         	movff	_powf$1740+2,___flmul@b+2
  6614   000920  C19F  F016         	movff	_powf$1740+3,___flmul@b+3
  6615   000924  0ECA               	movlw	202
  6616   000926  6E17               	movwf	___flmul@a^0,c
  6617   000928  0EF2               	movlw	242
  6618   00092A  6E18               	movwf	(___flmul@a+1)^0,c
  6619   00092C  0E49               	movlw	73
  6620   00092E  6E19               	movwf	(___flmul@a+2)^0,c
  6621   000930  0E71               	movlw	113
  6622   000932  6E1A               	movwf	(___flmul@a+3)^0,c
  6623   000934  EC38  F023         	call	___flmul	;wreg free
  6624   000938  C013  F08D         	movff	?___flmul,?_powf
  6625   00093C  C014  F08E         	movff	?___flmul+1,?_powf+1
  6626   000940  C015  F08F         	movff	?___flmul+2,?_powf+2
  6627   000944  C016  F090         	movff	?___flmul+3,?_powf+3
  6628   000948  EF48  F015         	goto	l1205
  6629   00094C                     l5336:
  6630                           
  6631                           ; BSR set to: 1
  6632   00094C  BFA3               	btfsc	(powf@ix+3)& (0+255),7,b
  6633   00094E  EFB6  F004         	goto	u5261
  6634   000952  0E08               	movlw	8
  6635   000954  5DA0               	subwf	powf@ix& (0+255),w,b
  6636   000956  0E00               	movlw	0
  6637   000958  59A1               	subwfb	(powf@ix+1)& (0+255),w,b
  6638   00095A  0E80               	movlw	128
  6639   00095C  59A2               	subwfb	(powf@ix+2)& (0+255),w,b
  6640   00095E  0E3F               	movlw	63
  6641   000960  59A3               	subwfb	(powf@ix+3)& (0+255),w,b
  6642   000962  A0D8               	btfss	status,0,c
  6643   000964  EFB6  F004         	goto	u5261
  6644   000968  EFB8  F004         	goto	u5260
  6645   00096C                     u5261:
  6646   00096C  EF33  F005         	goto	l5346
  6647   000970                     u5260:
  6648   000970                     
  6649                           ; BSR set to: 1
  6650   000970  BF77               	btfsc	(powf@hy+3)& (0+255),7,b
  6651   000972  EFC7  F004         	goto	u5270
  6652   000976  5177               	movf	(powf@hy+3)& (0+255),w,b
  6653   000978  1176               	iorwf	(powf@hy+2)& (0+255),w,b
  6654   00097A  1175               	iorwf	(powf@hy+1)& (0+255),w,b
  6655   00097C  E106               	bnz	u5271
  6656   00097E  0574               	decf	powf@hy& (0+255),w,b
  6657   000980  B0D8               	btfsc	status,0,c
  6658   000982  EFC5  F004         	goto	u5271
  6659   000986  EFC7  F004         	goto	u5270
  6660   00098A                     u5271:
  6661   00098A  EFFD  F004         	goto	l5342
  6662   00098E                     u5270:
  6663   00098E                     
  6664                           ; BSR set to: 1
  6665   00098E  0E60               	movlw	96
  6666   000990  6E17               	movwf	___flmul@a^0,c
  6667   000992  0E42               	movlw	66
  6668   000994  6E18               	movwf	(___flmul@a+1)^0,c
  6669   000996  0EA2               	movlw	162
  6670   000998  6E19               	movwf	(___flmul@a+2)^0,c
  6671   00099A  0E0D               	movlw	13
  6672   00099C  6E1A               	movwf	(___flmul@a+3)^0,c
  6673   00099E  C180  F013         	movff	powf@sn,___flmul@b
  6674   0009A2  C181  F014         	movff	powf@sn+1,___flmul@b+1
  6675   0009A6  C182  F015         	movff	powf@sn+2,___flmul@b+2
  6676   0009AA  C183  F016         	movff	powf@sn+3,___flmul@b+3
  6677   0009AE  EC38  F023         	call	___flmul	;wreg free
  6678   0009B2  C013  F19C         	movff	?___flmul,_powf$1740
  6679   0009B6  C014  F19D         	movff	?___flmul+1,_powf$1740+1
  6680   0009BA  C015  F19E         	movff	?___flmul+2,_powf$1740+2
  6681   0009BE  C016  F19F         	movff	?___flmul+3,_powf$1740+3
  6682   0009C2  C19C  F013         	movff	_powf$1740,___flmul@b
  6683   0009C6  C19D  F014         	movff	_powf$1740+1,___flmul@b+1
  6684   0009CA  C19E  F015         	movff	_powf$1740+2,___flmul@b+2
  6685   0009CE  C19F  F016         	movff	_powf$1740+3,___flmul@b+3
  6686   0009D2  0E60               	movlw	96
  6687   0009D4  6E17               	movwf	___flmul@a^0,c
  6688   0009D6  0E42               	movlw	66
  6689   0009D8  6E18               	movwf	(___flmul@a+1)^0,c
  6690   0009DA  0EA2               	movlw	162
  6691   0009DC  6E19               	movwf	(___flmul@a+2)^0,c
  6692   0009DE  0E0D               	movlw	13
  6693   0009E0  6E1A               	movwf	(___flmul@a+3)^0,c
  6694   0009E2  EC38  F023         	call	___flmul	;wreg free
  6695   0009E6  C013  F08D         	movff	?___flmul,?_powf
  6696   0009EA  C014  F08E         	movff	?___flmul+1,?_powf+1
  6697   0009EE  C015  F08F         	movff	?___flmul+2,?_powf+2
  6698   0009F2  C016  F090         	movff	?___flmul+3,?_powf+3
  6699   0009F6  EF48  F015         	goto	l1205
  6700   0009FA                     l5342:
  6701                           
  6702                           ; BSR set to: 1
  6703   0009FA  0ECA               	movlw	202
  6704   0009FC  6E17               	movwf	___flmul@a^0,c
  6705   0009FE  0EF2               	movlw	242
  6706   000A00  6E18               	movwf	(___flmul@a+1)^0,c
  6707   000A02  0E49               	movlw	73
  6708   000A04  6E19               	movwf	(___flmul@a+2)^0,c
  6709   000A06  0E71               	movlw	113
  6710   000A08  6E1A               	movwf	(___flmul@a+3)^0,c
  6711   000A0A  C180  F013         	movff	powf@sn,___flmul@b
  6712   000A0E  C181  F014         	movff	powf@sn+1,___flmul@b+1
  6713   000A12  C182  F015         	movff	powf@sn+2,___flmul@b+2
  6714   000A16  C183  F016         	movff	powf@sn+3,___flmul@b+3
  6715   000A1A  EC38  F023         	call	___flmul	;wreg free
  6716   000A1E  C013  F19C         	movff	?___flmul,_powf$1740
  6717   000A22  C014  F19D         	movff	?___flmul+1,_powf$1740+1
  6718   000A26  C015  F19E         	movff	?___flmul+2,_powf$1740+2
  6719   000A2A  C016  F19F         	movff	?___flmul+3,_powf$1740+3
  6720   000A2E  C19C  F013         	movff	_powf$1740,___flmul@b
  6721   000A32  C19D  F014         	movff	_powf$1740+1,___flmul@b+1
  6722   000A36  C19E  F015         	movff	_powf$1740+2,___flmul@b+2
  6723   000A3A  C19F  F016         	movff	_powf$1740+3,___flmul@b+3
  6724   000A3E  0ECA               	movlw	202
  6725   000A40  6E17               	movwf	___flmul@a^0,c
  6726   000A42  0EF2               	movlw	242
  6727   000A44  6E18               	movwf	(___flmul@a+1)^0,c
  6728   000A46  0E49               	movlw	73
  6729   000A48  6E19               	movwf	(___flmul@a+2)^0,c
  6730   000A4A  0E71               	movlw	113
  6731   000A4C  6E1A               	movwf	(___flmul@a+3)^0,c
  6732   000A4E  EC38  F023         	call	___flmul	;wreg free
  6733   000A52  C013  F08D         	movff	?___flmul,?_powf
  6734   000A56  C014  F08E         	movff	?___flmul+1,?_powf+1
  6735   000A5A  C015  F08F         	movff	?___flmul+2,?_powf+2
  6736   000A5E  C016  F090         	movff	?___flmul+3,?_powf+3
  6737   000A62  EF48  F015         	goto	l1205
  6738   000A66                     l5346:
  6739                           
  6740                           ; BSR set to: 1
  6741   000A66  C168  F02C         	movff	powf@ax,___fladd@b
  6742   000A6A  C169  F02D         	movff	powf@ax+1,___fladd@b+1
  6743   000A6E  C16A  F02E         	movff	powf@ax+2,___fladd@b+2
  6744   000A72  C16B  F02F         	movff	powf@ax+3,___fladd@b+3
  6745   000A76  0E00               	movlw	0
  6746   000A78  6E30               	movwf	___fladd@a^0,c
  6747   000A7A  0E00               	movlw	0
  6748   000A7C  6E31               	movwf	(___fladd@a+1)^0,c
  6749   000A7E  0E80               	movlw	128
  6750   000A80  6E32               	movwf	(___fladd@a+2)^0,c
  6751   000A82  0EBF               	movlw	191
  6752   000A84  6E33               	movwf	(___fladd@a+3)^0,c
  6753   000A86  ECD8  F020         	call	___fladd	;wreg free
  6754   000A8A  C02C  F1A8         	movff	?___fladd,powf@t
  6755   000A8E  C02D  F1A9         	movff	?___fladd+1,powf@t+1
  6756   000A92  C02E  F1AA         	movff	?___fladd+2,powf@t+2
  6757   000A96  C02F  F1AB         	movff	?___fladd+3,powf@t+3
  6758   000A9A  0E00               	movlw	0
  6759   000A9C  6E17               	movwf	___flmul@a^0,c
  6760   000A9E  0E00               	movlw	0
  6761   000AA0  6E18               	movwf	(___flmul@a+1)^0,c
  6762   000AA2  0E80               	movlw	128
  6763   000AA4  6E19               	movwf	(___flmul@a+2)^0,c
  6764   000AA6  0E3E               	movlw	62
  6765   000AA8  6E1A               	movwf	(___flmul@a+3)^0,c
  6766   000AAA  C1A8  F013         	movff	powf@t,___flmul@b
  6767   000AAE  C1A9  F014         	movff	powf@t+1,___flmul@b+1
  6768   000AB2  C1AA  F015         	movff	powf@t+2,___flmul@b+2
  6769   000AB6  C1AB  F016         	movff	powf@t+3,___flmul@b+3
  6770   000ABA  EC38  F023         	call	___flmul	;wreg free
  6771   000ABE  C013  F04A         	movff	?___flmul,___flsub@a
  6772   000AC2  C014  F04B         	movff	?___flmul+1,___flsub@a+1
  6773   000AC6  C015  F04C         	movff	?___flmul+2,___flsub@a+2
  6774   000ACA  C016  F04D         	movff	?___flmul+3,___flsub@a+3
  6775   000ACE  0EAB               	movlw	171
  6776   000AD0  6E46               	movwf	___flsub@b^0,c
  6777   000AD2  0EAA               	movlw	170
  6778   000AD4  6E47               	movwf	(___flsub@b+1)^0,c
  6779   000AD6  0EAA               	movlw	170
  6780   000AD8  6E48               	movwf	(___flsub@b+2)^0,c
  6781   000ADA  0E3E               	movlw	62
  6782   000ADC  6E49               	movwf	(___flsub@b+3)^0,c
  6783   000ADE  ECB3  F02F         	call	___flsub	;wreg free
  6784   000AE2  C046  F19C         	movff	?___flsub,_powf$1740
  6785   000AE6  C047  F19D         	movff	?___flsub+1,_powf$1740+1
  6786   000AEA  C048  F19E         	movff	?___flsub+2,_powf$1740+2
  6787   000AEE  C049  F19F         	movff	?___flsub+3,_powf$1740+3
  6788   000AF2  C1A8  F017         	movff	powf@t,___flmul@a
  6789   000AF6  C1A9  F018         	movff	powf@t+1,___flmul@a+1
  6790   000AFA  C1AA  F019         	movff	powf@t+2,___flmul@a+2
  6791   000AFE  C1AB  F01A         	movff	powf@t+3,___flmul@a+3
  6792   000B02  C1A8  F013         	movff	powf@t,___flmul@b
  6793   000B06  C1A9  F014         	movff	powf@t+1,___flmul@b+1
  6794   000B0A  C1AA  F015         	movff	powf@t+2,___flmul@b+2
  6795   000B0E  C1AB  F016         	movff	powf@t+3,___flmul@b+3
  6796   000B12  EC38  F023         	call	___flmul	;wreg free
  6797   000B16  C013  F14C         	movff	?___flmul,_powf$1741
  6798   000B1A  C014  F14D         	movff	?___flmul+1,_powf$1741+1
  6799   000B1E  C015  F14E         	movff	?___flmul+2,_powf$1741+2
  6800   000B22  C016  F14F         	movff	?___flmul+3,_powf$1741+3
  6801   000B26  C1A8  F017         	movff	powf@t,___flmul@a
  6802   000B2A  C1A9  F018         	movff	powf@t+1,___flmul@a+1
  6803   000B2E  C1AA  F019         	movff	powf@t+2,___flmul@a+2
  6804   000B32  C1AB  F01A         	movff	powf@t+3,___flmul@a+3
  6805   000B36  C19C  F013         	movff	_powf$1740,___flmul@b
  6806   000B3A  C19D  F014         	movff	_powf$1740+1,___flmul@b+1
  6807   000B3E  C19E  F015         	movff	_powf$1740+2,___flmul@b+2
  6808   000B42  C19F  F016         	movff	_powf$1740+3,___flmul@b+3
  6809   000B46  EC38  F023         	call	___flmul	;wreg free
  6810   000B4A  C013  F04A         	movff	?___flmul,___flsub@a
  6811   000B4E  C014  F04B         	movff	?___flmul+1,___flsub@a+1
  6812   000B52  C015  F04C         	movff	?___flmul+2,___flsub@a+2
  6813   000B56  C016  F04D         	movff	?___flmul+3,___flsub@a+3
  6814   000B5A  0E00               	movlw	0
  6815   000B5C  6E46               	movwf	___flsub@b^0,c
  6816   000B5E  0E00               	movlw	0
  6817   000B60  6E47               	movwf	(___flsub@b+1)^0,c
  6818   000B62  0E00               	movlw	0
  6819   000B64  6E48               	movwf	(___flsub@b+2)^0,c
  6820   000B66  0E3F               	movlw	63
  6821   000B68  6E49               	movwf	(___flsub@b+3)^0,c
  6822   000B6A  ECB3  F02F         	call	___flsub	;wreg free
  6823   000B6E  C046  F13C         	movff	?___flsub,_powf$1742
  6824   000B72  C047  F13D         	movff	?___flsub+1,_powf$1742+1
  6825   000B76  C048  F13E         	movff	?___flsub+2,_powf$1742+2
  6826   000B7A  C049  F13F         	movff	?___flsub+3,_powf$1742+3
  6827   000B7E  C14C  F013         	movff	_powf$1741,___flmul@b
  6828   000B82  C14D  F014         	movff	_powf$1741+1,___flmul@b+1
  6829   000B86  C14E  F015         	movff	_powf$1741+2,___flmul@b+2
  6830   000B8A  C14F  F016         	movff	_powf$1741+3,___flmul@b+3
  6831   000B8E  C13C  F017         	movff	_powf$1742,___flmul@a
  6832   000B92  C13D  F018         	movff	_powf$1742+1,___flmul@a+1
  6833   000B96  C13E  F019         	movff	_powf$1742+2,___flmul@a+2
  6834   000B9A  C13F  F01A         	movff	_powf$1742+3,___flmul@a+3
  6835   000B9E  EC38  F023         	call	___flmul	;wreg free
  6836   000BA2  C013  F138         	movff	?___flmul,powf@w
  6837   000BA6  C014  F139         	movff	?___flmul+1,powf@w+1
  6838   000BAA  C015  F13A         	movff	?___flmul+2,powf@w+2
  6839   000BAE  C016  F13B         	movff	?___flmul+3,powf@w+3
  6840   000BB2  C1A8  F013         	movff	powf@t,___flmul@b
  6841   000BB6  C1A9  F014         	movff	powf@t+1,___flmul@b+1
  6842   000BBA  C1AA  F015         	movff	powf@t+2,___flmul@b+2
  6843   000BBE  C1AB  F016         	movff	powf@t+3,___flmul@b+3
  6844   000BC2  0E00               	movlw	0
  6845   000BC4  6E17               	movwf	___flmul@a^0,c
  6846   000BC6  0EAA               	movlw	170
  6847   000BC8  6E18               	movwf	(___flmul@a+1)^0,c
  6848   000BCA  0EB8               	movlw	184
  6849   000BCC  6E19               	movwf	(___flmul@a+2)^0,c
  6850   000BCE  0E3F               	movlw	63
  6851   000BD0  6E1A               	movwf	(___flmul@a+3)^0,c
  6852   000BD2  EC38  F023         	call	___flmul	;wreg free
  6853   000BD6  C013  F16C         	movff	?___flmul,powf@u
  6854   000BDA  C014  F16D         	movff	?___flmul+1,powf@u+1
  6855   000BDE  C015  F16E         	movff	?___flmul+2,powf@u+2
  6856   000BE2  C016  F16F         	movff	?___flmul+3,powf@u+3
  6857   000BE6  0E70               	movlw	112
  6858   000BE8  6E17               	movwf	___flmul@a^0,c
  6859   000BEA  0EA5               	movlw	165
  6860   000BEC  6E18               	movwf	(___flmul@a+1)^0,c
  6861   000BEE  0EEC               	movlw	236
  6862   000BF0  6E19               	movwf	(___flmul@a+2)^0,c
  6863   000BF2  0E36               	movlw	54
  6864   000BF4  6E1A               	movwf	(___flmul@a+3)^0,c
  6865   000BF6  C1A8  F013         	movff	powf@t,___flmul@b
  6866   000BFA  C1A9  F014         	movff	powf@t+1,___flmul@b+1
  6867   000BFE  C1AA  F015         	movff	powf@t+2,___flmul@b+2
  6868   000C02  C1AB  F016         	movff	powf@t+3,___flmul@b+3
  6869   000C06  EC38  F023         	call	___flmul	;wreg free
  6870   000C0A  C013  F046         	movff	?___flmul,___flsub@b
  6871   000C0E  C014  F047         	movff	?___flmul+1,___flsub@b+1
  6872   000C12  C015  F048         	movff	?___flmul+2,___flsub@b+2
  6873   000C16  C016  F049         	movff	?___flmul+3,___flsub@b+3
  6874   000C1A  0E3B               	movlw	59
  6875   000C1C  6E17               	movwf	___flmul@a^0,c
  6876   000C1E  0EAA               	movlw	170
  6877   000C20  6E18               	movwf	(___flmul@a+1)^0,c
  6878   000C22  0EB8               	movlw	184
  6879   000C24  6E19               	movwf	(___flmul@a+2)^0,c
  6880   000C26  0E3F               	movlw	63
  6881   000C28  6E1A               	movwf	(___flmul@a+3)^0,c
  6882   000C2A  C138  F013         	movff	powf@w,___flmul@b
  6883   000C2E  C139  F014         	movff	powf@w+1,___flmul@b+1
  6884   000C32  C13A  F015         	movff	powf@w+2,___flmul@b+2
  6885   000C36  C13B  F016         	movff	powf@w+3,___flmul@b+3
  6886   000C3A  EC38  F023         	call	___flmul	;wreg free
  6887   000C3E  C013  F04A         	movff	?___flmul,___flsub@a
  6888   000C42  C014  F04B         	movff	?___flmul+1,___flsub@a+1
  6889   000C46  C015  F04C         	movff	?___flmul+2,___flsub@a+2
  6890   000C4A  C016  F04D         	movff	?___flmul+3,___flsub@a+3
  6891   000C4E  ECB3  F02F         	call	___flsub	;wreg free
  6892   000C52  C046  F170         	movff	?___flsub,powf@v
  6893   000C56  C047  F171         	movff	?___flsub+1,powf@v+1
  6894   000C5A  C048  F172         	movff	?___flsub+2,powf@v+2
  6895   000C5E  C049  F173         	movff	?___flsub+3,powf@v+3
  6896   000C62  C16C  F02C         	movff	powf@u,___fladd@b
  6897   000C66  C16D  F02D         	movff	powf@u+1,___fladd@b+1
  6898   000C6A  C16E  F02E         	movff	powf@u+2,___fladd@b+2
  6899   000C6E  C16F  F02F         	movff	powf@u+3,___fladd@b+3
  6900   000C72  C170  F030         	movff	powf@v,___fladd@a
  6901   000C76  C171  F031         	movff	powf@v+1,___fladd@a+1
  6902   000C7A  C172  F032         	movff	powf@v+2,___fladd@a+2
  6903   000C7E  C173  F033         	movff	powf@v+3,___fladd@a+3
  6904   000C82  ECD8  F020         	call	___fladd	;wreg free
  6905   000C86  C02C  F17C         	movff	?___fladd,powf@t1
  6906   000C8A  C02D  F17D         	movff	?___fladd+1,powf@t1+1
  6907   000C8E  C02E  F17E         	movff	?___fladd+2,powf@t1+2
  6908   000C92  C02F  F17F         	movff	?___fladd+3,powf@t1+3
  6909   000C96  C17C  F1B0         	movff	powf@t1,powf@__xc8_float_word
  6910   000C9A  C17D  F1B1         	movff	powf@t1+1,powf@__xc8_float_word+1
  6911   000C9E  C17E  F1B2         	movff	powf@t1+2,powf@__xc8_float_word+2
  6912   000CA2  C17F  F1B3         	movff	powf@t1+3,powf@__xc8_float_word+3
  6913   000CA6  C1B0  F18C         	movff	powf@__xc8_float_word,powf@is
  6914   000CAA  C1B1  F18D         	movff	powf@__xc8_float_word+1,powf@is+1
  6915   000CAE  C1B2  F18E         	movff	powf@__xc8_float_word+2,powf@is+2
  6916   000CB2  C1B3  F18F         	movff	powf@__xc8_float_word+3,powf@is+3
  6917   000CB6  0E00               	movlw	0
  6918   000CB8  0101               	movlb	1	; () banked
  6919   000CBA  158C               	andwf	powf@is& (0+255),w,b
  6920   000CBC  6FB0               	movwf	powf@__xc8_float_word& (0+255),b
  6921   000CBE  0EF0               	movlw	240
  6922   000CC0  158D               	andwf	(powf@is+1)& (0+255),w,b
  6923   000CC2  6FB1               	movwf	(powf@__xc8_float_word+1)& (0+255),b
  6924   000CC4  0EFF               	movlw	255
  6925   000CC6  158E               	andwf	(powf@is+2)& (0+255),w,b
  6926   000CC8  6FB2               	movwf	(powf@__xc8_float_word+2)& (0+255),b
  6927   000CCA  0EFF               	movlw	255
  6928   000CCC  158F               	andwf	(powf@is+3)& (0+255),w,b
  6929   000CCE  6FB3               	movwf	(powf@__xc8_float_word+3)& (0+255),b
  6930   000CD0                     
  6931                           ; BSR set to: 1
  6932   000CD0  C1B0  F17C         	movff	powf@__xc8_float_word,powf@t1
  6933   000CD4  C1B1  F17D         	movff	powf@__xc8_float_word+1,powf@t1+1
  6934   000CD8  C1B2  F17E         	movff	powf@__xc8_float_word+2,powf@t1+2
  6935   000CDC  C1B3  F17F         	movff	powf@__xc8_float_word+3,powf@t1+3
  6936   000CE0                     
  6937                           ; BSR set to: 1
  6938   000CE0  C16C  F04A         	movff	powf@u,___flsub@a
  6939   000CE4  C16D  F04B         	movff	powf@u+1,___flsub@a+1
  6940   000CE8  C16E  F04C         	movff	powf@u+2,___flsub@a+2
  6941   000CEC  C16F  F04D         	movff	powf@u+3,___flsub@a+3
  6942   000CF0  C17C  F046         	movff	powf@t1,___flsub@b
  6943   000CF4  C17D  F047         	movff	powf@t1+1,___flsub@b+1
  6944   000CF8  C17E  F048         	movff	powf@t1+2,___flsub@b+2
  6945   000CFC  C17F  F049         	movff	powf@t1+3,___flsub@b+3
  6946   000D00  ECB3  F02F         	call	___flsub	;wreg free
  6947   000D04  C046  F190         	movff	?___flsub,_powf$1743
  6948   000D08  C047  F191         	movff	?___flsub+1,_powf$1743+1
  6949   000D0C  C048  F192         	movff	?___flsub+2,_powf$1743+2
  6950   000D10  C049  F193         	movff	?___flsub+3,_powf$1743+3
  6951   000D14  C170  F046         	movff	powf@v,___flsub@b
  6952   000D18  C171  F047         	movff	powf@v+1,___flsub@b+1
  6953   000D1C  C172  F048         	movff	powf@v+2,___flsub@b+2
  6954   000D20  C173  F049         	movff	powf@v+3,___flsub@b+3
  6955   000D24  C190  F04A         	movff	_powf$1743,___flsub@a
  6956   000D28  C191  F04B         	movff	_powf$1743+1,___flsub@a+1
  6957   000D2C  C192  F04C         	movff	_powf$1743+2,___flsub@a+2
  6958   000D30  C193  F04D         	movff	_powf$1743+3,___flsub@a+3
  6959   000D34  ECB3  F02F         	call	___flsub	;wreg free
  6960   000D38  C046  F110         	movff	?___flsub,powf@t2
  6961   000D3C  C047  F111         	movff	?___flsub+1,powf@t2+1
  6962   000D40  C048  F112         	movff	?___flsub+2,powf@t2+2
  6963   000D44  C049  F113         	movff	?___flsub+3,powf@t2+3
  6964   000D48  EF3E  F00E         	goto	l5528
  6965   000D4C                     l5372:
  6966                           
  6967                           ; BSR set to: 1
  6968   000D4C  0E00               	movlw	0
  6969   000D4E  6F78               	movwf	powf@n& (0+255),b
  6970   000D50  0E00               	movlw	0
  6971   000D52  6F79               	movwf	(powf@n+1)& (0+255),b
  6972   000D54  0E00               	movlw	0
  6973   000D56  6F7A               	movwf	(powf@n+2)& (0+255),b
  6974   000D58  0E00               	movlw	0
  6975   000D5A  6F7B               	movwf	(powf@n+3)& (0+255),b
  6976   000D5C                     
  6977                           ; BSR set to: 1
  6978   000D5C  BFA3               	btfsc	(powf@ix+3)& (0+255),7,b
  6979   000D5E  EFBC  F006         	goto	u5280
  6980   000D62  51A3               	movf	(powf@ix+3)& (0+255),w,b
  6981   000D64  E107               	bnz	u5281
  6982   000D66  0E80               	movlw	128
  6983   000D68  5DA2               	subwf	(powf@ix+2)& (0+255),w,b
  6984   000D6A  B0D8               	btfsc	status,0,c
  6985   000D6C  EFBA  F006         	goto	u5281
  6986   000D70  EFBC  F006         	goto	u5280
  6987   000D74                     u5281:
  6988   000D74  EFEF  F006         	goto	l5384
  6989   000D78                     u5280:
  6990   000D78                     
  6991                           ; BSR set to: 1
  6992   000D78  C168  F013         	movff	powf@ax,___flmul@b
  6993   000D7C  C169  F014         	movff	powf@ax+1,___flmul@b+1
  6994   000D80  C16A  F015         	movff	powf@ax+2,___flmul@b+2
  6995   000D84  C16B  F016         	movff	powf@ax+3,___flmul@b+3
  6996   000D88  0E00               	movlw	0
  6997   000D8A  6E17               	movwf	___flmul@a^0,c
  6998   000D8C  0E00               	movlw	0
  6999   000D8E  6E18               	movwf	(___flmul@a+1)^0,c
  7000   000D90  0E80               	movlw	128
  7001   000D92  6E19               	movwf	(___flmul@a+2)^0,c
  7002   000D94  0E4B               	movlw	75
  7003   000D96  6E1A               	movwf	(___flmul@a+3)^0,c
  7004   000D98  EC38  F023         	call	___flmul	;wreg free
  7005   000D9C  C013  F168         	movff	?___flmul,powf@ax
  7006   000DA0  C014  F169         	movff	?___flmul+1,powf@ax+1
  7007   000DA4  C015  F16A         	movff	?___flmul+2,powf@ax+2
  7008   000DA8  C016  F16B         	movff	?___flmul+3,powf@ax+3
  7009   000DAC  0EE8               	movlw	232
  7010   000DAE  0101               	movlb	1	; () banked
  7011   000DB0  2778               	addwf	powf@n& (0+255),f,b
  7012   000DB2  0EFF               	movlw	255
  7013   000DB4  2379               	addwfc	(powf@n+1)& (0+255),f,b
  7014   000DB6  0EFF               	movlw	255
  7015   000DB8  237A               	addwfc	(powf@n+2)& (0+255),f,b
  7016   000DBA  0EFF               	movlw	255
  7017   000DBC  237B               	addwfc	(powf@n+3)& (0+255),f,b
  7018   000DBE                     
  7019                           ; BSR set to: 1
  7020   000DBE  C168  F1B0         	movff	powf@ax,powf@__xc8_float_word
  7021   000DC2  C169  F1B1         	movff	powf@ax+1,powf@__xc8_float_word+1
  7022   000DC6  C16A  F1B2         	movff	powf@ax+2,powf@__xc8_float_word+2
  7023   000DCA  C16B  F1B3         	movff	powf@ax+3,powf@__xc8_float_word+3
  7024   000DCE                     
  7025                           ; BSR set to: 1
  7026   000DCE  C1B0  F1A0         	movff	powf@__xc8_float_word,powf@ix
  7027   000DD2  C1B1  F1A1         	movff	powf@__xc8_float_word+1,powf@ix+1
  7028   000DD6  C1B2  F1A2         	movff	powf@__xc8_float_word+2,powf@ix+2
  7029   000DDA  C1B3  F1A3         	movff	powf@__xc8_float_word+3,powf@ix+3
  7030   000DDE                     l5384:
  7031                           
  7032                           ; BSR set to: 1
  7033   000DDE  0E17               	movlw	23
  7034   000DE0  0100               	movlb	0	; () banked
  7035   000DE2  6F95               	movwf	??_powf& (0+255),b
  7036   000DE4  C1A0  F096         	movff	powf@ix,??_powf+1
  7037   000DE8  C1A1  F097         	movff	powf@ix+1,??_powf+2
  7038   000DEC  C1A2  F098         	movff	powf@ix+2,??_powf+3
  7039   000DF0  C1A3  F099         	movff	powf@ix+3,??_powf+4
  7040   000DF4                     u5295:
  7041   000DF4  6795               	tstfsz	??_powf& (0+255),b
  7042   000DF6  EFFF  F006         	goto	u5296
  7043   000DFA  EF07  F007         	goto	u5297
  7044   000DFE                     u5296:
  7045   000DFE  3599               	rlcf	(??_powf+4)& (0+255),w,b
  7046   000E00  3399               	rrcf	(??_powf+4)& (0+255),f,b
  7047   000E02  3398               	rrcf	(??_powf+3)& (0+255),f,b
  7048   000E04  3397               	rrcf	(??_powf+2)& (0+255),f,b
  7049   000E06  3396               	rrcf	(??_powf+1)& (0+255),f,b
  7050   000E08  2F95               	decfsz	??_powf& (0+255),f,b
  7051   000E0A  EFFA  F006         	goto	u5295
  7052   000E0E                     u5297:
  7053   000E0E  0E81               	movlw	129
  7054   000E10  0100               	movlb	0	; () banked
  7055   000E12  2596               	addwf	(??_powf+1)& (0+255),w,b
  7056   000E14  6F9A               	movwf	(??_powf+5)& (0+255),b
  7057   000E16  0EFF               	movlw	255
  7058   000E18  2197               	addwfc	(??_powf+2)& (0+255),w,b
  7059   000E1A  6F9B               	movwf	(??_powf+6)& (0+255),b
  7060   000E1C  0EFF               	movlw	255
  7061   000E1E  2198               	addwfc	(??_powf+3)& (0+255),w,b
  7062   000E20  6F9C               	movwf	(??_powf+7)& (0+255),b
  7063   000E22  0EFF               	movlw	255
  7064   000E24  2199               	addwfc	(??_powf+4)& (0+255),w,b
  7065   000E26  6F9D               	movwf	(??_powf+8)& (0+255),b
  7066   000E28  519A               	movf	(??_powf+5)& (0+255),w,b
  7067   000E2A  0101               	movlb	1	; () banked
  7068   000E2C  2778               	addwf	powf@n& (0+255),f,b
  7069   000E2E  0100               	movlb	0	; () banked
  7070   000E30  519B               	movf	(??_powf+6)& (0+255),w,b
  7071   000E32  0101               	movlb	1	; () banked
  7072   000E34  2379               	addwfc	(powf@n+1)& (0+255),f,b
  7073   000E36  0100               	movlb	0	; () banked
  7074   000E38  519C               	movf	(??_powf+7)& (0+255),w,b
  7075   000E3A  0101               	movlb	1	; () banked
  7076   000E3C  237A               	addwfc	(powf@n+2)& (0+255),f,b
  7077   000E3E  0100               	movlb	0	; () banked
  7078   000E40  519D               	movf	(??_powf+8)& (0+255),w,b
  7079   000E42  0101               	movlb	1	; () banked
  7080   000E44  237B               	addwfc	(powf@n+3)& (0+255),f,b
  7081   000E46                     
  7082                           ; BSR set to: 1
  7083   000E46  0EFF               	movlw	255
  7084   000E48  15A0               	andwf	powf@ix& (0+255),w,b
  7085   000E4A  6FA4               	movwf	powf@j& (0+255),b
  7086   000E4C  0EFF               	movlw	255
  7087   000E4E  15A1               	andwf	(powf@ix+1)& (0+255),w,b
  7088   000E50  6FA5               	movwf	(powf@j+1)& (0+255),b
  7089   000E52  0E7F               	movlw	127
  7090   000E54  15A2               	andwf	(powf@ix+2)& (0+255),w,b
  7091   000E56  6FA6               	movwf	(powf@j+2)& (0+255),b
  7092   000E58  0E00               	movlw	0
  7093   000E5A  15A3               	andwf	(powf@ix+3)& (0+255),w,b
  7094   000E5C  6FA7               	movwf	(powf@j+3)& (0+255),b
  7095   000E5E                     
  7096                           ; BSR set to: 1
  7097   000E5E  0E00               	movlw	0
  7098   000E60  11A4               	iorwf	powf@j& (0+255),w,b
  7099   000E62  6FA0               	movwf	powf@ix& (0+255),b
  7100   000E64  0E00               	movlw	0
  7101   000E66  11A5               	iorwf	(powf@j+1)& (0+255),w,b
  7102   000E68  6FA1               	movwf	(powf@ix+1)& (0+255),b
  7103   000E6A  0E80               	movlw	128
  7104   000E6C  11A6               	iorwf	(powf@j+2)& (0+255),w,b
  7105   000E6E  6FA2               	movwf	(powf@ix+2)& (0+255),b
  7106   000E70  0E3F               	movlw	63
  7107   000E72  11A7               	iorwf	(powf@j+3)& (0+255),w,b
  7108   000E74  6FA3               	movwf	(powf@ix+3)& (0+255),b
  7109   000E76                     
  7110                           ; BSR set to: 1
  7111   000E76  BFA7               	btfsc	(powf@j+3)& (0+255),7,b
  7112   000E78  EF4D  F007         	goto	u5300
  7113   000E7C  51A7               	movf	(powf@j+3)& (0+255),w,b
  7114   000E7E  E10B               	bnz	u5301
  7115   000E80  0E72               	movlw	114
  7116   000E82  5DA4               	subwf	powf@j& (0+255),w,b
  7117   000E84  0EC4               	movlw	196
  7118   000E86  59A5               	subwfb	(powf@j+1)& (0+255),w,b
  7119   000E88  0E1C               	movlw	28
  7120   000E8A  59A6               	subwfb	(powf@j+2)& (0+255),w,b
  7121   000E8C  B0D8               	btfsc	status,0,c
  7122   000E8E  EF4B  F007         	goto	u5301
  7123   000E92  EF4D  F007         	goto	u5300
  7124   000E96                     u5301:
  7125   000E96  EF57  F007         	goto	l5394
  7126   000E9A                     u5300:
  7127   000E9A                     
  7128                           ; BSR set to: 1
  7129   000E9A  0E00               	movlw	0
  7130   000E9C  6F98               	movwf	powf@k& (0+255),b
  7131   000E9E  0E00               	movlw	0
  7132   000EA0  6F99               	movwf	(powf@k+1)& (0+255),b
  7133   000EA2  0E00               	movlw	0
  7134   000EA4  6F9A               	movwf	(powf@k+2)& (0+255),b
  7135   000EA6  0E00               	movlw	0
  7136   000EA8  6F9B               	movwf	(powf@k+3)& (0+255),b
  7137   000EAA  EF89  F007         	goto	l5404
  7138   000EAE                     l5394:
  7139                           
  7140                           ; BSR set to: 1
  7141   000EAE  BFA7               	btfsc	(powf@j+3)& (0+255),7,b
  7142   000EB0  EF69  F007         	goto	u5310
  7143   000EB4  51A7               	movf	(powf@j+3)& (0+255),w,b
  7144   000EB6  E10B               	bnz	u5311
  7145   000EB8  0ED7               	movlw	215
  7146   000EBA  5DA4               	subwf	powf@j& (0+255),w,b
  7147   000EBC  0EB3               	movlw	179
  7148   000EBE  59A5               	subwfb	(powf@j+1)& (0+255),w,b
  7149   000EC0  0E5D               	movlw	93
  7150   000EC2  59A6               	subwfb	(powf@j+2)& (0+255),w,b
  7151   000EC4  B0D8               	btfsc	status,0,c
  7152   000EC6  EF67  F007         	goto	u5311
  7153   000ECA  EF69  F007         	goto	u5310
  7154   000ECE                     u5311:
  7155   000ECE  EF73  F007         	goto	l5398
  7156   000ED2                     u5310:
  7157   000ED2                     
  7158                           ; BSR set to: 1
  7159   000ED2  0E01               	movlw	1
  7160   000ED4  6F98               	movwf	powf@k& (0+255),b
  7161   000ED6  0E00               	movlw	0
  7162   000ED8  6F99               	movwf	(powf@k+1)& (0+255),b
  7163   000EDA  0E00               	movlw	0
  7164   000EDC  6F9A               	movwf	(powf@k+2)& (0+255),b
  7165   000EDE  0E00               	movlw	0
  7166   000EE0  6F9B               	movwf	(powf@k+3)& (0+255),b
  7167   000EE2  EF89  F007         	goto	l5404
  7168   000EE6                     l5398:
  7169                           
  7170                           ; BSR set to: 1
  7171   000EE6  0E00               	movlw	0
  7172   000EE8  6F98               	movwf	powf@k& (0+255),b
  7173   000EEA  0E00               	movlw	0
  7174   000EEC  6F99               	movwf	(powf@k+1)& (0+255),b
  7175   000EEE  0E00               	movlw	0
  7176   000EF0  6F9A               	movwf	(powf@k+2)& (0+255),b
  7177   000EF2  0E00               	movlw	0
  7178   000EF4  6F9B               	movwf	(powf@k+3)& (0+255),b
  7179   000EF6                     
  7180                           ; BSR set to: 1
  7181   000EF6  0E01               	movlw	1
  7182   000EF8  2778               	addwf	powf@n& (0+255),f,b
  7183   000EFA  0E00               	movlw	0
  7184   000EFC  2379               	addwfc	(powf@n+1)& (0+255),f,b
  7185   000EFE  237A               	addwfc	(powf@n+2)& (0+255),f,b
  7186   000F00  237B               	addwfc	(powf@n+3)& (0+255),f,b
  7187   000F02                     
  7188                           ; BSR set to: 1
  7189   000F02  0E00               	movlw	0
  7190   000F04  27A0               	addwf	powf@ix& (0+255),f,b
  7191   000F06  0E00               	movlw	0
  7192   000F08  23A1               	addwfc	(powf@ix+1)& (0+255),f,b
  7193   000F0A  0E80               	movlw	128
  7194   000F0C  23A2               	addwfc	(powf@ix+2)& (0+255),f,b
  7195   000F0E  0EFF               	movlw	255
  7196   000F10  23A3               	addwfc	(powf@ix+3)& (0+255),f,b
  7197   000F12                     l5404:
  7198                           
  7199                           ; BSR set to: 1
  7200   000F12  C1A0  F1B0         	movff	powf@ix,powf@__xc8_float_word
  7201   000F16  C1A1  F1B1         	movff	powf@ix+1,powf@__xc8_float_word+1
  7202   000F1A  C1A2  F1B2         	movff	powf@ix+2,powf@__xc8_float_word+2
  7203   000F1E  C1A3  F1B3         	movff	powf@ix+3,powf@__xc8_float_word+3
  7204   000F22                     
  7205                           ; BSR set to: 1
  7206   000F22  C1B0  F168         	movff	powf@__xc8_float_word,powf@ax
  7207   000F26  C1B1  F169         	movff	powf@__xc8_float_word+1,powf@ax+1
  7208   000F2A  C1B2  F16A         	movff	powf@__xc8_float_word+2,powf@ax+2
  7209   000F2E  C1B3  F16B         	movff	powf@__xc8_float_word+3,powf@ax+3
  7210   000F32                     
  7211                           ; BSR set to: 1
  7212   000F32  C168  F046         	movff	powf@ax,___flsub@b
  7213   000F36  C169  F047         	movff	powf@ax+1,___flsub@b+1
  7214   000F3A  C16A  F048         	movff	powf@ax+2,___flsub@b+2
  7215   000F3E  C16B  F049         	movff	powf@ax+3,___flsub@b+3
  7216   000F42  C198  F095         	movff	powf@k,??_powf
  7217   000F46  C199  F096         	movff	powf@k+1,??_powf+1
  7218   000F4A  0100               	movlb	0	; () banked
  7219   000F4C  90D8               	bcf	status,0,c
  7220   000F4E  3795               	rlcf	??_powf& (0+255),f,b
  7221   000F50  3796               	rlcf	(??_powf+1)& (0+255),f,b
  7222   000F52  90D8               	bcf	status,0,c
  7223   000F54  3795               	rlcf	??_powf& (0+255),f,b
  7224   000F56  3796               	rlcf	(??_powf+1)& (0+255),f,b
  7225   000F58  0EE5               	movlw	low _bp
  7226   000F5A  2595               	addwf	??_powf& (0+255),w,b
  7227   000F5C  6EF6               	movwf	tblptrl,c
  7228   000F5E  0EFF               	movlw	high _bp
  7229   000F60  2196               	addwfc	(??_powf+1)& (0+255),w,b
  7230   000F62  6EF7               	movwf	tblptrh,c
  7231   000F64                     	if	1	;There are 3 active tblptr bytes
  7232   000F64  6AF8               	clrf	tblptru,c
  7233   000F66  0E00               	movlw	low (__mediumconst shr (0+16))
  7234   000F68  22F8               	addwfc	tblptru,f,c
  7235   000F6A                     	endif
  7236   000F6A  0009               	tblrd		*+
  7237   000F6C  006F FFD4  F04A    	movff	tablat,___flsub@a
  7238   000F72  0009               	tblrd		*+
  7239   000F74  006F FFD4  F04B    	movff	tablat,___flsub@a+1
  7240   000F7A  0009               	tblrd		*+
  7241   000F7C  006F FFD4  F04C    	movff	tablat,___flsub@a+2
  7242   000F82  000A               	tblrd		*-
  7243   000F84  006F FFD4  F04D    	movff	tablat,___flsub@a+3
  7244   000F8A  ECB3  F02F         	call	___flsub	;wreg free
  7245   000F8E  C046  F16C         	movff	?___flsub,powf@u
  7246   000F92  C047  F16D         	movff	?___flsub+1,powf@u+1
  7247   000F96  C048  F16E         	movff	?___flsub+2,powf@u+2
  7248   000F9A  C049  F16F         	movff	?___flsub+3,powf@u+3
  7249   000F9E  0E00               	movlw	0
  7250   000FA0  6E4E               	movwf	___fldiv@b^0,c
  7251   000FA2  0E00               	movlw	0
  7252   000FA4  6E4F               	movwf	(___fldiv@b+1)^0,c
  7253   000FA6  0E80               	movlw	128
  7254   000FA8  6E50               	movwf	(___fldiv@b+2)^0,c
  7255   000FAA  0E3F               	movlw	63
  7256   000FAC  6E51               	movwf	(___fldiv@b+3)^0,c
  7257   000FAE  C168  F030         	movff	powf@ax,___fladd@a
  7258   000FB2  C169  F031         	movff	powf@ax+1,___fladd@a+1
  7259   000FB6  C16A  F032         	movff	powf@ax+2,___fladd@a+2
  7260   000FBA  C16B  F033         	movff	powf@ax+3,___fladd@a+3
  7261   000FBE  C198  F095         	movff	powf@k,??_powf
  7262   000FC2  C199  F096         	movff	powf@k+1,??_powf+1
  7263   000FC6  0100               	movlb	0	; () banked
  7264   000FC8  90D8               	bcf	status,0,c
  7265   000FCA  3795               	rlcf	??_powf& (0+255),f,b
  7266   000FCC  3796               	rlcf	(??_powf+1)& (0+255),f,b
  7267   000FCE  90D8               	bcf	status,0,c
  7268   000FD0  3795               	rlcf	??_powf& (0+255),f,b
  7269   000FD2  3796               	rlcf	(??_powf+1)& (0+255),f,b
  7270   000FD4  0EE5               	movlw	low _bp
  7271   000FD6  2595               	addwf	??_powf& (0+255),w,b
  7272   000FD8  6EF6               	movwf	tblptrl,c
  7273   000FDA  0EFF               	movlw	high _bp
  7274   000FDC  2196               	addwfc	(??_powf+1)& (0+255),w,b
  7275   000FDE  6EF7               	movwf	tblptrh,c
  7276   000FE0                     	if	1	;There are 3 active tblptr bytes
  7277   000FE0  6AF8               	clrf	tblptru,c
  7278   000FE2  0E00               	movlw	low (__mediumconst shr (0+16))
  7279   000FE4  22F8               	addwfc	tblptru,f,c
  7280   000FE6                     	endif
  7281   000FE6  0009               	tblrd		*+
  7282   000FE8  006F FFD4  F02C    	movff	tablat,___fladd@b
  7283   000FEE  0009               	tblrd		*+
  7284   000FF0  006F FFD4  F02D    	movff	tablat,___fladd@b+1
  7285   000FF6  0009               	tblrd		*+
  7286   000FF8  006F FFD4  F02E    	movff	tablat,___fladd@b+2
  7287   000FFE  000A               	tblrd		*-
  7288   001000  006F FFD4  F02F    	movff	tablat,___fladd@b+3
  7289   001006  ECD8  F020         	call	___fladd	;wreg free
  7290   00100A  C02C  F052         	movff	?___fladd,___fldiv@a
  7291   00100E  C02D  F053         	movff	?___fladd+1,___fldiv@a+1
  7292   001012  C02E  F054         	movff	?___fladd+2,___fldiv@a+2
  7293   001016  C02F  F055         	movff	?___fladd+3,___fldiv@a+3
  7294   00101A  EC5F  F025         	call	___fldiv	;wreg free
  7295   00101E  C04E  F170         	movff	?___fldiv,powf@v
  7296   001022  C04F  F171         	movff	?___fldiv+1,powf@v+1
  7297   001026  C050  F172         	movff	?___fldiv+2,powf@v+2
  7298   00102A  C051  F173         	movff	?___fldiv+3,powf@v+3
  7299   00102E  C16C  F013         	movff	powf@u,___flmul@b
  7300   001032  C16D  F014         	movff	powf@u+1,___flmul@b+1
  7301   001036  C16E  F015         	movff	powf@u+2,___flmul@b+2
  7302   00103A  C16F  F016         	movff	powf@u+3,___flmul@b+3
  7303   00103E  C170  F017         	movff	powf@v,___flmul@a
  7304   001042  C171  F018         	movff	powf@v+1,___flmul@a+1
  7305   001046  C172  F019         	movff	powf@v+2,___flmul@a+2
  7306   00104A  C173  F01A         	movff	powf@v+3,___flmul@a+3
  7307   00104E  EC38  F023         	call	___flmul	;wreg free
  7308   001052  C013  F154         	movff	?___flmul,powf@s
  7309   001056  C014  F155         	movff	?___flmul+1,powf@s+1
  7310   00105A  C015  F156         	movff	?___flmul+2,powf@s+2
  7311   00105E  C016  F157         	movff	?___flmul+3,powf@s+3
  7312   001062  C154  F164         	movff	powf@s,powf@s_h
  7313   001066  C155  F165         	movff	powf@s+1,powf@s_h+1
  7314   00106A  C156  F166         	movff	powf@s+2,powf@s_h+2
  7315   00106E  C157  F167         	movff	powf@s+3,powf@s_h+3
  7316   001072  C164  F1B0         	movff	powf@s_h,powf@__xc8_float_word
  7317   001076  C165  F1B1         	movff	powf@s_h+1,powf@__xc8_float_word+1
  7318   00107A  C166  F1B2         	movff	powf@s_h+2,powf@__xc8_float_word+2
  7319   00107E  C167  F1B3         	movff	powf@s_h+3,powf@__xc8_float_word+3
  7320   001082  C1B0  F18C         	movff	powf@__xc8_float_word,powf@is
  7321   001086  C1B1  F18D         	movff	powf@__xc8_float_word+1,powf@is+1
  7322   00108A  C1B2  F18E         	movff	powf@__xc8_float_word+2,powf@is+2
  7323   00108E  C1B3  F18F         	movff	powf@__xc8_float_word+3,powf@is+3
  7324   001092  0E00               	movlw	0
  7325   001094  0101               	movlb	1	; () banked
  7326   001096  158C               	andwf	powf@is& (0+255),w,b
  7327   001098  6FB0               	movwf	powf@__xc8_float_word& (0+255),b
  7328   00109A  0EF0               	movlw	240
  7329   00109C  158D               	andwf	(powf@is+1)& (0+255),w,b
  7330   00109E  6FB1               	movwf	(powf@__xc8_float_word+1)& (0+255),b
  7331   0010A0  0EFF               	movlw	255
  7332   0010A2  158E               	andwf	(powf@is+2)& (0+255),w,b
  7333   0010A4  6FB2               	movwf	(powf@__xc8_float_word+2)& (0+255),b
  7334   0010A6  0EFF               	movlw	255
  7335   0010A8  158F               	andwf	(powf@is+3)& (0+255),w,b
  7336   0010AA  6FB3               	movwf	(powf@__xc8_float_word+3)& (0+255),b
  7337   0010AC                     
  7338                           ; BSR set to: 1
  7339   0010AC  C1B0  F164         	movff	powf@__xc8_float_word,powf@s_h
  7340   0010B0  C1B1  F165         	movff	powf@__xc8_float_word+1,powf@s_h+1
  7341   0010B4  C1B2  F166         	movff	powf@__xc8_float_word+2,powf@s_h+2
  7342   0010B8  C1B3  F167         	movff	powf@__xc8_float_word+3,powf@s_h+3
  7343   0010BC                     
  7344                           ; BSR set to: 1
  7345   0010BC  C1A0  F095         	movff	powf@ix,??_powf
  7346   0010C0  C1A1  F096         	movff	powf@ix+1,??_powf+1
  7347   0010C4  C1A2  F097         	movff	powf@ix+2,??_powf+2
  7348   0010C8  C1A3  F098         	movff	powf@ix+3,??_powf+3
  7349   0010CC  0100               	movlb	0	; () banked
  7350   0010CE  3598               	rlcf	(??_powf+3)& (0+255),w,b
  7351   0010D0  3398               	rrcf	(??_powf+3)& (0+255),f,b
  7352   0010D2  3397               	rrcf	(??_powf+2)& (0+255),f,b
  7353   0010D4  3396               	rrcf	(??_powf+1)& (0+255),f,b
  7354   0010D6  3395               	rrcf	??_powf& (0+255),f,b
  7355   0010D8  0E00               	movlw	0
  7356   0010DA  1595               	andwf	??_powf& (0+255),w,b
  7357   0010DC  6F99               	movwf	(??_powf+4)& (0+255),b
  7358   0010DE  0EF0               	movlw	240
  7359   0010E0  1596               	andwf	(??_powf+1)& (0+255),w,b
  7360   0010E2  6F9A               	movwf	(??_powf+5)& (0+255),b
  7361   0010E4  0EFF               	movlw	255
  7362   0010E6  1597               	andwf	(??_powf+2)& (0+255),w,b
  7363   0010E8  6F9B               	movwf	(??_powf+6)& (0+255),b
  7364   0010EA  0EFF               	movlw	255
  7365   0010EC  1598               	andwf	(??_powf+3)& (0+255),w,b
  7366   0010EE  6F9C               	movwf	(??_powf+7)& (0+255),b
  7367   0010F0  0E00               	movlw	0
  7368   0010F2  1199               	iorwf	(??_powf+4)& (0+255),w,b
  7369   0010F4  0101               	movlb	1	; () banked
  7370   0010F6  6F8C               	movwf	powf@is& (0+255),b
  7371   0010F8  0E00               	movlw	0
  7372   0010FA  0100               	movlb	0	; () banked
  7373   0010FC  119A               	iorwf	(??_powf+5)& (0+255),w,b
  7374   0010FE  0101               	movlb	1	; () banked
  7375   001100  6F8D               	movwf	(powf@is+1)& (0+255),b
  7376   001102  0E00               	movlw	0
  7377   001104  0100               	movlb	0	; () banked
  7378   001106  119B               	iorwf	(??_powf+6)& (0+255),w,b
  7379   001108  0101               	movlb	1	; () banked
  7380   00110A  6F8E               	movwf	(powf@is+2)& (0+255),b
  7381   00110C  0E20               	movlw	32
  7382   00110E  0100               	movlb	0	; () banked
  7383   001110  119C               	iorwf	(??_powf+7)& (0+255),w,b
  7384   001112  0101               	movlb	1	; () banked
  7385   001114  6F8F               	movwf	(powf@is+3)& (0+255),b
  7386   001116                     
  7387                           ; BSR set to: 1
  7388   001116  C198  F095         	movff	powf@k,??_powf
  7389   00111A  C199  F096         	movff	powf@k+1,??_powf+1
  7390   00111E  C19A  F097         	movff	powf@k+2,??_powf+2
  7391   001122  C19B  F098         	movff	powf@k+3,??_powf+3
  7392   001126  0E15               	movlw	21
  7393   001128                     u5325:
  7394   001128  90D8               	bcf	status,0,c
  7395   00112A  0100               	movlb	0	; () banked
  7396   00112C  3795               	rlcf	??_powf& (0+255),f,b
  7397   00112E  3796               	rlcf	(??_powf+1)& (0+255),f,b
  7398   001130  3797               	rlcf	(??_powf+2)& (0+255),f,b
  7399   001132  3798               	rlcf	(??_powf+3)& (0+255),f,b
  7400   001134  2EE8               	decfsz	wreg,f,c
  7401   001136  EF94  F008         	goto	u5325
  7402   00113A  0101               	movlb	1	; () banked
  7403   00113C  518C               	movf	powf@is& (0+255),w,b
  7404   00113E  0100               	movlb	0	; () banked
  7405   001140  2595               	addwf	??_powf& (0+255),w,b
  7406   001142  6F99               	movwf	(??_powf+4)& (0+255),b
  7407   001144  0101               	movlb	1	; () banked
  7408   001146  518D               	movf	(powf@is+1)& (0+255),w,b
  7409   001148  0100               	movlb	0	; () banked
  7410   00114A  2196               	addwfc	(??_powf+1)& (0+255),w,b
  7411   00114C  6F9A               	movwf	(??_powf+5)& (0+255),b
  7412   00114E  0101               	movlb	1	; () banked
  7413   001150  518E               	movf	(powf@is+2)& (0+255),w,b
  7414   001152  0100               	movlb	0	; () banked
  7415   001154  2197               	addwfc	(??_powf+2)& (0+255),w,b
  7416   001156  6F9B               	movwf	(??_powf+6)& (0+255),b
  7417   001158  0101               	movlb	1	; () banked
  7418   00115A  518F               	movf	(powf@is+3)& (0+255),w,b
  7419   00115C  0100               	movlb	0	; () banked
  7420   00115E  2198               	addwfc	(??_powf+3)& (0+255),w,b
  7421   001160  6F9C               	movwf	(??_powf+7)& (0+255),b
  7422   001162  0E00               	movlw	0
  7423   001164  2599               	addwf	(??_powf+4)& (0+255),w,b
  7424   001166  0101               	movlb	1	; () banked
  7425   001168  6FB0               	movwf	powf@__xc8_float_word& (0+255),b
  7426   00116A  0E00               	movlw	0
  7427   00116C  0100               	movlb	0	; () banked
  7428   00116E  219A               	addwfc	(??_powf+5)& (0+255),w,b
  7429   001170  0101               	movlb	1	; () banked
  7430   001172  6FB1               	movwf	(powf@__xc8_float_word+1)& (0+255),b
  7431   001174  0E40               	movlw	64
  7432   001176  0100               	movlb	0	; () banked
  7433   001178  219B               	addwfc	(??_powf+6)& (0+255),w,b
  7434   00117A  0101               	movlb	1	; () banked
  7435   00117C  6FB2               	movwf	(powf@__xc8_float_word+2)& (0+255),b
  7436   00117E  0E00               	movlw	0
  7437   001180  0100               	movlb	0	; () banked
  7438   001182  219C               	addwfc	(??_powf+7)& (0+255),w,b
  7439   001184  0101               	movlb	1	; () banked
  7440   001186  6FB3               	movwf	(powf@__xc8_float_word+3)& (0+255),b
  7441   001188                     
  7442                           ; BSR set to: 1
  7443   001188  C1B0  F160         	movff	powf@__xc8_float_word,powf@t_h
  7444   00118C  C1B1  F161         	movff	powf@__xc8_float_word+1,powf@t_h+1
  7445   001190  C1B2  F162         	movff	powf@__xc8_float_word+2,powf@t_h+2
  7446   001194  C1B3  F163         	movff	powf@__xc8_float_word+3,powf@t_h+3
  7447   001198                     
  7448                           ; BSR set to: 1
  7449   001198  C198  F095         	movff	powf@k,??_powf
  7450   00119C  C199  F096         	movff	powf@k+1,??_powf+1
  7451   0011A0  0100               	movlb	0	; () banked
  7452   0011A2  90D8               	bcf	status,0,c
  7453   0011A4  3795               	rlcf	??_powf& (0+255),f,b
  7454   0011A6  3796               	rlcf	(??_powf+1)& (0+255),f,b
  7455   0011A8  90D8               	bcf	status,0,c
  7456   0011AA  3795               	rlcf	??_powf& (0+255),f,b
  7457   0011AC  3796               	rlcf	(??_powf+1)& (0+255),f,b
  7458   0011AE  0EE5               	movlw	low _bp
  7459   0011B0  2595               	addwf	??_powf& (0+255),w,b
  7460   0011B2  6EF6               	movwf	tblptrl,c
  7461   0011B4  0EFF               	movlw	high _bp
  7462   0011B6  2196               	addwfc	(??_powf+1)& (0+255),w,b
  7463   0011B8  6EF7               	movwf	tblptrh,c
  7464   0011BA                     	if	1	;There are 3 active tblptr bytes
  7465   0011BA  6AF8               	clrf	tblptru,c
  7466   0011BC  0E00               	movlw	low (__mediumconst shr (0+16))
  7467   0011BE  22F8               	addwfc	tblptru,f,c
  7468   0011C0                     	endif
  7469   0011C0  0009               	tblrd		*+
  7470   0011C2  006F FFD4  F04A    	movff	tablat,___flsub@a
  7471   0011C8  0009               	tblrd		*+
  7472   0011CA  006F FFD4  F04B    	movff	tablat,___flsub@a+1
  7473   0011D0  0009               	tblrd		*+
  7474   0011D2  006F FFD4  F04C    	movff	tablat,___flsub@a+2
  7475   0011D8  000A               	tblrd		*-
  7476   0011DA  006F FFD4  F04D    	movff	tablat,___flsub@a+3
  7477   0011E0  C160  F046         	movff	powf@t_h,___flsub@b
  7478   0011E4  C161  F047         	movff	powf@t_h+1,___flsub@b+1
  7479   0011E8  C162  F048         	movff	powf@t_h+2,___flsub@b+2
  7480   0011EC  C163  F049         	movff	powf@t_h+3,___flsub@b+3
  7481   0011F0  ECB3  F02F         	call	___flsub	;wreg free
  7482   0011F4  C046  F190         	movff	?___flsub,_powf$1743
  7483   0011F8  C047  F191         	movff	?___flsub+1,_powf$1743+1
  7484   0011FC  C048  F192         	movff	?___flsub+2,_powf$1743+2
  7485   001200  C049  F193         	movff	?___flsub+3,_powf$1743+3
  7486   001204  C168  F046         	movff	powf@ax,___flsub@b
  7487   001208  C169  F047         	movff	powf@ax+1,___flsub@b+1
  7488   00120C  C16A  F048         	movff	powf@ax+2,___flsub@b+2
  7489   001210  C16B  F049         	movff	powf@ax+3,___flsub@b+3
  7490   001214  C190  F04A         	movff	_powf$1743,___flsub@a
  7491   001218  C191  F04B         	movff	_powf$1743+1,___flsub@a+1
  7492   00121C  C192  F04C         	movff	_powf$1743+2,___flsub@a+2
  7493   001220  C193  F04D         	movff	_powf$1743+3,___flsub@a+3
  7494   001224  ECB3  F02F         	call	___flsub	;wreg free
  7495   001228  C046  F128         	movff	?___flsub,powf@t_l
  7496   00122C  C047  F129         	movff	?___flsub+1,powf@t_l+1
  7497   001230  C048  F12A         	movff	?___flsub+2,powf@t_l+2
  7498   001234  C049  F12B         	movff	?___flsub+3,powf@t_l+3
  7499   001238  C160  F017         	movff	powf@t_h,___flmul@a
  7500   00123C  C161  F018         	movff	powf@t_h+1,___flmul@a+1
  7501   001240  C162  F019         	movff	powf@t_h+2,___flmul@a+2
  7502   001244  C163  F01A         	movff	powf@t_h+3,___flmul@a+3
  7503   001248  C164  F013         	movff	powf@s_h,___flmul@b
  7504   00124C  C165  F014         	movff	powf@s_h+1,___flmul@b+1
  7505   001250  C166  F015         	movff	powf@s_h+2,___flmul@b+2
  7506   001254  C167  F016         	movff	powf@s_h+3,___flmul@b+3
  7507   001258  EC38  F023         	call	___flmul	;wreg free
  7508   00125C  C013  F04A         	movff	?___flmul,___flsub@a
  7509   001260  C014  F04B         	movff	?___flmul+1,___flsub@a+1
  7510   001264  C015  F04C         	movff	?___flmul+2,___flsub@a+2
  7511   001268  C016  F04D         	movff	?___flmul+3,___flsub@a+3
  7512   00126C  C16C  F046         	movff	powf@u,___flsub@b
  7513   001270  C16D  F047         	movff	powf@u+1,___flsub@b+1
  7514   001274  C16E  F048         	movff	powf@u+2,___flsub@b+2
  7515   001278  C16F  F049         	movff	powf@u+3,___flsub@b+3
  7516   00127C  ECB3  F02F         	call	___flsub	;wreg free
  7517   001280  C046  F190         	movff	?___flsub,_powf$1743
  7518   001284  C047  F191         	movff	?___flsub+1,_powf$1743+1
  7519   001288  C048  F192         	movff	?___flsub+2,_powf$1743+2
  7520   00128C  C049  F193         	movff	?___flsub+3,_powf$1743+3
  7521   001290  C128  F017         	movff	powf@t_l,___flmul@a
  7522   001294  C129  F018         	movff	powf@t_l+1,___flmul@a+1
  7523   001298  C12A  F019         	movff	powf@t_l+2,___flmul@a+2
  7524   00129C  C12B  F01A         	movff	powf@t_l+3,___flmul@a+3
  7525   0012A0  C164  F013         	movff	powf@s_h,___flmul@b
  7526   0012A4  C165  F014         	movff	powf@s_h+1,___flmul@b+1
  7527   0012A8  C166  F015         	movff	powf@s_h+2,___flmul@b+2
  7528   0012AC  C167  F016         	movff	powf@s_h+3,___flmul@b+3
  7529   0012B0  EC38  F023         	call	___flmul	;wreg free
  7530   0012B4  C013  F04A         	movff	?___flmul,___flsub@a
  7531   0012B8  C014  F04B         	movff	?___flmul+1,___flsub@a+1
  7532   0012BC  C015  F04C         	movff	?___flmul+2,___flsub@a+2
  7533   0012C0  C016  F04D         	movff	?___flmul+3,___flsub@a+3
  7534   0012C4  C190  F046         	movff	_powf$1743,___flsub@b
  7535   0012C8  C191  F047         	movff	_powf$1743+1,___flsub@b+1
  7536   0012CC  C192  F048         	movff	_powf$1743+2,___flsub@b+2
  7537   0012D0  C193  F049         	movff	_powf$1743+3,___flsub@b+3
  7538   0012D4  ECB3  F02F         	call	___flsub	;wreg free
  7539   0012D8  C046  F14C         	movff	?___flsub,_powf$1741
  7540   0012DC  C047  F14D         	movff	?___flsub+1,_powf$1741+1
  7541   0012E0  C048  F14E         	movff	?___flsub+2,_powf$1741+2
  7542   0012E4  C049  F14F         	movff	?___flsub+3,_powf$1741+3
  7543   0012E8  C14C  F013         	movff	_powf$1741,___flmul@b
  7544   0012EC  C14D  F014         	movff	_powf$1741+1,___flmul@b+1
  7545   0012F0  C14E  F015         	movff	_powf$1741+2,___flmul@b+2
  7546   0012F4  C14F  F016         	movff	_powf$1741+3,___flmul@b+3
  7547   0012F8  C170  F017         	movff	powf@v,___flmul@a
  7548   0012FC  C171  F018         	movff	powf@v+1,___flmul@a+1
  7549   001300  C172  F019         	movff	powf@v+2,___flmul@a+2
  7550   001304  C173  F01A         	movff	powf@v+3,___flmul@a+3
  7551   001308  EC38  F023         	call	___flmul	;wreg free
  7552   00130C  C013  F124         	movff	?___flmul,powf@s_l
  7553   001310  C014  F125         	movff	?___flmul+1,powf@s_l+1
  7554   001314  C015  F126         	movff	?___flmul+2,powf@s_l+2
  7555   001318  C016  F127         	movff	?___flmul+3,powf@s_l+3
  7556   00131C  C154  F013         	movff	powf@s,___flmul@b
  7557   001320  C155  F014         	movff	powf@s+1,___flmul@b+1
  7558   001324  C156  F015         	movff	powf@s+2,___flmul@b+2
  7559   001328  C157  F016         	movff	powf@s+3,___flmul@b+3
  7560   00132C  C154  F017         	movff	powf@s,___flmul@a
  7561   001330  C155  F018         	movff	powf@s+1,___flmul@a+1
  7562   001334  C156  F019         	movff	powf@s+2,___flmul@a+2
  7563   001338  C157  F01A         	movff	powf@s+3,___flmul@a+3
  7564   00133C  EC38  F023         	call	___flmul	;wreg free
  7565   001340  C013  F184         	movff	?___flmul,powf@s2
  7566   001344  C014  F185         	movff	?___flmul+1,powf@s2+1
  7567   001348  C015  F186         	movff	?___flmul+2,powf@s2+2
  7568   00134C  C016  F187         	movff	?___flmul+3,powf@s2+3
  7569   001350  0E55               	movlw	85
  7570   001352  6E30               	movwf	___fladd@a^0,c
  7571   001354  0E32               	movlw	50
  7572   001356  6E31               	movwf	(___fladd@a+1)^0,c
  7573   001358  0E6C               	movlw	108
  7574   00135A  6E32               	movwf	(___fladd@a+2)^0,c
  7575   00135C  0E3E               	movlw	62
  7576   00135E  6E33               	movwf	(___fladd@a+3)^0,c
  7577   001360  0E42               	movlw	66
  7578   001362  6E17               	movwf	___flmul@a^0,c
  7579   001364  0EF1               	movlw	241
  7580   001366  6E18               	movwf	(___flmul@a+1)^0,c
  7581   001368  0E53               	movlw	83
  7582   00136A  6E19               	movwf	(___flmul@a+2)^0,c
  7583   00136C  0E3E               	movlw	62
  7584   00136E  6E1A               	movwf	(___flmul@a+3)^0,c
  7585   001370  C184  F013         	movff	powf@s2,___flmul@b
  7586   001374  C185  F014         	movff	powf@s2+1,___flmul@b+1
  7587   001378  C186  F015         	movff	powf@s2+2,___flmul@b+2
  7588   00137C  C187  F016         	movff	powf@s2+3,___flmul@b+3
  7589   001380  EC38  F023         	call	___flmul	;wreg free
  7590   001384  C013  F02C         	movff	?___flmul,___fladd@b
  7591   001388  C014  F02D         	movff	?___flmul+1,___fladd@b+1
  7592   00138C  C015  F02E         	movff	?___flmul+2,___fladd@b+2
  7593   001390  C016  F02F         	movff	?___flmul+3,___fladd@b+3
  7594   001394  ECD8  F020         	call	___fladd	;wreg free
  7595   001398  C02C  F19C         	movff	?___fladd,_powf$1740
  7596   00139C  C02D  F19D         	movff	?___fladd+1,_powf$1740+1
  7597   0013A0  C02E  F19E         	movff	?___fladd+2,_powf$1740+2
  7598   0013A4  C02F  F19F         	movff	?___fladd+3,_powf$1740+3
  7599   0013A8  0E05               	movlw	5
  7600   0013AA  6E30               	movwf	___fladd@a^0,c
  7601   0013AC  0EA3               	movlw	163
  7602   0013AE  6E31               	movwf	(___fladd@a+1)^0,c
  7603   0013B0  0E8B               	movlw	139
  7604   0013B2  6E32               	movwf	(___fladd@a+2)^0,c
  7605   0013B4  0E3E               	movlw	62
  7606   0013B6  6E33               	movwf	(___fladd@a+3)^0,c
  7607   0013B8  C184  F017         	movff	powf@s2,___flmul@a
  7608   0013BC  C185  F018         	movff	powf@s2+1,___flmul@a+1
  7609   0013C0  C186  F019         	movff	powf@s2+2,___flmul@a+2
  7610   0013C4  C187  F01A         	movff	powf@s2+3,___flmul@a+3
  7611   0013C8  C19C  F013         	movff	_powf$1740,___flmul@b
  7612   0013CC  C19D  F014         	movff	_powf$1740+1,___flmul@b+1
  7613   0013D0  C19E  F015         	movff	_powf$1740+2,___flmul@b+2
  7614   0013D4  C19F  F016         	movff	_powf$1740+3,___flmul@b+3
  7615   0013D8  EC38  F023         	call	___flmul	;wreg free
  7616   0013DC  C013  F02C         	movff	?___flmul,___fladd@b
  7617   0013E0  C014  F02D         	movff	?___flmul+1,___fladd@b+1
  7618   0013E4  C015  F02E         	movff	?___flmul+2,___fladd@b+2
  7619   0013E8  C016  F02F         	movff	?___flmul+3,___fladd@b+3
  7620   0013EC  ECD8  F020         	call	___fladd	;wreg free
  7621   0013F0  C02C  F14C         	movff	?___fladd,_powf$1741
  7622   0013F4  C02D  F14D         	movff	?___fladd+1,_powf$1741+1
  7623   0013F8  C02E  F14E         	movff	?___fladd+2,_powf$1741+2
  7624   0013FC  C02F  F14F         	movff	?___fladd+3,_powf$1741+3
  7625   001400  0EAB               	movlw	171
  7626   001402  6E30               	movwf	___fladd@a^0,c
  7627   001404  0EAA               	movlw	170
  7628   001406  6E31               	movwf	(___fladd@a+1)^0,c
  7629   001408  0EAA               	movlw	170
  7630   00140A  6E32               	movwf	(___fladd@a+2)^0,c
  7631   00140C  0E3E               	movlw	62
  7632   00140E  6E33               	movwf	(___fladd@a+3)^0,c
  7633   001410  C184  F017         	movff	powf@s2,___flmul@a
  7634   001414  C185  F018         	movff	powf@s2+1,___flmul@a+1
  7635   001418  C186  F019         	movff	powf@s2+2,___flmul@a+2
  7636   00141C  C187  F01A         	movff	powf@s2+3,___flmul@a+3
  7637   001420  C14C  F013         	movff	_powf$1741,___flmul@b
  7638   001424  C14D  F014         	movff	_powf$1741+1,___flmul@b+1
  7639   001428  C14E  F015         	movff	_powf$1741+2,___flmul@b+2
  7640   00142C  C14F  F016         	movff	_powf$1741+3,___flmul@b+3
  7641   001430  EC38  F023         	call	___flmul	;wreg free
  7642   001434  C013  F02C         	movff	?___flmul,___fladd@b
  7643   001438  C014  F02D         	movff	?___flmul+1,___fladd@b+1
  7644   00143C  C015  F02E         	movff	?___flmul+2,___fladd@b+2
  7645   001440  C016  F02F         	movff	?___flmul+3,___fladd@b+3
  7646   001444  ECD8  F020         	call	___fladd	;wreg free
  7647   001448  C02C  F13C         	movff	?___fladd,_powf$1742
  7648   00144C  C02D  F13D         	movff	?___fladd+1,_powf$1742+1
  7649   001450  C02E  F13E         	movff	?___fladd+2,_powf$1742+2
  7650   001454  C02F  F13F         	movff	?___fladd+3,_powf$1742+3
  7651   001458  0EB7               	movlw	183
  7652   00145A  6E30               	movwf	___fladd@a^0,c
  7653   00145C  0E6D               	movlw	109
  7654   00145E  6E31               	movwf	(___fladd@a+1)^0,c
  7655   001460  0EDB               	movlw	219
  7656   001462  6E32               	movwf	(___fladd@a+2)^0,c
  7657   001464  0E3E               	movlw	62
  7658   001466  6E33               	movwf	(___fladd@a+3)^0,c
  7659   001468  C184  F017         	movff	powf@s2,___flmul@a
  7660   00146C  C185  F018         	movff	powf@s2+1,___flmul@a+1
  7661   001470  C186  F019         	movff	powf@s2+2,___flmul@a+2
  7662   001474  C187  F01A         	movff	powf@s2+3,___flmul@a+3
  7663   001478  C13C  F013         	movff	_powf$1742,___flmul@b
  7664   00147C  C13D  F014         	movff	_powf$1742+1,___flmul@b+1
  7665   001480  C13E  F015         	movff	_powf$1742+2,___flmul@b+2
  7666   001484  C13F  F016         	movff	_powf$1742+3,___flmul@b+3
  7667   001488  EC38  F023         	call	___flmul	;wreg free
  7668   00148C  C013  F02C         	movff	?___flmul,___fladd@b
  7669   001490  C014  F02D         	movff	?___flmul+1,___fladd@b+1
  7670   001494  C015  F02E         	movff	?___flmul+2,___fladd@b+2
  7671   001498  C016  F02F         	movff	?___flmul+3,___fladd@b+3
  7672   00149C  ECD8  F020         	call	___fladd	;wreg free
  7673   0014A0  C02C  F12C         	movff	?___fladd,_powf$1744
  7674   0014A4  C02D  F12D         	movff	?___fladd+1,_powf$1744+1
  7675   0014A8  C02E  F12E         	movff	?___fladd+2,_powf$1744+2
  7676   0014AC  C02F  F12F         	movff	?___fladd+3,_powf$1744+3
  7677   0014B0  0E9A               	movlw	154
  7678   0014B2  6E30               	movwf	___fladd@a^0,c
  7679   0014B4  0E99               	movlw	153
  7680   0014B6  6E31               	movwf	(___fladd@a+1)^0,c
  7681   0014B8  0E19               	movlw	25
  7682   0014BA  6E32               	movwf	(___fladd@a+2)^0,c
  7683   0014BC  0E3F               	movlw	63
  7684   0014BE  6E33               	movwf	(___fladd@a+3)^0,c
  7685   0014C0  C184  F017         	movff	powf@s2,___flmul@a
  7686   0014C4  C185  F018         	movff	powf@s2+1,___flmul@a+1
  7687   0014C8  C186  F019         	movff	powf@s2+2,___flmul@a+2
  7688   0014CC  C187  F01A         	movff	powf@s2+3,___flmul@a+3
  7689   0014D0  C12C  F013         	movff	_powf$1744,___flmul@b
  7690   0014D4  C12D  F014         	movff	_powf$1744+1,___flmul@b+1
  7691   0014D8  C12E  F015         	movff	_powf$1744+2,___flmul@b+2
  7692   0014DC  C12F  F016         	movff	_powf$1744+3,___flmul@b+3
  7693   0014E0  EC38  F023         	call	___flmul	;wreg free
  7694   0014E4  C013  F02C         	movff	?___flmul,___fladd@b
  7695   0014E8  C014  F02D         	movff	?___flmul+1,___fladd@b+1
  7696   0014EC  C015  F02E         	movff	?___flmul+2,___fladd@b+2
  7697   0014F0  C016  F02F         	movff	?___flmul+3,___fladd@b+3
  7698   0014F4  ECD8  F020         	call	___fladd	;wreg free
  7699   0014F8  C02C  F100         	movff	?___fladd,_powf$1745
  7700   0014FC  C02D  F101         	movff	?___fladd+1,_powf$1745+1
  7701   001500  C02E  F102         	movff	?___fladd+2,_powf$1745+2
  7702   001504  C02F  F103         	movff	?___fladd+3,_powf$1745+3
  7703   001508  C184  F017         	movff	powf@s2,___flmul@a
  7704   00150C  C185  F018         	movff	powf@s2+1,___flmul@a+1
  7705   001510  C186  F019         	movff	powf@s2+2,___flmul@a+2
  7706   001514  C187  F01A         	movff	powf@s2+3,___flmul@a+3
  7707   001518  C184  F013         	movff	powf@s2,___flmul@b
  7708   00151C  C185  F014         	movff	powf@s2+1,___flmul@b+1
  7709   001520  C186  F015         	movff	powf@s2+2,___flmul@b+2
  7710   001524  C187  F016         	movff	powf@s2+3,___flmul@b+3
  7711   001528  EC38  F023         	call	___flmul	;wreg free
  7712   00152C  C013  F104         	movff	?___flmul,_powf$1746
  7713   001530  C014  F105         	movff	?___flmul+1,_powf$1746+1
  7714   001534  C015  F106         	movff	?___flmul+2,_powf$1746+2
  7715   001538  C016  F107         	movff	?___flmul+3,_powf$1746+3
  7716   00153C  C100  F013         	movff	_powf$1745,___flmul@b
  7717   001540  C101  F014         	movff	_powf$1745+1,___flmul@b+1
  7718   001544  C102  F015         	movff	_powf$1745+2,___flmul@b+2
  7719   001548  C103  F016         	movff	_powf$1745+3,___flmul@b+3
  7720   00154C  C104  F017         	movff	_powf$1746,___flmul@a
  7721   001550  C105  F018         	movff	_powf$1746+1,___flmul@a+1
  7722   001554  C106  F019         	movff	_powf$1746+2,___flmul@a+2
  7723   001558  C107  F01A         	movff	_powf$1746+3,___flmul@a+3
  7724   00155C  EC38  F023         	call	___flmul	;wreg free
  7725   001560  C013  F144         	movff	?___flmul,powf@r
  7726   001564  C014  F145         	movff	?___flmul+1,powf@r+1
  7727   001568  C015  F146         	movff	?___flmul+2,powf@r+2
  7728   00156C  C016  F147         	movff	?___flmul+3,powf@r+3
  7729   001570  C124  F017         	movff	powf@s_l,___flmul@a
  7730   001574  C125  F018         	movff	powf@s_l+1,___flmul@a+1
  7731   001578  C126  F019         	movff	powf@s_l+2,___flmul@a+2
  7732   00157C  C127  F01A         	movff	powf@s_l+3,___flmul@a+3
  7733   001580  C154  F030         	movff	powf@s,___fladd@a
  7734   001584  C155  F031         	movff	powf@s+1,___fladd@a+1
  7735   001588  C156  F032         	movff	powf@s+2,___fladd@a+2
  7736   00158C  C157  F033         	movff	powf@s+3,___fladd@a+3
  7737   001590  C164  F02C         	movff	powf@s_h,___fladd@b
  7738   001594  C165  F02D         	movff	powf@s_h+1,___fladd@b+1
  7739   001598  C166  F02E         	movff	powf@s_h+2,___fladd@b+2
  7740   00159C  C167  F02F         	movff	powf@s_h+3,___fladd@b+3
  7741   0015A0  ECD8  F020         	call	___fladd	;wreg free
  7742   0015A4  C02C  F013         	movff	?___fladd,___flmul@b
  7743   0015A8  C02D  F014         	movff	?___fladd+1,___flmul@b+1
  7744   0015AC  C02E  F015         	movff	?___fladd+2,___flmul@b+2
  7745   0015B0  C02F  F016         	movff	?___fladd+3,___flmul@b+3
  7746   0015B4  EC38  F023         	call	___flmul	;wreg free
  7747   0015B8  C013  F150         	movff	?___flmul,_powf$1747
  7748   0015BC  C014  F151         	movff	?___flmul+1,_powf$1747+1
  7749   0015C0  C015  F152         	movff	?___flmul+2,_powf$1747+2
  7750   0015C4  C016  F153         	movff	?___flmul+3,_powf$1747+3
  7751   0015C8  C144  F02C         	movff	powf@r,___fladd@b
  7752   0015CC  C145  F02D         	movff	powf@r+1,___fladd@b+1
  7753   0015D0  C146  F02E         	movff	powf@r+2,___fladd@b+2
  7754   0015D4  C147  F02F         	movff	powf@r+3,___fladd@b+3
  7755   0015D8  C150  F030         	movff	_powf$1747,___fladd@a
  7756   0015DC  C151  F031         	movff	_powf$1747+1,___fladd@a+1
  7757   0015E0  C152  F032         	movff	_powf$1747+2,___fladd@a+2
  7758   0015E4  C153  F033         	movff	_powf$1747+3,___fladd@a+3
  7759   0015E8  ECD8  F020         	call	___fladd	;wreg free
  7760   0015EC  C02C  F144         	movff	?___fladd,powf@r
  7761   0015F0  C02D  F145         	movff	?___fladd+1,powf@r+1
  7762   0015F4  C02E  F146         	movff	?___fladd+2,powf@r+2
  7763   0015F8  C02F  F147         	movff	?___fladd+3,powf@r+3
  7764   0015FC  C164  F013         	movff	powf@s_h,___flmul@b
  7765   001600  C165  F014         	movff	powf@s_h+1,___flmul@b+1
  7766   001604  C166  F015         	movff	powf@s_h+2,___flmul@b+2
  7767   001608  C167  F016         	movff	powf@s_h+3,___flmul@b+3
  7768   00160C  C164  F017         	movff	powf@s_h,___flmul@a
  7769   001610  C165  F018         	movff	powf@s_h+1,___flmul@a+1
  7770   001614  C166  F019         	movff	powf@s_h+2,___flmul@a+2
  7771   001618  C167  F01A         	movff	powf@s_h+3,___flmul@a+3
  7772   00161C  EC38  F023         	call	___flmul	;wreg free
  7773   001620  C013  F184         	movff	?___flmul,powf@s2
  7774   001624  C014  F185         	movff	?___flmul+1,powf@s2+1
  7775   001628  C015  F186         	movff	?___flmul+2,powf@s2+2
  7776   00162C  C016  F187         	movff	?___flmul+3,powf@s2+3
  7777   001630  0E00               	movlw	0
  7778   001632  6E30               	movwf	___fladd@a^0,c
  7779   001634  0E00               	movlw	0
  7780   001636  6E31               	movwf	(___fladd@a+1)^0,c
  7781   001638  0E40               	movlw	64
  7782   00163A  6E32               	movwf	(___fladd@a+2)^0,c
  7783   00163C  0E40               	movlw	64
  7784   00163E  6E33               	movwf	(___fladd@a+3)^0,c
  7785   001640  C184  F02C         	movff	powf@s2,___fladd@b
  7786   001644  C185  F02D         	movff	powf@s2+1,___fladd@b+1
  7787   001648  C186  F02E         	movff	powf@s2+2,___fladd@b+2
  7788   00164C  C187  F02F         	movff	powf@s2+3,___fladd@b+3
  7789   001650  ECD8  F020         	call	___fladd	;wreg free
  7790   001654  C02C  F150         	movff	?___fladd,_powf$1747
  7791   001658  C02D  F151         	movff	?___fladd+1,_powf$1747+1
  7792   00165C  C02E  F152         	movff	?___fladd+2,_powf$1747+2
  7793   001660  C02F  F153         	movff	?___fladd+3,_powf$1747+3
  7794   001664  C150  F02C         	movff	_powf$1747,___fladd@b
  7795   001668  C151  F02D         	movff	_powf$1747+1,___fladd@b+1
  7796   00166C  C152  F02E         	movff	_powf$1747+2,___fladd@b+2
  7797   001670  C153  F02F         	movff	_powf$1747+3,___fladd@b+3
  7798   001674  C144  F030         	movff	powf@r,___fladd@a
  7799   001678  C145  F031         	movff	powf@r+1,___fladd@a+1
  7800   00167C  C146  F032         	movff	powf@r+2,___fladd@a+2
  7801   001680  C147  F033         	movff	powf@r+3,___fladd@a+3
  7802   001684  ECD8  F020         	call	___fladd	;wreg free
  7803   001688  C02C  F160         	movff	?___fladd,powf@t_h
  7804   00168C  C02D  F161         	movff	?___fladd+1,powf@t_h+1
  7805   001690  C02E  F162         	movff	?___fladd+2,powf@t_h+2
  7806   001694  C02F  F163         	movff	?___fladd+3,powf@t_h+3
  7807   001698  C160  F1B0         	movff	powf@t_h,powf@__xc8_float_word
  7808   00169C  C161  F1B1         	movff	powf@t_h+1,powf@__xc8_float_word+1
  7809   0016A0  C162  F1B2         	movff	powf@t_h+2,powf@__xc8_float_word+2
  7810   0016A4  C163  F1B3         	movff	powf@t_h+3,powf@__xc8_float_word+3
  7811   0016A8  C1B0  F18C         	movff	powf@__xc8_float_word,powf@is
  7812   0016AC  C1B1  F18D         	movff	powf@__xc8_float_word+1,powf@is+1
  7813   0016B0  C1B2  F18E         	movff	powf@__xc8_float_word+2,powf@is+2
  7814   0016B4  C1B3  F18F         	movff	powf@__xc8_float_word+3,powf@is+3
  7815   0016B8  0E00               	movlw	0
  7816   0016BA  0101               	movlb	1	; () banked
  7817   0016BC  158C               	andwf	powf@is& (0+255),w,b
  7818   0016BE  6FB0               	movwf	powf@__xc8_float_word& (0+255),b
  7819   0016C0  0EF0               	movlw	240
  7820   0016C2  158D               	andwf	(powf@is+1)& (0+255),w,b
  7821   0016C4  6FB1               	movwf	(powf@__xc8_float_word+1)& (0+255),b
  7822   0016C6  0EFF               	movlw	255
  7823   0016C8  158E               	andwf	(powf@is+2)& (0+255),w,b
  7824   0016CA  6FB2               	movwf	(powf@__xc8_float_word+2)& (0+255),b
  7825   0016CC  0EFF               	movlw	255
  7826   0016CE  158F               	andwf	(powf@is+3)& (0+255),w,b
  7827   0016D0  6FB3               	movwf	(powf@__xc8_float_word+3)& (0+255),b
  7828   0016D2                     
  7829                           ; BSR set to: 1
  7830   0016D2  C1B0  F160         	movff	powf@__xc8_float_word,powf@t_h
  7831   0016D6  C1B1  F161         	movff	powf@__xc8_float_word+1,powf@t_h+1
  7832   0016DA  C1B2  F162         	movff	powf@__xc8_float_word+2,powf@t_h+2
  7833   0016DE  C1B3  F163         	movff	powf@__xc8_float_word+3,powf@t_h+3
  7834   0016E2                     
  7835                           ; BSR set to: 1
  7836   0016E2  0E00               	movlw	0
  7837   0016E4  6E30               	movwf	___fladd@a^0,c
  7838   0016E6  0E00               	movlw	0
  7839   0016E8  6E31               	movwf	(___fladd@a+1)^0,c
  7840   0016EA  0E40               	movlw	64
  7841   0016EC  6E32               	movwf	(___fladd@a+2)^0,c
  7842   0016EE  0EC0               	movlw	192
  7843   0016F0  6E33               	movwf	(___fladd@a+3)^0,c
  7844   0016F2  C160  F02C         	movff	powf@t_h,___fladd@b
  7845   0016F6  C161  F02D         	movff	powf@t_h+1,___fladd@b+1
  7846   0016FA  C162  F02E         	movff	powf@t_h+2,___fladd@b+2
  7847   0016FE  C163  F02F         	movff	powf@t_h+3,___fladd@b+3
  7848   001702  ECD8  F020         	call	___fladd	;wreg free
  7849   001706  C02C  F140         	movff	?___fladd,_powf$1748
  7850   00170A  C02D  F141         	movff	?___fladd+1,_powf$1748+1
  7851   00170E  C02E  F142         	movff	?___fladd+2,_powf$1748+2
  7852   001712  C02F  F143         	movff	?___fladd+3,_powf$1748+3
  7853   001716  C184  F04A         	movff	powf@s2,___flsub@a
  7854   00171A  C185  F04B         	movff	powf@s2+1,___flsub@a+1
  7855   00171E  C186  F04C         	movff	powf@s2+2,___flsub@a+2
  7856   001722  C187  F04D         	movff	powf@s2+3,___flsub@a+3
  7857   001726  C140  F046         	movff	_powf$1748,___flsub@b
  7858   00172A  C141  F047         	movff	_powf$1748+1,___flsub@b+1
  7859   00172E  C142  F048         	movff	_powf$1748+2,___flsub@b+2
  7860   001732  C143  F049         	movff	_powf$1748+3,___flsub@b+3
  7861   001736  ECB3  F02F         	call	___flsub	;wreg free
  7862   00173A  C046  F130         	movff	?___flsub,_powf$1749
  7863   00173E  C047  F131         	movff	?___flsub+1,_powf$1749+1
  7864   001742  C048  F132         	movff	?___flsub+2,_powf$1749+2
  7865   001746  C049  F133         	movff	?___flsub+3,_powf$1749+3
  7866   00174A  C144  F046         	movff	powf@r,___flsub@b
  7867   00174E  C145  F047         	movff	powf@r+1,___flsub@b+1
  7868   001752  C146  F048         	movff	powf@r+2,___flsub@b+2
  7869   001756  C147  F049         	movff	powf@r+3,___flsub@b+3
  7870   00175A  C130  F04A         	movff	_powf$1749,___flsub@a
  7871   00175E  C131  F04B         	movff	_powf$1749+1,___flsub@a+1
  7872   001762  C132  F04C         	movff	_powf$1749+2,___flsub@a+2
  7873   001766  C133  F04D         	movff	_powf$1749+3,___flsub@a+3
  7874   00176A  ECB3  F02F         	call	___flsub	;wreg free
  7875   00176E  C046  F128         	movff	?___flsub,powf@t_l
  7876   001772  C047  F129         	movff	?___flsub+1,powf@t_l+1
  7877   001776  C048  F12A         	movff	?___flsub+2,powf@t_l+2
  7878   00177A  C049  F12B         	movff	?___flsub+3,powf@t_l+3
  7879   00177E  C164  F013         	movff	powf@s_h,___flmul@b
  7880   001782  C165  F014         	movff	powf@s_h+1,___flmul@b+1
  7881   001786  C166  F015         	movff	powf@s_h+2,___flmul@b+2
  7882   00178A  C167  F016         	movff	powf@s_h+3,___flmul@b+3
  7883   00178E  C160  F017         	movff	powf@t_h,___flmul@a
  7884   001792  C161  F018         	movff	powf@t_h+1,___flmul@a+1
  7885   001796  C162  F019         	movff	powf@t_h+2,___flmul@a+2
  7886   00179A  C163  F01A         	movff	powf@t_h+3,___flmul@a+3
  7887   00179E  EC38  F023         	call	___flmul	;wreg free
  7888   0017A2  C013  F16C         	movff	?___flmul,powf@u
  7889   0017A6  C014  F16D         	movff	?___flmul+1,powf@u+1
  7890   0017AA  C015  F16E         	movff	?___flmul+2,powf@u+2
  7891   0017AE  C016  F16F         	movff	?___flmul+3,powf@u+3
  7892   0017B2  C160  F017         	movff	powf@t_h,___flmul@a
  7893   0017B6  C161  F018         	movff	powf@t_h+1,___flmul@a+1
  7894   0017BA  C162  F019         	movff	powf@t_h+2,___flmul@a+2
  7895   0017BE  C163  F01A         	movff	powf@t_h+3,___flmul@a+3
  7896   0017C2  C124  F013         	movff	powf@s_l,___flmul@b
  7897   0017C6  C125  F014         	movff	powf@s_l+1,___flmul@b+1
  7898   0017CA  C126  F015         	movff	powf@s_l+2,___flmul@b+2
  7899   0017CE  C127  F016         	movff	powf@s_l+3,___flmul@b+3
  7900   0017D2  EC38  F023         	call	___flmul	;wreg free
  7901   0017D6  C013  F02C         	movff	?___flmul,___fladd@b
  7902   0017DA  C014  F02D         	movff	?___flmul+1,___fladd@b+1
  7903   0017DE  C015  F02E         	movff	?___flmul+2,___fladd@b+2
  7904   0017E2  C016  F02F         	movff	?___flmul+3,___fladd@b+3
  7905   0017E6  C154  F017         	movff	powf@s,___flmul@a
  7906   0017EA  C155  F018         	movff	powf@s+1,___flmul@a+1
  7907   0017EE  C156  F019         	movff	powf@s+2,___flmul@a+2
  7908   0017F2  C157  F01A         	movff	powf@s+3,___flmul@a+3
  7909   0017F6  C128  F013         	movff	powf@t_l,___flmul@b
  7910   0017FA  C129  F014         	movff	powf@t_l+1,___flmul@b+1
  7911   0017FE  C12A  F015         	movff	powf@t_l+2,___flmul@b+2
  7912   001802  C12B  F016         	movff	powf@t_l+3,___flmul@b+3
  7913   001806  EC38  F023         	call	___flmul	;wreg free
  7914   00180A  C013  F030         	movff	?___flmul,___fladd@a
  7915   00180E  C014  F031         	movff	?___flmul+1,___fladd@a+1
  7916   001812  C015  F032         	movff	?___flmul+2,___fladd@a+2
  7917   001816  C016  F033         	movff	?___flmul+3,___fladd@a+3
  7918   00181A  ECD8  F020         	call	___fladd	;wreg free
  7919   00181E  C02C  F170         	movff	?___fladd,powf@v
  7920   001822  C02D  F171         	movff	?___fladd+1,powf@v+1
  7921   001826  C02E  F172         	movff	?___fladd+2,powf@v+2
  7922   00182A  C02F  F173         	movff	?___fladd+3,powf@v+3
  7923   00182E  C16C  F02C         	movff	powf@u,___fladd@b
  7924   001832  C16D  F02D         	movff	powf@u+1,___fladd@b+1
  7925   001836  C16E  F02E         	movff	powf@u+2,___fladd@b+2
  7926   00183A  C16F  F02F         	movff	powf@u+3,___fladd@b+3
  7927   00183E  C170  F030         	movff	powf@v,___fladd@a
  7928   001842  C171  F031         	movff	powf@v+1,___fladd@a+1
  7929   001846  C172  F032         	movff	powf@v+2,___fladd@a+2
  7930   00184A  C173  F033         	movff	powf@v+3,___fladd@a+3
  7931   00184E  ECD8  F020         	call	___fladd	;wreg free
  7932   001852  C02C  F194         	movff	?___fladd,powf@p_h
  7933   001856  C02D  F195         	movff	?___fladd+1,powf@p_h+1
  7934   00185A  C02E  F196         	movff	?___fladd+2,powf@p_h+2
  7935   00185E  C02F  F197         	movff	?___fladd+3,powf@p_h+3
  7936   001862  C194  F1B0         	movff	powf@p_h,powf@__xc8_float_word
  7937   001866  C195  F1B1         	movff	powf@p_h+1,powf@__xc8_float_word+1
  7938   00186A  C196  F1B2         	movff	powf@p_h+2,powf@__xc8_float_word+2
  7939   00186E  C197  F1B3         	movff	powf@p_h+3,powf@__xc8_float_word+3
  7940   001872  C1B0  F18C         	movff	powf@__xc8_float_word,powf@is
  7941   001876  C1B1  F18D         	movff	powf@__xc8_float_word+1,powf@is+1
  7942   00187A  C1B2  F18E         	movff	powf@__xc8_float_word+2,powf@is+2
  7943   00187E  C1B3  F18F         	movff	powf@__xc8_float_word+3,powf@is+3
  7944   001882  0E00               	movlw	0
  7945   001884  0101               	movlb	1	; () banked
  7946   001886  158C               	andwf	powf@is& (0+255),w,b
  7947   001888  6FB0               	movwf	powf@__xc8_float_word& (0+255),b
  7948   00188A  0EF0               	movlw	240
  7949   00188C  158D               	andwf	(powf@is+1)& (0+255),w,b
  7950   00188E  6FB1               	movwf	(powf@__xc8_float_word+1)& (0+255),b
  7951   001890  0EFF               	movlw	255
  7952   001892  158E               	andwf	(powf@is+2)& (0+255),w,b
  7953   001894  6FB2               	movwf	(powf@__xc8_float_word+2)& (0+255),b
  7954   001896  0EFF               	movlw	255
  7955   001898  158F               	andwf	(powf@is+3)& (0+255),w,b
  7956   00189A  6FB3               	movwf	(powf@__xc8_float_word+3)& (0+255),b
  7957   00189C                     
  7958                           ; BSR set to: 1
  7959   00189C  C1B0  F194         	movff	powf@__xc8_float_word,powf@p_h
  7960   0018A0  C1B1  F195         	movff	powf@__xc8_float_word+1,powf@p_h+1
  7961   0018A4  C1B2  F196         	movff	powf@__xc8_float_word+2,powf@p_h+2
  7962   0018A8  C1B3  F197         	movff	powf@__xc8_float_word+3,powf@p_h+3
  7963   0018AC                     
  7964                           ; BSR set to: 1
  7965   0018AC  C16C  F04A         	movff	powf@u,___flsub@a
  7966   0018B0  C16D  F04B         	movff	powf@u+1,___flsub@a+1
  7967   0018B4  C16E  F04C         	movff	powf@u+2,___flsub@a+2
  7968   0018B8  C16F  F04D         	movff	powf@u+3,___flsub@a+3
  7969   0018BC  C194  F046         	movff	powf@p_h,___flsub@b
  7970   0018C0  C195  F047         	movff	powf@p_h+1,___flsub@b+1
  7971   0018C4  C196  F048         	movff	powf@p_h+2,___flsub@b+2
  7972   0018C8  C197  F049         	movff	powf@p_h+3,___flsub@b+3
  7973   0018CC  ECB3  F02F         	call	___flsub	;wreg free
  7974   0018D0  C046  F190         	movff	?___flsub,_powf$1743
  7975   0018D4  C047  F191         	movff	?___flsub+1,_powf$1743+1
  7976   0018D8  C048  F192         	movff	?___flsub+2,_powf$1743+2
  7977   0018DC  C049  F193         	movff	?___flsub+3,_powf$1743+3
  7978   0018E0  C170  F046         	movff	powf@v,___flsub@b
  7979   0018E4  C171  F047         	movff	powf@v+1,___flsub@b+1
  7980   0018E8  C172  F048         	movff	powf@v+2,___flsub@b+2
  7981   0018EC  C173  F049         	movff	powf@v+3,___flsub@b+3
  7982   0018F0  C190  F04A         	movff	_powf$1743,___flsub@a
  7983   0018F4  C191  F04B         	movff	_powf$1743+1,___flsub@a+1
  7984   0018F8  C192  F04C         	movff	_powf$1743+2,___flsub@a+2
  7985   0018FC  C193  F04D         	movff	_powf$1743+3,___flsub@a+3
  7986   001900  ECB3  F02F         	call	___flsub	;wreg free
  7987   001904  C046  F15C         	movff	?___flsub,powf@p_l
  7988   001908  C047  F15D         	movff	?___flsub+1,powf@p_l+1
  7989   00190C  C048  F15E         	movff	?___flsub+2,powf@p_l+2
  7990   001910  C049  F15F         	movff	?___flsub+3,powf@p_l+3
  7991   001914  C194  F013         	movff	powf@p_h,___flmul@b
  7992   001918  C195  F014         	movff	powf@p_h+1,___flmul@b+1
  7993   00191C  C196  F015         	movff	powf@p_h+2,___flmul@b+2
  7994   001920  C197  F016         	movff	powf@p_h+3,___flmul@b+3
  7995   001924  0E00               	movlw	0
  7996   001926  6E17               	movwf	___flmul@a^0,c
  7997   001928  0E40               	movlw	64
  7998   00192A  6E18               	movwf	(___flmul@a+1)^0,c
  7999   00192C  0E76               	movlw	118
  8000   00192E  6E19               	movwf	(___flmul@a+2)^0,c
  8001   001930  0E3F               	movlw	63
  8002   001932  6E1A               	movwf	(___flmul@a+3)^0,c
  8003   001934  EC38  F023         	call	___flmul	;wreg free
  8004   001938  C013  F114         	movff	?___flmul,powf@z_h
  8005   00193C  C014  F115         	movff	?___flmul+1,powf@z_h+1
  8006   001940  C015  F116         	movff	?___flmul+2,powf@z_h+2
  8007   001944  C016  F117         	movff	?___flmul+3,powf@z_h+3
  8008   001948  0E4F               	movlw	79
  8009   00194A  6E17               	movwf	___flmul@a^0,c
  8010   00194C  0E38               	movlw	56
  8011   00194E  6E18               	movwf	(___flmul@a+1)^0,c
  8012   001950  0E76               	movlw	118
  8013   001952  6E19               	movwf	(___flmul@a+2)^0,c
  8014   001954  0E3F               	movlw	63
  8015   001956  6E1A               	movwf	(___flmul@a+3)^0,c
  8016   001958  C15C  F013         	movff	powf@p_l,___flmul@b
  8017   00195C  C15D  F014         	movff	powf@p_l+1,___flmul@b+1
  8018   001960  C15E  F015         	movff	powf@p_l+2,___flmul@b+2
  8019   001964  C15F  F016         	movff	powf@p_l+3,___flmul@b+3
  8020   001968  EC38  F023         	call	___flmul	;wreg free
  8021   00196C  C013  F030         	movff	?___flmul,___fladd@a
  8022   001970  C014  F031         	movff	?___flmul+1,___fladd@a+1
  8023   001974  C015  F032         	movff	?___flmul+2,___fladd@a+2
  8024   001978  C016  F033         	movff	?___flmul+3,___fladd@a+3
  8025   00197C  0EC6               	movlw	198
  8026   00197E  6E17               	movwf	___flmul@a^0,c
  8027   001980  0E23               	movlw	35
  8028   001982  6E18               	movwf	(___flmul@a+1)^0,c
  8029   001984  0EF6               	movlw	246
  8030   001986  6E19               	movwf	(___flmul@a+2)^0,c
  8031   001988  0EB8               	movlw	184
  8032   00198A  6E1A               	movwf	(___flmul@a+3)^0,c
  8033   00198C  C194  F013         	movff	powf@p_h,___flmul@b
  8034   001990  C195  F014         	movff	powf@p_h+1,___flmul@b+1
  8035   001994  C196  F015         	movff	powf@p_h+2,___flmul@b+2
  8036   001998  C197  F016         	movff	powf@p_h+3,___flmul@b+3
  8037   00199C  EC38  F023         	call	___flmul	;wreg free
  8038   0019A0  C013  F02C         	movff	?___flmul,___fladd@b
  8039   0019A4  C014  F02D         	movff	?___flmul+1,___fladd@b+1
  8040   0019A8  C015  F02E         	movff	?___flmul+2,___fladd@b+2
  8041   0019AC  C016  F02F         	movff	?___flmul+3,___fladd@b+3
  8042   0019B0  ECD8  F020         	call	___fladd	;wreg free
  8043   0019B4  C02C  F150         	movff	?___fladd,_powf$1747
  8044   0019B8  C02D  F151         	movff	?___fladd+1,_powf$1747+1
  8045   0019BC  C02E  F152         	movff	?___fladd+2,_powf$1747+2
  8046   0019C0  C02F  F153         	movff	?___fladd+3,_powf$1747+3
  8047   0019C4  C150  F02C         	movff	_powf$1747,___fladd@b
  8048   0019C8  C151  F02D         	movff	_powf$1747+1,___fladd@b+1
  8049   0019CC  C152  F02E         	movff	_powf$1747+2,___fladd@b+2
  8050   0019D0  C153  F02F         	movff	_powf$1747+3,___fladd@b+3
  8051   0019D4  C198  F095         	movff	powf@k,??_powf
  8052   0019D8  C199  F096         	movff	powf@k+1,??_powf+1
  8053   0019DC  0100               	movlb	0	; () banked
  8054   0019DE  90D8               	bcf	status,0,c
  8055   0019E0  3795               	rlcf	??_powf& (0+255),f,b
  8056   0019E2  3796               	rlcf	(??_powf+1)& (0+255),f,b
  8057   0019E4  90D8               	bcf	status,0,c
  8058   0019E6  3795               	rlcf	??_powf& (0+255),f,b
  8059   0019E8  3796               	rlcf	(??_powf+1)& (0+255),f,b
  8060   0019EA  0E65               	movlw	low _dp_l
  8061   0019EC  2595               	addwf	??_powf& (0+255),w,b
  8062   0019EE  6EF6               	movwf	tblptrl,c
  8063   0019F0  0EFF               	movlw	high _dp_l
  8064   0019F2  2196               	addwfc	(??_powf+1)& (0+255),w,b
  8065   0019F4  6EF7               	movwf	tblptrh,c
  8066   0019F6                     	if	1	;There are 3 active tblptr bytes
  8067   0019F6  6AF8               	clrf	tblptru,c
  8068   0019F8  0E00               	movlw	low (__mediumconst shr (0+16))
  8069   0019FA  22F8               	addwfc	tblptru,f,c
  8070   0019FC                     	endif
  8071   0019FC  0009               	tblrd		*+
  8072   0019FE  006F FFD4  F030    	movff	tablat,___fladd@a
  8073   001A04  0009               	tblrd		*+
  8074   001A06  006F FFD4  F031    	movff	tablat,___fladd@a+1
  8075   001A0C  0009               	tblrd		*+
  8076   001A0E  006F FFD4  F032    	movff	tablat,___fladd@a+2
  8077   001A14  000A               	tblrd		*-
  8078   001A16  006F FFD4  F033    	movff	tablat,___fladd@a+3
  8079   001A1C  ECD8  F020         	call	___fladd	;wreg free
  8080   001A20  C02C  F118         	movff	?___fladd,powf@z_l
  8081   001A24  C02D  F119         	movff	?___fladd+1,powf@z_l+1
  8082   001A28  C02E  F11A         	movff	?___fladd+2,powf@z_l+2
  8083   001A2C  C02F  F11B         	movff	?___fladd+3,powf@z_l+3
  8084   001A30  C178  F003         	movff	powf@n,___xxtofl@val
  8085   001A34  C179  F004         	movff	powf@n+1,___xxtofl@val+1
  8086   001A38  C17A  F005         	movff	powf@n+2,___xxtofl@val+2
  8087   001A3C  C17B  F006         	movff	powf@n+3,___xxtofl@val+3
  8088   001A40  0E01               	movlw	1
  8089   001A42  EC61  F029         	call	___xxtofl
  8090   001A46  C003  F1A8         	movff	?___xxtofl,powf@t
  8091   001A4A  C004  F1A9         	movff	?___xxtofl+1,powf@t+1
  8092   001A4E  C005  F1AA         	movff	?___xxtofl+2,powf@t+2
  8093   001A52  C006  F1AB         	movff	?___xxtofl+3,powf@t+3
  8094   001A56  C118  F030         	movff	powf@z_l,___fladd@a
  8095   001A5A  C119  F031         	movff	powf@z_l+1,___fladd@a+1
  8096   001A5E  C11A  F032         	movff	powf@z_l+2,___fladd@a+2
  8097   001A62  C11B  F033         	movff	powf@z_l+3,___fladd@a+3
  8098   001A66  C114  F02C         	movff	powf@z_h,___fladd@b
  8099   001A6A  C115  F02D         	movff	powf@z_h+1,___fladd@b+1
  8100   001A6E  C116  F02E         	movff	powf@z_h+2,___fladd@b+2
  8101   001A72  C117  F02F         	movff	powf@z_h+3,___fladd@b+3
  8102   001A76  ECD8  F020         	call	___fladd	;wreg free
  8103   001A7A  C02C  F150         	movff	?___fladd,_powf$1747
  8104   001A7E  C02D  F151         	movff	?___fladd+1,_powf$1747+1
  8105   001A82  C02E  F152         	movff	?___fladd+2,_powf$1747+2
  8106   001A86  C02F  F153         	movff	?___fladd+3,_powf$1747+3
  8107   001A8A  C198  F095         	movff	powf@k,??_powf
  8108   001A8E  C199  F096         	movff	powf@k+1,??_powf+1
  8109   001A92  0100               	movlb	0	; () banked
  8110   001A94  90D8               	bcf	status,0,c
  8111   001A96  3795               	rlcf	??_powf& (0+255),f,b
  8112   001A98  3796               	rlcf	(??_powf+1)& (0+255),f,b
  8113   001A9A  90D8               	bcf	status,0,c
  8114   001A9C  3795               	rlcf	??_powf& (0+255),f,b
  8115   001A9E  3796               	rlcf	(??_powf+1)& (0+255),f,b
  8116   001AA0  0E6D               	movlw	low _dp_h
  8117   001AA2  2595               	addwf	??_powf& (0+255),w,b
  8118   001AA4  6EF6               	movwf	tblptrl,c
  8119   001AA6  0EFF               	movlw	high _dp_h
  8120   001AA8  2196               	addwfc	(??_powf+1)& (0+255),w,b
  8121   001AAA  6EF7               	movwf	tblptrh,c
  8122   001AAC                     	if	1	;There are 3 active tblptr bytes
  8123   001AAC  6AF8               	clrf	tblptru,c
  8124   001AAE  0E00               	movlw	low (__mediumconst shr (0+16))
  8125   001AB0  22F8               	addwfc	tblptru,f,c
  8126   001AB2                     	endif
  8127   001AB2  0009               	tblrd		*+
  8128   001AB4  006F FFD4  F030    	movff	tablat,___fladd@a
  8129   001ABA  0009               	tblrd		*+
  8130   001ABC  006F FFD4  F031    	movff	tablat,___fladd@a+1
  8131   001AC2  0009               	tblrd		*+
  8132   001AC4  006F FFD4  F032    	movff	tablat,___fladd@a+2
  8133   001ACA  000A               	tblrd		*-
  8134   001ACC  006F FFD4  F033    	movff	tablat,___fladd@a+3
  8135   001AD2  C150  F02C         	movff	_powf$1747,___fladd@b
  8136   001AD6  C151  F02D         	movff	_powf$1747+1,___fladd@b+1
  8137   001ADA  C152  F02E         	movff	_powf$1747+2,___fladd@b+2
  8138   001ADE  C153  F02F         	movff	_powf$1747+3,___fladd@b+3
  8139   001AE2  ECD8  F020         	call	___fladd	;wreg free
  8140   001AE6  C02C  F108         	movff	?___fladd,_powf$1750
  8141   001AEA  C02D  F109         	movff	?___fladd+1,_powf$1750+1
  8142   001AEE  C02E  F10A         	movff	?___fladd+2,_powf$1750+2
  8143   001AF2  C02F  F10B         	movff	?___fladd+3,_powf$1750+3
  8144   001AF6  C108  F02C         	movff	_powf$1750,___fladd@b
  8145   001AFA  C109  F02D         	movff	_powf$1750+1,___fladd@b+1
  8146   001AFE  C10A  F02E         	movff	_powf$1750+2,___fladd@b+2
  8147   001B02  C10B  F02F         	movff	_powf$1750+3,___fladd@b+3
  8148   001B06  C1A8  F030         	movff	powf@t,___fladd@a
  8149   001B0A  C1A9  F031         	movff	powf@t+1,___fladd@a+1
  8150   001B0E  C1AA  F032         	movff	powf@t+2,___fladd@a+2
  8151   001B12  C1AB  F033         	movff	powf@t+3,___fladd@a+3
  8152   001B16  ECD8  F020         	call	___fladd	;wreg free
  8153   001B1A  C02C  F17C         	movff	?___fladd,powf@t1
  8154   001B1E  C02D  F17D         	movff	?___fladd+1,powf@t1+1
  8155   001B22  C02E  F17E         	movff	?___fladd+2,powf@t1+2
  8156   001B26  C02F  F17F         	movff	?___fladd+3,powf@t1+3
  8157   001B2A  C17C  F1B0         	movff	powf@t1,powf@__xc8_float_word
  8158   001B2E  C17D  F1B1         	movff	powf@t1+1,powf@__xc8_float_word+1
  8159   001B32  C17E  F1B2         	movff	powf@t1+2,powf@__xc8_float_word+2
  8160   001B36  C17F  F1B3         	movff	powf@t1+3,powf@__xc8_float_word+3
  8161   001B3A  C1B0  F18C         	movff	powf@__xc8_float_word,powf@is
  8162   001B3E  C1B1  F18D         	movff	powf@__xc8_float_word+1,powf@is+1
  8163   001B42  C1B2  F18E         	movff	powf@__xc8_float_word+2,powf@is+2
  8164   001B46  C1B3  F18F         	movff	powf@__xc8_float_word+3,powf@is+3
  8165   001B4A  0E00               	movlw	0
  8166   001B4C  0101               	movlb	1	; () banked
  8167   001B4E  158C               	andwf	powf@is& (0+255),w,b
  8168   001B50  6FB0               	movwf	powf@__xc8_float_word& (0+255),b
  8169   001B52  0EF0               	movlw	240
  8170   001B54  158D               	andwf	(powf@is+1)& (0+255),w,b
  8171   001B56  6FB1               	movwf	(powf@__xc8_float_word+1)& (0+255),b
  8172   001B58  0EFF               	movlw	255
  8173   001B5A  158E               	andwf	(powf@is+2)& (0+255),w,b
  8174   001B5C  6FB2               	movwf	(powf@__xc8_float_word+2)& (0+255),b
  8175   001B5E  0EFF               	movlw	255
  8176   001B60  158F               	andwf	(powf@is+3)& (0+255),w,b
  8177   001B62  6FB3               	movwf	(powf@__xc8_float_word+3)& (0+255),b
  8178   001B64                     
  8179                           ; BSR set to: 1
  8180   001B64  C1B0  F17C         	movff	powf@__xc8_float_word,powf@t1
  8181   001B68  C1B1  F17D         	movff	powf@__xc8_float_word+1,powf@t1+1
  8182   001B6C  C1B2  F17E         	movff	powf@__xc8_float_word+2,powf@t1+2
  8183   001B70  C1B3  F17F         	movff	powf@__xc8_float_word+3,powf@t1+3
  8184   001B74                     
  8185                           ; BSR set to: 1
  8186   001B74  C1A8  F04A         	movff	powf@t,___flsub@a
  8187   001B78  C1A9  F04B         	movff	powf@t+1,___flsub@a+1
  8188   001B7C  C1AA  F04C         	movff	powf@t+2,___flsub@a+2
  8189   001B80  C1AB  F04D         	movff	powf@t+3,___flsub@a+3
  8190   001B84  C17C  F046         	movff	powf@t1,___flsub@b
  8191   001B88  C17D  F047         	movff	powf@t1+1,___flsub@b+1
  8192   001B8C  C17E  F048         	movff	powf@t1+2,___flsub@b+2
  8193   001B90  C17F  F049         	movff	powf@t1+3,___flsub@b+3
  8194   001B94  ECB3  F02F         	call	___flsub	;wreg free
  8195   001B98  C046  F190         	movff	?___flsub,_powf$1743
  8196   001B9C  C047  F191         	movff	?___flsub+1,_powf$1743+1
  8197   001BA0  C048  F192         	movff	?___flsub+2,_powf$1743+2
  8198   001BA4  C049  F193         	movff	?___flsub+3,_powf$1743+3
  8199   001BA8  C198  F095         	movff	powf@k,??_powf
  8200   001BAC  C199  F096         	movff	powf@k+1,??_powf+1
  8201   001BB0  0100               	movlb	0	; () banked
  8202   001BB2  90D8               	bcf	status,0,c
  8203   001BB4  3795               	rlcf	??_powf& (0+255),f,b
  8204   001BB6  3796               	rlcf	(??_powf+1)& (0+255),f,b
  8205   001BB8  90D8               	bcf	status,0,c
  8206   001BBA  3795               	rlcf	??_powf& (0+255),f,b
  8207   001BBC  3796               	rlcf	(??_powf+1)& (0+255),f,b
  8208   001BBE  0E6D               	movlw	low _dp_h
  8209   001BC0  2595               	addwf	??_powf& (0+255),w,b
  8210   001BC2  6EF6               	movwf	tblptrl,c
  8211   001BC4  0EFF               	movlw	high _dp_h
  8212   001BC6  2196               	addwfc	(??_powf+1)& (0+255),w,b
  8213   001BC8  6EF7               	movwf	tblptrh,c
  8214   001BCA                     	if	1	;There are 3 active tblptr bytes
  8215   001BCA  6AF8               	clrf	tblptru,c
  8216   001BCC  0E00               	movlw	low (__mediumconst shr (0+16))
  8217   001BCE  22F8               	addwfc	tblptru,f,c
  8218   001BD0                     	endif
  8219   001BD0  0009               	tblrd		*+
  8220   001BD2  006F FFD4  F04A    	movff	tablat,___flsub@a
  8221   001BD8  0009               	tblrd		*+
  8222   001BDA  006F FFD4  F04B    	movff	tablat,___flsub@a+1
  8223   001BE0  0009               	tblrd		*+
  8224   001BE2  006F FFD4  F04C    	movff	tablat,___flsub@a+2
  8225   001BE8  000A               	tblrd		*-
  8226   001BEA  006F FFD4  F04D    	movff	tablat,___flsub@a+3
  8227   001BF0  C190  F046         	movff	_powf$1743,___flsub@b
  8228   001BF4  C191  F047         	movff	_powf$1743+1,___flsub@b+1
  8229   001BF8  C192  F048         	movff	_powf$1743+2,___flsub@b+2
  8230   001BFC  C193  F049         	movff	_powf$1743+3,___flsub@b+3
  8231   001C00  ECB3  F02F         	call	___flsub	;wreg free
  8232   001C04  C046  F130         	movff	?___flsub,_powf$1749
  8233   001C08  C047  F131         	movff	?___flsub+1,_powf$1749+1
  8234   001C0C  C048  F132         	movff	?___flsub+2,_powf$1749+2
  8235   001C10  C049  F133         	movff	?___flsub+3,_powf$1749+3
  8236   001C14  C114  F04A         	movff	powf@z_h,___flsub@a
  8237   001C18  C115  F04B         	movff	powf@z_h+1,___flsub@a+1
  8238   001C1C  C116  F04C         	movff	powf@z_h+2,___flsub@a+2
  8239   001C20  C117  F04D         	movff	powf@z_h+3,___flsub@a+3
  8240   001C24  C130  F046         	movff	_powf$1749,___flsub@b
  8241   001C28  C131  F047         	movff	_powf$1749+1,___flsub@b+1
  8242   001C2C  C132  F048         	movff	_powf$1749+2,___flsub@b+2
  8243   001C30  C133  F049         	movff	_powf$1749+3,___flsub@b+3
  8244   001C34  ECB3  F02F         	call	___flsub	;wreg free
  8245   001C38  C046  F10C         	movff	?___flsub,_powf$1751
  8246   001C3C  C047  F10D         	movff	?___flsub+1,_powf$1751+1
  8247   001C40  C048  F10E         	movff	?___flsub+2,_powf$1751+2
  8248   001C44  C049  F10F         	movff	?___flsub+3,_powf$1751+3
  8249   001C48  C118  F046         	movff	powf@z_l,___flsub@b
  8250   001C4C  C119  F047         	movff	powf@z_l+1,___flsub@b+1
  8251   001C50  C11A  F048         	movff	powf@z_l+2,___flsub@b+2
  8252   001C54  C11B  F049         	movff	powf@z_l+3,___flsub@b+3
  8253   001C58  C10C  F04A         	movff	_powf$1751,___flsub@a
  8254   001C5C  C10D  F04B         	movff	_powf$1751+1,___flsub@a+1
  8255   001C60  C10E  F04C         	movff	_powf$1751+2,___flsub@a+2
  8256   001C64  C10F  F04D         	movff	_powf$1751+3,___flsub@a+3
  8257   001C68  ECB3  F02F         	call	___flsub	;wreg free
  8258   001C6C  C046  F110         	movff	?___flsub,powf@t2
  8259   001C70  C047  F111         	movff	?___flsub+1,powf@t2+1
  8260   001C74  C048  F112         	movff	?___flsub+2,powf@t2+2
  8261   001C78  C049  F113         	movff	?___flsub+3,powf@t2+3
  8262   001C7C                     l5528:
  8263   001C7C  C091  F1B0         	movff	powf@y,powf@__xc8_float_word
  8264   001C80  C092  F1B1         	movff	powf@y+1,powf@__xc8_float_word+1
  8265   001C84  C093  F1B2         	movff	powf@y+2,powf@__xc8_float_word+2
  8266   001C88  C094  F1B3         	movff	powf@y+3,powf@__xc8_float_word+3
  8267   001C8C  C1B0  F18C         	movff	powf@__xc8_float_word,powf@is
  8268   001C90  C1B1  F18D         	movff	powf@__xc8_float_word+1,powf@is+1
  8269   001C94  C1B2  F18E         	movff	powf@__xc8_float_word+2,powf@is+2
  8270   001C98  C1B3  F18F         	movff	powf@__xc8_float_word+3,powf@is+3
  8271   001C9C  0E00               	movlw	0
  8272   001C9E  0101               	movlb	1	; () banked
  8273   001CA0  158C               	andwf	powf@is& (0+255),w,b
  8274   001CA2  6FB0               	movwf	powf@__xc8_float_word& (0+255),b
  8275   001CA4  0EF0               	movlw	240
  8276   001CA6  158D               	andwf	(powf@is+1)& (0+255),w,b
  8277   001CA8  6FB1               	movwf	(powf@__xc8_float_word+1)& (0+255),b
  8278   001CAA  0EFF               	movlw	255
  8279   001CAC  158E               	andwf	(powf@is+2)& (0+255),w,b
  8280   001CAE  6FB2               	movwf	(powf@__xc8_float_word+2)& (0+255),b
  8281   001CB0  0EFF               	movlw	255
  8282   001CB2  158F               	andwf	(powf@is+3)& (0+255),w,b
  8283   001CB4  6FB3               	movwf	(powf@__xc8_float_word+3)& (0+255),b
  8284   001CB6                     
  8285                           ; BSR set to: 1
  8286   001CB6  C1B0  F11C         	movff	powf@__xc8_float_word,powf@y1
  8287   001CBA  C1B1  F11D         	movff	powf@__xc8_float_word+1,powf@y1+1
  8288   001CBE  C1B2  F11E         	movff	powf@__xc8_float_word+2,powf@y1+2
  8289   001CC2  C1B3  F11F         	movff	powf@__xc8_float_word+3,powf@y1+3
  8290   001CC6                     
  8291                           ; BSR set to: 1
  8292   001CC6  C17C  F017         	movff	powf@t1,___flmul@a
  8293   001CCA  C17D  F018         	movff	powf@t1+1,___flmul@a+1
  8294   001CCE  C17E  F019         	movff	powf@t1+2,___flmul@a+2
  8295   001CD2  C17F  F01A         	movff	powf@t1+3,___flmul@a+3
  8296   001CD6  C11C  F04A         	movff	powf@y1,___flsub@a
  8297   001CDA  C11D  F04B         	movff	powf@y1+1,___flsub@a+1
  8298   001CDE  C11E  F04C         	movff	powf@y1+2,___flsub@a+2
  8299   001CE2  C11F  F04D         	movff	powf@y1+3,___flsub@a+3
  8300   001CE6  C091  F046         	movff	powf@y,___flsub@b
  8301   001CEA  C092  F047         	movff	powf@y+1,___flsub@b+1
  8302   001CEE  C093  F048         	movff	powf@y+2,___flsub@b+2
  8303   001CF2  C094  F049         	movff	powf@y+3,___flsub@b+3
  8304   001CF6  ECB3  F02F         	call	___flsub	;wreg free
  8305   001CFA  C046  F013         	movff	?___flsub,___flmul@b
  8306   001CFE  C047  F014         	movff	?___flsub+1,___flmul@b+1
  8307   001D02  C048  F015         	movff	?___flsub+2,___flmul@b+2
  8308   001D06  C049  F016         	movff	?___flsub+3,___flmul@b+3
  8309   001D0A  EC38  F023         	call	___flmul	;wreg free
  8310   001D0E  C013  F140         	movff	?___flmul,_powf$1748
  8311   001D12  C014  F141         	movff	?___flmul+1,_powf$1748+1
  8312   001D16  C015  F142         	movff	?___flmul+2,_powf$1748+2
  8313   001D1A  C016  F143         	movff	?___flmul+3,_powf$1748+3
  8314   001D1E  C140  F02C         	movff	_powf$1748,___fladd@b
  8315   001D22  C141  F02D         	movff	_powf$1748+1,___fladd@b+1
  8316   001D26  C142  F02E         	movff	_powf$1748+2,___fladd@b+2
  8317   001D2A  C143  F02F         	movff	_powf$1748+3,___fladd@b+3
  8318   001D2E  C110  F017         	movff	powf@t2,___flmul@a
  8319   001D32  C111  F018         	movff	powf@t2+1,___flmul@a+1
  8320   001D36  C112  F019         	movff	powf@t2+2,___flmul@a+2
  8321   001D3A  C113  F01A         	movff	powf@t2+3,___flmul@a+3
  8322   001D3E  C091  F013         	movff	powf@y,___flmul@b
  8323   001D42  C092  F014         	movff	powf@y+1,___flmul@b+1
  8324   001D46  C093  F015         	movff	powf@y+2,___flmul@b+2
  8325   001D4A  C094  F016         	movff	powf@y+3,___flmul@b+3
  8326   001D4E  EC38  F023         	call	___flmul	;wreg free
  8327   001D52  C013  F030         	movff	?___flmul,___fladd@a
  8328   001D56  C014  F031         	movff	?___flmul+1,___fladd@a+1
  8329   001D5A  C015  F032         	movff	?___flmul+2,___fladd@a+2
  8330   001D5E  C016  F033         	movff	?___flmul+3,___fladd@a+3
  8331   001D62  ECD8  F020         	call	___fladd	;wreg free
  8332   001D66  C02C  F15C         	movff	?___fladd,powf@p_l
  8333   001D6A  C02D  F15D         	movff	?___fladd+1,powf@p_l+1
  8334   001D6E  C02E  F15E         	movff	?___fladd+2,powf@p_l+2
  8335   001D72  C02F  F15F         	movff	?___fladd+3,powf@p_l+3
  8336   001D76  C11C  F013         	movff	powf@y1,___flmul@b
  8337   001D7A  C11D  F014         	movff	powf@y1+1,___flmul@b+1
  8338   001D7E  C11E  F015         	movff	powf@y1+2,___flmul@b+2
  8339   001D82  C11F  F016         	movff	powf@y1+3,___flmul@b+3
  8340   001D86  C17C  F017         	movff	powf@t1,___flmul@a
  8341   001D8A  C17D  F018         	movff	powf@t1+1,___flmul@a+1
  8342   001D8E  C17E  F019         	movff	powf@t1+2,___flmul@a+2
  8343   001D92  C17F  F01A         	movff	powf@t1+3,___flmul@a+3
  8344   001D96  EC38  F023         	call	___flmul	;wreg free
  8345   001D9A  C013  F194         	movff	?___flmul,powf@p_h
  8346   001D9E  C014  F195         	movff	?___flmul+1,powf@p_h+1
  8347   001DA2  C015  F196         	movff	?___flmul+2,powf@p_h+2
  8348   001DA6  C016  F197         	movff	?___flmul+3,powf@p_h+3
  8349   001DAA  C15C  F02C         	movff	powf@p_l,___fladd@b
  8350   001DAE  C15D  F02D         	movff	powf@p_l+1,___fladd@b+1
  8351   001DB2  C15E  F02E         	movff	powf@p_l+2,___fladd@b+2
  8352   001DB6  C15F  F02F         	movff	powf@p_l+3,___fladd@b+3
  8353   001DBA  C194  F030         	movff	powf@p_h,___fladd@a
  8354   001DBE  C195  F031         	movff	powf@p_h+1,___fladd@a+1
  8355   001DC2  C196  F032         	movff	powf@p_h+2,___fladd@a+2
  8356   001DC6  C197  F033         	movff	powf@p_h+3,___fladd@a+3
  8357   001DCA  ECD8  F020         	call	___fladd	;wreg free
  8358   001DCE  C02C  F1AC         	movff	?___fladd,powf@z
  8359   001DD2  C02D  F1AD         	movff	?___fladd+1,powf@z+1
  8360   001DD6  C02E  F1AE         	movff	?___fladd+2,powf@z+2
  8361   001DDA  C02F  F1AF         	movff	?___fladd+3,powf@z+3
  8362   001DDE  C1AC  F1B0         	movff	powf@z,powf@__xc8_float_word
  8363   001DE2  C1AD  F1B1         	movff	powf@z+1,powf@__xc8_float_word+1
  8364   001DE6  C1AE  F1B2         	movff	powf@z+2,powf@__xc8_float_word+2
  8365   001DEA  C1AF  F1B3         	movff	powf@z+3,powf@__xc8_float_word+3
  8366   001DEE  C1B0  F1A4         	movff	powf@__xc8_float_word,powf@j
  8367   001DF2  C1B1  F1A5         	movff	powf@__xc8_float_word+1,powf@j+1
  8368   001DF6  C1B2  F1A6         	movff	powf@__xc8_float_word+2,powf@j+2
  8369   001DFA  C1B3  F1A7         	movff	powf@__xc8_float_word+3,powf@j+3
  8370   001DFE  0101               	movlb	1	; () banked
  8371   001E00  BFA7               	btfsc	(powf@j+3)& (0+255),7,b
  8372   001E02  EF0F  F00F         	goto	u5331
  8373   001E06  05A4               	decf	powf@j& (0+255),w,b
  8374   001E08  0E00               	movlw	0
  8375   001E0A  59A5               	subwfb	(powf@j+1)& (0+255),w,b
  8376   001E0C  0E00               	movlw	0
  8377   001E0E  59A6               	subwfb	(powf@j+2)& (0+255),w,b
  8378   001E10  0E43               	movlw	67
  8379   001E12  59A7               	subwfb	(powf@j+3)& (0+255),w,b
  8380   001E14  A0D8               	btfss	status,0,c
  8381   001E16  EF0F  F00F         	goto	u5331
  8382   001E1A  EF11  F00F         	goto	u5330
  8383   001E1E                     u5331:
  8384   001E1E  EF47  F00F         	goto	l5556
  8385   001E22                     u5330:
  8386   001E22                     
  8387                           ; BSR set to: 1
  8388   001E22  0ECA               	movlw	202
  8389   001E24  6E17               	movwf	___flmul@a^0,c
  8390   001E26  0EF2               	movlw	242
  8391   001E28  6E18               	movwf	(___flmul@a+1)^0,c
  8392   001E2A  0E49               	movlw	73
  8393   001E2C  6E19               	movwf	(___flmul@a+2)^0,c
  8394   001E2E  0E71               	movlw	113
  8395   001E30  6E1A               	movwf	(___flmul@a+3)^0,c
  8396   001E32  C180  F013         	movff	powf@sn,___flmul@b
  8397   001E36  C181  F014         	movff	powf@sn+1,___flmul@b+1
  8398   001E3A  C182  F015         	movff	powf@sn+2,___flmul@b+2
  8399   001E3E  C183  F016         	movff	powf@sn+3,___flmul@b+3
  8400   001E42  EC38  F023         	call	___flmul	;wreg free
  8401   001E46  C013  F19C         	movff	?___flmul,_powf$1740
  8402   001E4A  C014  F19D         	movff	?___flmul+1,_powf$1740+1
  8403   001E4E  C015  F19E         	movff	?___flmul+2,_powf$1740+2
  8404   001E52  C016  F19F         	movff	?___flmul+3,_powf$1740+3
  8405   001E56  C19C  F013         	movff	_powf$1740,___flmul@b
  8406   001E5A  C19D  F014         	movff	_powf$1740+1,___flmul@b+1
  8407   001E5E  C19E  F015         	movff	_powf$1740+2,___flmul@b+2
  8408   001E62  C19F  F016         	movff	_powf$1740+3,___flmul@b+3
  8409   001E66  0ECA               	movlw	202
  8410   001E68  6E17               	movwf	___flmul@a^0,c
  8411   001E6A  0EF2               	movlw	242
  8412   001E6C  6E18               	movwf	(___flmul@a+1)^0,c
  8413   001E6E  0E49               	movlw	73
  8414   001E70  6E19               	movwf	(___flmul@a+2)^0,c
  8415   001E72  0E71               	movlw	113
  8416   001E74  6E1A               	movwf	(___flmul@a+3)^0,c
  8417   001E76  EC38  F023         	call	___flmul	;wreg free
  8418   001E7A  C013  F08D         	movff	?___flmul,?_powf
  8419   001E7E  C014  F08E         	movff	?___flmul+1,?_powf+1
  8420   001E82  C015  F08F         	movff	?___flmul+2,?_powf+2
  8421   001E86  C016  F090         	movff	?___flmul+3,?_powf+3
  8422   001E8A  EF48  F015         	goto	l1205
  8423   001E8E                     l5556:
  8424                           
  8425                           ; BSR set to: 1
  8426   001E8E  0E43               	movlw	67
  8427   001E90  19A7               	xorwf	(powf@j+3)& (0+255),w,b
  8428   001E92  11A4               	iorwf	powf@j& (0+255),w,b
  8429   001E94  11A5               	iorwf	(powf@j+1)& (0+255),w,b
  8430   001E96  11A6               	iorwf	(powf@j+2)& (0+255),w,b
  8431   001E98  A4D8               	btfss	status,2,c
  8432   001E9A  EF51  F00F         	goto	u5341
  8433   001E9E  EF53  F00F         	goto	u5340
  8434   001EA2                     u5341:
  8435   001EA2  EFC6  F00F         	goto	l5564
  8436   001EA6                     u5340:
  8437   001EA6                     
  8438                           ; BSR set to: 1
  8439   001EA6  C194  F04A         	movff	powf@p_h,___flsub@a
  8440   001EAA  C195  F04B         	movff	powf@p_h+1,___flsub@a+1
  8441   001EAE  C196  F04C         	movff	powf@p_h+2,___flsub@a+2
  8442   001EB2  C197  F04D         	movff	powf@p_h+3,___flsub@a+3
  8443   001EB6  C1AC  F046         	movff	powf@z,___flsub@b
  8444   001EBA  C1AD  F047         	movff	powf@z+1,___flsub@b+1
  8445   001EBE  C1AE  F048         	movff	powf@z+2,___flsub@b+2
  8446   001EC2  C1AF  F049         	movff	powf@z+3,___flsub@b+3
  8447   001EC6  ECB3  F02F         	call	___flsub	;wreg free
  8448   001ECA  C046  F04E         	movff	?___flsub,___flge@ff1
  8449   001ECE  C047  F04F         	movff	?___flsub+1,___flge@ff1+1
  8450   001ED2  C048  F050         	movff	?___flsub+2,___flge@ff1+2
  8451   001ED6  C049  F051         	movff	?___flsub+3,___flge@ff1+3
  8452   001EDA  0E3C               	movlw	60
  8453   001EDC  6E30               	movwf	___fladd@a^0,c
  8454   001EDE  0EAA               	movlw	170
  8455   001EE0  6E31               	movwf	(___fladd@a+1)^0,c
  8456   001EE2  0E38               	movlw	56
  8457   001EE4  6E32               	movwf	(___fladd@a+2)^0,c
  8458   001EE6  0E33               	movlw	51
  8459   001EE8  6E33               	movwf	(___fladd@a+3)^0,c
  8460   001EEA  C15C  F02C         	movff	powf@p_l,___fladd@b
  8461   001EEE  C15D  F02D         	movff	powf@p_l+1,___fladd@b+1
  8462   001EF2  C15E  F02E         	movff	powf@p_l+2,___fladd@b+2
  8463   001EF6  C15F  F02F         	movff	powf@p_l+3,___fladd@b+3
  8464   001EFA  ECD8  F020         	call	___fladd	;wreg free
  8465   001EFE  C02C  F052         	movff	?___fladd,___flge@ff2
  8466   001F02  C02D  F053         	movff	?___fladd+1,___flge@ff2+1
  8467   001F06  C02E  F054         	movff	?___fladd+2,___flge@ff2+2
  8468   001F0A  C02F  F055         	movff	?___fladd+3,___flge@ff2+3
  8469   001F0E  ECEB  F02C         	call	___flge	;wreg free
  8470   001F12  B0D8               	btfsc	status,0,c
  8471   001F14  EF8E  F00F         	goto	u5351
  8472   001F18  EF90  F00F         	goto	u5350
  8473   001F1C                     u5351:
  8474   001F1C  EF90  F010         	goto	l5580
  8475   001F20                     u5350:
  8476   001F20  0ECA               	movlw	202
  8477   001F22  6E17               	movwf	___flmul@a^0,c
  8478   001F24  0EF2               	movlw	242
  8479   001F26  6E18               	movwf	(___flmul@a+1)^0,c
  8480   001F28  0E49               	movlw	73
  8481   001F2A  6E19               	movwf	(___flmul@a+2)^0,c
  8482   001F2C  0E71               	movlw	113
  8483   001F2E  6E1A               	movwf	(___flmul@a+3)^0,c
  8484   001F30  C180  F013         	movff	powf@sn,___flmul@b
  8485   001F34  C181  F014         	movff	powf@sn+1,___flmul@b+1
  8486   001F38  C182  F015         	movff	powf@sn+2,___flmul@b+2
  8487   001F3C  C183  F016         	movff	powf@sn+3,___flmul@b+3
  8488   001F40  EC38  F023         	call	___flmul	;wreg free
  8489   001F44  C013  F19C         	movff	?___flmul,_powf$1740
  8490   001F48  C014  F19D         	movff	?___flmul+1,_powf$1740+1
  8491   001F4C  C015  F19E         	movff	?___flmul+2,_powf$1740+2
  8492   001F50  C016  F19F         	movff	?___flmul+3,_powf$1740+3
  8493   001F54  C19C  F013         	movff	_powf$1740,___flmul@b
  8494   001F58  C19D  F014         	movff	_powf$1740+1,___flmul@b+1
  8495   001F5C  C19E  F015         	movff	_powf$1740+2,___flmul@b+2
  8496   001F60  C19F  F016         	movff	_powf$1740+3,___flmul@b+3
  8497   001F64  0ECA               	movlw	202
  8498   001F66  6E17               	movwf	___flmul@a^0,c
  8499   001F68  0EF2               	movlw	242
  8500   001F6A  6E18               	movwf	(___flmul@a+1)^0,c
  8501   001F6C  0E49               	movlw	73
  8502   001F6E  6E19               	movwf	(___flmul@a+2)^0,c
  8503   001F70  0E71               	movlw	113
  8504   001F72  6E1A               	movwf	(___flmul@a+3)^0,c
  8505   001F74  EC38  F023         	call	___flmul	;wreg free
  8506   001F78  C013  F08D         	movff	?___flmul,?_powf
  8507   001F7C  C014  F08E         	movff	?___flmul+1,?_powf+1
  8508   001F80  C015  F08F         	movff	?___flmul+2,?_powf+2
  8509   001F84  C016  F090         	movff	?___flmul+3,?_powf+3
  8510   001F88  EF48  F015         	goto	l1205
  8511   001F8C                     l5564:
  8512                           
  8513                           ; BSR set to: 1
  8514   001F8C  0EFF               	movlw	255
  8515   001F8E  15A4               	andwf	powf@j& (0+255),w,b
  8516   001F90  0100               	movlb	0	; () banked
  8517   001F92  6F95               	movwf	??_powf& (0+255),b
  8518   001F94  0EFF               	movlw	255
  8519   001F96  0101               	movlb	1	; () banked
  8520   001F98  15A5               	andwf	(powf@j+1)& (0+255),w,b
  8521   001F9A  0100               	movlb	0	; () banked
  8522   001F9C  6F96               	movwf	(??_powf+1)& (0+255),b
  8523   001F9E  0EFF               	movlw	255
  8524   001FA0  0101               	movlb	1	; () banked
  8525   001FA2  15A6               	andwf	(powf@j+2)& (0+255),w,b
  8526   001FA4  0100               	movlb	0	; () banked
  8527   001FA6  6F97               	movwf	(??_powf+2)& (0+255),b
  8528   001FA8  0E7F               	movlw	127
  8529   001FAA  0101               	movlb	1	; () banked
  8530   001FAC  15A7               	andwf	(powf@j+3)& (0+255),w,b
  8531   001FAE  0100               	movlb	0	; () banked
  8532   001FB0  6F98               	movwf	(??_powf+3)& (0+255),b
  8533   001FB2  BF98               	btfsc	(??_powf+3)& (0+255),7,b
  8534   001FB4  EFE8  F00F         	goto	u5361
  8535   001FB8  0595               	decf	??_powf& (0+255),w,b
  8536   001FBA  0E00               	movlw	0
  8537   001FBC  5996               	subwfb	(??_powf+1)& (0+255),w,b
  8538   001FBE  0E16               	movlw	22
  8539   001FC0  5997               	subwfb	(??_powf+2)& (0+255),w,b
  8540   001FC2  0E43               	movlw	67
  8541   001FC4  5998               	subwfb	(??_powf+3)& (0+255),w,b
  8542   001FC6  A0D8               	btfss	status,0,c
  8543   001FC8  EFE8  F00F         	goto	u5361
  8544   001FCC  EFEA  F00F         	goto	u5360
  8545   001FD0                     u5361:
  8546   001FD0  EF20  F010         	goto	l5572
  8547   001FD4                     u5360:
  8548   001FD4                     
  8549                           ; BSR set to: 0
  8550   001FD4  0E60               	movlw	96
  8551   001FD6  6E17               	movwf	___flmul@a^0,c
  8552   001FD8  0E42               	movlw	66
  8553   001FDA  6E18               	movwf	(___flmul@a+1)^0,c
  8554   001FDC  0EA2               	movlw	162
  8555   001FDE  6E19               	movwf	(___flmul@a+2)^0,c
  8556   001FE0  0E0D               	movlw	13
  8557   001FE2  6E1A               	movwf	(___flmul@a+3)^0,c
  8558   001FE4  C180  F013         	movff	powf@sn,___flmul@b
  8559   001FE8  C181  F014         	movff	powf@sn+1,___flmul@b+1
  8560   001FEC  C182  F015         	movff	powf@sn+2,___flmul@b+2
  8561   001FF0  C183  F016         	movff	powf@sn+3,___flmul@b+3
  8562   001FF4  EC38  F023         	call	___flmul	;wreg free
  8563   001FF8  C013  F19C         	movff	?___flmul,_powf$1740
  8564   001FFC  C014  F19D         	movff	?___flmul+1,_powf$1740+1
  8565   002000  C015  F19E         	movff	?___flmul+2,_powf$1740+2
  8566   002004  C016  F19F         	movff	?___flmul+3,_powf$1740+3
  8567   002008  C19C  F013         	movff	_powf$1740,___flmul@b
  8568   00200C  C19D  F014         	movff	_powf$1740+1,___flmul@b+1
  8569   002010  C19E  F015         	movff	_powf$1740+2,___flmul@b+2
  8570   002014  C19F  F016         	movff	_powf$1740+3,___flmul@b+3
  8571   002018  0E60               	movlw	96
  8572   00201A  6E17               	movwf	___flmul@a^0,c
  8573   00201C  0E42               	movlw	66
  8574   00201E  6E18               	movwf	(___flmul@a+1)^0,c
  8575   002020  0EA2               	movlw	162
  8576   002022  6E19               	movwf	(___flmul@a+2)^0,c
  8577   002024  0E0D               	movlw	13
  8578   002026  6E1A               	movwf	(___flmul@a+3)^0,c
  8579   002028  EC38  F023         	call	___flmul	;wreg free
  8580   00202C  C013  F08D         	movff	?___flmul,?_powf
  8581   002030  C014  F08E         	movff	?___flmul+1,?_powf+1
  8582   002034  C015  F08F         	movff	?___flmul+2,?_powf+2
  8583   002038  C016  F090         	movff	?___flmul+3,?_powf+3
  8584   00203C  EF48  F015         	goto	l1205
  8585   002040                     l5572:
  8586                           
  8587                           ; BSR set to: 0
  8588   002040  0E16               	movlw	22
  8589   002042  0101               	movlb	1	; () banked
  8590   002044  19A6               	xorwf	(powf@j+2)& (0+255),w,b
  8591   002046  E109               	bnz	u5371
  8592   002048  0EC3               	movlw	195
  8593   00204A  19A7               	xorwf	(powf@j+3)& (0+255),w,b
  8594   00204C  11A4               	iorwf	powf@j& (0+255),w,b
  8595   00204E  11A5               	iorwf	(powf@j+1)& (0+255),w,b
  8596   002050  A4D8               	btfss	status,2,c
  8597   002052  EF2D  F010         	goto	u5371
  8598   002056  EF2F  F010         	goto	u5370
  8599   00205A                     u5371:
  8600   00205A  EF90  F010         	goto	l5580
  8601   00205E                     u5370:
  8602   00205E                     
  8603                           ; BSR set to: 1
  8604   00205E  C194  F04A         	movff	powf@p_h,___flsub@a
  8605   002062  C195  F04B         	movff	powf@p_h+1,___flsub@a+1
  8606   002066  C196  F04C         	movff	powf@p_h+2,___flsub@a+2
  8607   00206A  C197  F04D         	movff	powf@p_h+3,___flsub@a+3
  8608   00206E  C1AC  F046         	movff	powf@z,___flsub@b
  8609   002072  C1AD  F047         	movff	powf@z+1,___flsub@b+1
  8610   002076  C1AE  F048         	movff	powf@z+2,___flsub@b+2
  8611   00207A  C1AF  F049         	movff	powf@z+3,___flsub@b+3
  8612   00207E  ECB3  F02F         	call	___flsub	;wreg free
  8613   002082  C046  F04E         	movff	?___flsub,___flge@ff1
  8614   002086  C047  F04F         	movff	?___flsub+1,___flge@ff1+1
  8615   00208A  C048  F050         	movff	?___flsub+2,___flge@ff1+2
  8616   00208E  C049  F051         	movff	?___flsub+3,___flge@ff1+3
  8617   002092  C15C  F052         	movff	powf@p_l,___flge@ff2
  8618   002096  C15D  F053         	movff	powf@p_l+1,___flge@ff2+1
  8619   00209A  C15E  F054         	movff	powf@p_l+2,___flge@ff2+2
  8620   00209E  C15F  F055         	movff	powf@p_l+3,___flge@ff2+3
  8621   0020A2  ECEB  F02C         	call	___flge	;wreg free
  8622   0020A6  A0D8               	btfss	status,0,c
  8623   0020A8  EF58  F010         	goto	u5381
  8624   0020AC  EF5A  F010         	goto	u5380
  8625   0020B0                     u5381:
  8626   0020B0  EF90  F010         	goto	l5580
  8627   0020B4                     u5380:
  8628   0020B4  0E60               	movlw	96
  8629   0020B6  6E17               	movwf	___flmul@a^0,c
  8630   0020B8  0E42               	movlw	66
  8631   0020BA  6E18               	movwf	(___flmul@a+1)^0,c
  8632   0020BC  0EA2               	movlw	162
  8633   0020BE  6E19               	movwf	(___flmul@a+2)^0,c
  8634   0020C0  0E0D               	movlw	13
  8635   0020C2  6E1A               	movwf	(___flmul@a+3)^0,c
  8636   0020C4  C180  F013         	movff	powf@sn,___flmul@b
  8637   0020C8  C181  F014         	movff	powf@sn+1,___flmul@b+1
  8638   0020CC  C182  F015         	movff	powf@sn+2,___flmul@b+2
  8639   0020D0  C183  F016         	movff	powf@sn+3,___flmul@b+3
  8640   0020D4  EC38  F023         	call	___flmul	;wreg free
  8641   0020D8  C013  F19C         	movff	?___flmul,_powf$1740
  8642   0020DC  C014  F19D         	movff	?___flmul+1,_powf$1740+1
  8643   0020E0  C015  F19E         	movff	?___flmul+2,_powf$1740+2
  8644   0020E4  C016  F19F         	movff	?___flmul+3,_powf$1740+3
  8645   0020E8  C19C  F013         	movff	_powf$1740,___flmul@b
  8646   0020EC  C19D  F014         	movff	_powf$1740+1,___flmul@b+1
  8647   0020F0  C19E  F015         	movff	_powf$1740+2,___flmul@b+2
  8648   0020F4  C19F  F016         	movff	_powf$1740+3,___flmul@b+3
  8649   0020F8  0E60               	movlw	96
  8650   0020FA  6E17               	movwf	___flmul@a^0,c
  8651   0020FC  0E42               	movlw	66
  8652   0020FE  6E18               	movwf	(___flmul@a+1)^0,c
  8653   002100  0EA2               	movlw	162
  8654   002102  6E19               	movwf	(___flmul@a+2)^0,c
  8655   002104  0E0D               	movlw	13
  8656   002106  6E1A               	movwf	(___flmul@a+3)^0,c
  8657   002108  EC38  F023         	call	___flmul	;wreg free
  8658   00210C  C013  F08D         	movff	?___flmul,?_powf
  8659   002110  C014  F08E         	movff	?___flmul+1,?_powf+1
  8660   002114  C015  F08F         	movff	?___flmul+2,?_powf+2
  8661   002118  C016  F090         	movff	?___flmul+3,?_powf+3
  8662   00211C  EF48  F015         	goto	l1205
  8663   002120                     l5580:
  8664   002120  0EFF               	movlw	255
  8665   002122  0101               	movlb	1	; () banked
  8666   002124  15A4               	andwf	powf@j& (0+255),w,b
  8667   002126  6F20               	movwf	powf@i& (0+255),b
  8668   002128  0EFF               	movlw	255
  8669   00212A  15A5               	andwf	(powf@j+1)& (0+255),w,b
  8670   00212C  6F21               	movwf	(powf@i+1)& (0+255),b
  8671   00212E  0EFF               	movlw	255
  8672   002130  15A6               	andwf	(powf@j+2)& (0+255),w,b
  8673   002132  6F22               	movwf	(powf@i+2)& (0+255),b
  8674   002134  0E7F               	movlw	127
  8675   002136  15A7               	andwf	(powf@j+3)& (0+255),w,b
  8676   002138  6F23               	movwf	(powf@i+3)& (0+255),b
  8677   00213A  0E17               	movlw	23
  8678   00213C  0100               	movlb	0	; () banked
  8679   00213E  6F95               	movwf	??_powf& (0+255),b
  8680   002140  C120  F096         	movff	powf@i,??_powf+1
  8681   002144  C121  F097         	movff	powf@i+1,??_powf+2
  8682   002148  C122  F098         	movff	powf@i+2,??_powf+3
  8683   00214C  C123  F099         	movff	powf@i+3,??_powf+4
  8684   002150                     u5395:
  8685   002150  6795               	tstfsz	??_powf& (0+255),b
  8686   002152  EFAD  F010         	goto	u5396
  8687   002156  EFB5  F010         	goto	u5397
  8688   00215A                     u5396:
  8689   00215A  3599               	rlcf	(??_powf+4)& (0+255),w,b
  8690   00215C  3399               	rrcf	(??_powf+4)& (0+255),f,b
  8691   00215E  3398               	rrcf	(??_powf+3)& (0+255),f,b
  8692   002160  3397               	rrcf	(??_powf+2)& (0+255),f,b
  8693   002162  3396               	rrcf	(??_powf+1)& (0+255),f,b
  8694   002164  2F95               	decfsz	??_powf& (0+255),f,b
  8695   002166  EFA8  F010         	goto	u5395
  8696   00216A                     u5397:
  8697   00216A  0E81               	movlw	129
  8698   00216C  0100               	movlb	0	; () banked
  8699   00216E  2596               	addwf	(??_powf+1)& (0+255),w,b
  8700   002170  0101               	movlb	1	; () banked
  8701   002172  6F98               	movwf	powf@k& (0+255),b
  8702   002174  0EFF               	movlw	255
  8703   002176  0100               	movlb	0	; () banked
  8704   002178  2197               	addwfc	(??_powf+2)& (0+255),w,b
  8705   00217A  0101               	movlb	1	; () banked
  8706   00217C  6F99               	movwf	(powf@k+1)& (0+255),b
  8707   00217E  0EFF               	movlw	255
  8708   002180  0100               	movlb	0	; () banked
  8709   002182  2198               	addwfc	(??_powf+3)& (0+255),w,b
  8710   002184  0101               	movlb	1	; () banked
  8711   002186  6F9A               	movwf	(powf@k+2)& (0+255),b
  8712   002188  0EFF               	movlw	255
  8713   00218A  0100               	movlb	0	; () banked
  8714   00218C  2199               	addwfc	(??_powf+4)& (0+255),w,b
  8715   00218E  0101               	movlb	1	; () banked
  8716   002190  6F9B               	movwf	(powf@k+3)& (0+255),b
  8717   002192                     
  8718                           ; BSR set to: 1
  8719   002192  0E00               	movlw	0
  8720   002194  6F78               	movwf	powf@n& (0+255),b
  8721   002196  0E00               	movlw	0
  8722   002198  6F79               	movwf	(powf@n+1)& (0+255),b
  8723   00219A  0E00               	movlw	0
  8724   00219C  6F7A               	movwf	(powf@n+2)& (0+255),b
  8725   00219E  0E00               	movlw	0
  8726   0021A0  6F7B               	movwf	(powf@n+3)& (0+255),b
  8727   0021A2                     
  8728                           ; BSR set to: 1
  8729   0021A2  BF23               	btfsc	(powf@i+3)& (0+255),7,b
  8730   0021A4  EFE0  F010         	goto	u5401
  8731   0021A8  0520               	decf	powf@i& (0+255),w,b
  8732   0021AA  0E00               	movlw	0
  8733   0021AC  5921               	subwfb	(powf@i+1)& (0+255),w,b
  8734   0021AE  0E00               	movlw	0
  8735   0021B0  5922               	subwfb	(powf@i+2)& (0+255),w,b
  8736   0021B2  0E3F               	movlw	63
  8737   0021B4  5923               	subwfb	(powf@i+3)& (0+255),w,b
  8738   0021B6  A0D8               	btfss	status,0,c
  8739   0021B8  EFE0  F010         	goto	u5401
  8740   0021BC  EFE2  F010         	goto	u5400
  8741   0021C0                     u5401:
  8742   0021C0  EFE6  F011         	goto	l5594
  8743   0021C4                     u5400:
  8744   0021C4                     
  8745                           ; BSR set to: 1
  8746   0021C4  C198  F095         	movff	powf@k,??_powf
  8747   0021C8  0E01               	movlw	1
  8748   0021CA  0100               	movlb	0	; () banked
  8749   0021CC  2795               	addwf	??_powf& (0+255),f,b
  8750   0021CE  0E00               	movlw	0
  8751   0021D0  6F96               	movwf	(??_powf+1)& (0+255),b
  8752   0021D2  0E00               	movlw	0
  8753   0021D4  6F97               	movwf	(??_powf+2)& (0+255),b
  8754   0021D6  0E80               	movlw	128
  8755   0021D8  6F98               	movwf	(??_powf+3)& (0+255),b
  8756   0021DA  0E00               	movlw	0
  8757   0021DC  6F99               	movwf	(??_powf+4)& (0+255),b
  8758   0021DE                     u5415:
  8759   0021DE  6795               	tstfsz	??_powf& (0+255),b
  8760   0021E0  EFF4  F010         	goto	u5416
  8761   0021E4  EFFC  F010         	goto	u5417
  8762   0021E8                     u5416:
  8763   0021E8  3599               	rlcf	(??_powf+4)& (0+255),w,b
  8764   0021EA  3399               	rrcf	(??_powf+4)& (0+255),f,b
  8765   0021EC  3398               	rrcf	(??_powf+3)& (0+255),f,b
  8766   0021EE  3397               	rrcf	(??_powf+2)& (0+255),f,b
  8767   0021F0  3396               	rrcf	(??_powf+1)& (0+255),f,b
  8768   0021F2  2F95               	decfsz	??_powf& (0+255),f,b
  8769   0021F4  EFEF  F010         	goto	u5415
  8770   0021F8                     u5417:
  8771   0021F8  0101               	movlb	1	; () banked
  8772   0021FA  51A4               	movf	powf@j& (0+255),w,b
  8773   0021FC  0100               	movlb	0	; () banked
  8774   0021FE  2596               	addwf	(??_powf+1)& (0+255),w,b
  8775   002200  0101               	movlb	1	; () banked
  8776   002202  6F78               	movwf	powf@n& (0+255),b
  8777   002204  51A5               	movf	(powf@j+1)& (0+255),w,b
  8778   002206  0100               	movlb	0	; () banked
  8779   002208  2197               	addwfc	(??_powf+2)& (0+255),w,b
  8780   00220A  0101               	movlb	1	; () banked
  8781   00220C  6F79               	movwf	(powf@n+1)& (0+255),b
  8782   00220E  51A6               	movf	(powf@j+2)& (0+255),w,b
  8783   002210  0100               	movlb	0	; () banked
  8784   002212  2198               	addwfc	(??_powf+3)& (0+255),w,b
  8785   002214  0101               	movlb	1	; () banked
  8786   002216  6F7A               	movwf	(powf@n+2)& (0+255),b
  8787   002218  51A7               	movf	(powf@j+3)& (0+255),w,b
  8788   00221A  0100               	movlb	0	; () banked
  8789   00221C  2199               	addwfc	(??_powf+4)& (0+255),w,b
  8790   00221E  0101               	movlb	1	; () banked
  8791   002220  6F7B               	movwf	(powf@n+3)& (0+255),b
  8792   002222  0E81               	movlw	129
  8793   002224  0100               	movlb	0	; () banked
  8794   002226  6F95               	movwf	??_powf& (0+255),b
  8795   002228  0EFF               	movlw	255
  8796   00222A  6F96               	movwf	(??_powf+1)& (0+255),b
  8797   00222C  0EFF               	movlw	255
  8798   00222E  6F97               	movwf	(??_powf+2)& (0+255),b
  8799   002230  0EFF               	movlw	255
  8800   002232  6F98               	movwf	(??_powf+3)& (0+255),b
  8801   002234  0E17               	movlw	23
  8802   002236  6F99               	movwf	(??_powf+4)& (0+255),b
  8803   002238  C178  F09A         	movff	powf@n,??_powf+5
  8804   00223C  C179  F09B         	movff	powf@n+1,??_powf+6
  8805   002240  C17A  F09C         	movff	powf@n+2,??_powf+7
  8806   002244  C17B  F09D         	movff	powf@n+3,??_powf+8
  8807   002248                     u5425:
  8808   002248  6799               	tstfsz	(??_powf+4)& (0+255),b
  8809   00224A  EF29  F011         	goto	u5426
  8810   00224E  EF31  F011         	goto	u5427
  8811   002252                     u5426:
  8812   002252  359D               	rlcf	(??_powf+8)& (0+255),w,b
  8813   002254  339D               	rrcf	(??_powf+8)& (0+255),f,b
  8814   002256  339C               	rrcf	(??_powf+7)& (0+255),f,b
  8815   002258  339B               	rrcf	(??_powf+6)& (0+255),f,b
  8816   00225A  339A               	rrcf	(??_powf+5)& (0+255),f,b
  8817   00225C  2F99               	decfsz	(??_powf+4)& (0+255),f,b
  8818   00225E  EF24  F011         	goto	u5425
  8819   002262                     u5427:
  8820   002262  0100               	movlb	0	; () banked
  8821   002264  519A               	movf	(??_powf+5)& (0+255),w,b
  8822   002266  2595               	addwf	??_powf& (0+255),w,b
  8823   002268  0101               	movlb	1	; () banked
  8824   00226A  6F98               	movwf	powf@k& (0+255),b
  8825   00226C  0E00               	movlw	0
  8826   00226E  0100               	movlb	0	; () banked
  8827   002270  2196               	addwfc	(??_powf+1)& (0+255),w,b
  8828   002272  0101               	movlb	1	; () banked
  8829   002274  6F99               	movwf	(powf@k+1)& (0+255),b
  8830   002276  0E00               	movlw	0
  8831   002278  0100               	movlb	0	; () banked
  8832   00227A  2197               	addwfc	(??_powf+2)& (0+255),w,b
  8833   00227C  0101               	movlb	1	; () banked
  8834   00227E  6F9A               	movwf	(powf@k+2)& (0+255),b
  8835   002280  0E00               	movlw	0
  8836   002282  0100               	movlb	0	; () banked
  8837   002284  2198               	addwfc	(??_powf+3)& (0+255),w,b
  8838   002286  0101               	movlb	1	; () banked
  8839   002288  6F9B               	movwf	(powf@k+3)& (0+255),b
  8840   00228A                     
  8841                           ; BSR set to: 1
  8842   00228A  C198  F095         	movff	powf@k,??_powf
  8843   00228E  0EFF               	movlw	255
  8844   002290  0100               	movlb	0	; () banked
  8845   002292  6F96               	movwf	(??_powf+1)& (0+255),b
  8846   002294  0EFF               	movlw	255
  8847   002296  6F97               	movwf	(??_powf+2)& (0+255),b
  8848   002298  0E7F               	movlw	127
  8849   00229A  6F98               	movwf	(??_powf+3)& (0+255),b
  8850   00229C  0E00               	movlw	0
  8851   00229E  6F99               	movwf	(??_powf+4)& (0+255),b
  8852   0022A0                     u5435:
  8853   0022A0  6795               	tstfsz	??_powf& (0+255),b
  8854   0022A2  EF55  F011         	goto	u5436
  8855   0022A6  EF5D  F011         	goto	u5437
  8856   0022AA                     u5436:
  8857   0022AA  3599               	rlcf	(??_powf+4)& (0+255),w,b
  8858   0022AC  3399               	rrcf	(??_powf+4)& (0+255),f,b
  8859   0022AE  3398               	rrcf	(??_powf+3)& (0+255),f,b
  8860   0022B0  3397               	rrcf	(??_powf+2)& (0+255),f,b
  8861   0022B2  3396               	rrcf	(??_powf+1)& (0+255),f,b
  8862   0022B4  2F95               	decfsz	??_powf& (0+255),f,b
  8863   0022B6  EF50  F011         	goto	u5435
  8864   0022BA                     u5437:
  8865   0022BA  0100               	movlb	0	; () banked
  8866   0022BC  1D96               	comf	(??_powf+1)& (0+255),w,b
  8867   0022BE  6F9A               	movwf	(??_powf+5)& (0+255),b
  8868   0022C0  1D97               	comf	(??_powf+2)& (0+255),w,b
  8869   0022C2  6F9B               	movwf	(??_powf+6)& (0+255),b
  8870   0022C4  1D98               	comf	(??_powf+3)& (0+255),w,b
  8871   0022C6  6F9C               	movwf	(??_powf+7)& (0+255),b
  8872   0022C8  1D99               	comf	(??_powf+4)& (0+255),w,b
  8873   0022CA  6F9D               	movwf	(??_powf+8)& (0+255),b
  8874   0022CC  0101               	movlb	1	; () banked
  8875   0022CE  5178               	movf	powf@n& (0+255),w,b
  8876   0022D0  0100               	movlb	0	; () banked
  8877   0022D2  159A               	andwf	(??_powf+5)& (0+255),w,b
  8878   0022D4  0101               	movlb	1	; () banked
  8879   0022D6  6FB0               	movwf	powf@__xc8_float_word& (0+255),b
  8880   0022D8  5179               	movf	(powf@n+1)& (0+255),w,b
  8881   0022DA  0100               	movlb	0	; () banked
  8882   0022DC  159B               	andwf	(??_powf+6)& (0+255),w,b
  8883   0022DE  0101               	movlb	1	; () banked
  8884   0022E0  6FB1               	movwf	(powf@__xc8_float_word+1)& (0+255),b
  8885   0022E2  517A               	movf	(powf@n+2)& (0+255),w,b
  8886   0022E4  0100               	movlb	0	; () banked
  8887   0022E6  159C               	andwf	(??_powf+7)& (0+255),w,b
  8888   0022E8  0101               	movlb	1	; () banked
  8889   0022EA  6FB2               	movwf	(powf@__xc8_float_word+2)& (0+255),b
  8890   0022EC  517B               	movf	(powf@n+3)& (0+255),w,b
  8891   0022EE  0100               	movlb	0	; () banked
  8892   0022F0  159D               	andwf	(??_powf+8)& (0+255),w,b
  8893   0022F2  0101               	movlb	1	; () banked
  8894   0022F4  6FB3               	movwf	(powf@__xc8_float_word+3)& (0+255),b
  8895   0022F6                     
  8896                           ; BSR set to: 1
  8897   0022F6  C1B0  F1A8         	movff	powf@__xc8_float_word,powf@t
  8898   0022FA  C1B1  F1A9         	movff	powf@__xc8_float_word+1,powf@t+1
  8899   0022FE  C1B2  F1AA         	movff	powf@__xc8_float_word+2,powf@t+2
  8900   002302  C1B3  F1AB         	movff	powf@__xc8_float_word+3,powf@t+3
  8901   002306                     
  8902                           ; BSR set to: 1
  8903   002306  5198               	movf	powf@k& (0+255),w,b
  8904   002308  0817               	sublw	23
  8905   00230A  0100               	movlb	0	; () banked
  8906   00230C  6F95               	movwf	??_powf& (0+255),b
  8907   00230E  0EFF               	movlw	255
  8908   002310  0101               	movlb	1	; () banked
  8909   002312  1578               	andwf	powf@n& (0+255),w,b
  8910   002314  0100               	movlb	0	; () banked
  8911   002316  6F96               	movwf	(??_powf+1)& (0+255),b
  8912   002318  0EFF               	movlw	255
  8913   00231A  0101               	movlb	1	; () banked
  8914   00231C  1579               	andwf	(powf@n+1)& (0+255),w,b
  8915   00231E  0100               	movlb	0	; () banked
  8916   002320  6F97               	movwf	(??_powf+2)& (0+255),b
  8917   002322  0E7F               	movlw	127
  8918   002324  0101               	movlb	1	; () banked
  8919   002326  157A               	andwf	(powf@n+2)& (0+255),w,b
  8920   002328  0100               	movlb	0	; () banked
  8921   00232A  6F98               	movwf	(??_powf+3)& (0+255),b
  8922   00232C  0E00               	movlw	0
  8923   00232E  0101               	movlb	1	; () banked
  8924   002330  157B               	andwf	(powf@n+3)& (0+255),w,b
  8925   002332  0100               	movlb	0	; () banked
  8926   002334  6F99               	movwf	(??_powf+4)& (0+255),b
  8927   002336  0E00               	movlw	0
  8928   002338  1196               	iorwf	(??_powf+1)& (0+255),w,b
  8929   00233A  6F9A               	movwf	(??_powf+5)& (0+255),b
  8930   00233C  0E00               	movlw	0
  8931   00233E  1197               	iorwf	(??_powf+2)& (0+255),w,b
  8932   002340  6F9B               	movwf	(??_powf+6)& (0+255),b
  8933   002342  0E80               	movlw	128
  8934   002344  1198               	iorwf	(??_powf+3)& (0+255),w,b
  8935   002346  6F9C               	movwf	(??_powf+7)& (0+255),b
  8936   002348  0E00               	movlw	0
  8937   00234A  1199               	iorwf	(??_powf+4)& (0+255),w,b
  8938   00234C  6F9D               	movwf	(??_powf+8)& (0+255),b
  8939   00234E                     u5445:
  8940   00234E  6795               	tstfsz	??_powf& (0+255),b
  8941   002350  EFAC  F011         	goto	u5446
  8942   002354  EFB4  F011         	goto	u5447
  8943   002358                     u5446:
  8944   002358  359D               	rlcf	(??_powf+8)& (0+255),w,b
  8945   00235A  339D               	rrcf	(??_powf+8)& (0+255),f,b
  8946   00235C  339C               	rrcf	(??_powf+7)& (0+255),f,b
  8947   00235E  339B               	rrcf	(??_powf+6)& (0+255),f,b
  8948   002360  339A               	rrcf	(??_powf+5)& (0+255),f,b
  8949   002362  2F95               	decfsz	??_powf& (0+255),f,b
  8950   002364  EFA7  F011         	goto	u5445
  8951   002368                     u5447:
  8952   002368  C09A  F178         	movff	??_powf+5,powf@n
  8953   00236C  C09B  F179         	movff	??_powf+6,powf@n+1
  8954   002370  C09C  F17A         	movff	??_powf+7,powf@n+2
  8955   002374  C09D  F17B         	movff	??_powf+8,powf@n+3
  8956   002378  0101               	movlb	1	; () banked
  8957   00237A  BFA7               	btfsc	(powf@j+3)& (0+255),7,b
  8958   00237C  EFC4  F011         	goto	u5450
  8959   002380  EFC2  F011         	goto	u5451
  8960   002384                     u5451:
  8961   002384  EFCC  F011         	goto	l5592
  8962   002388                     u5450:
  8963   002388                     
  8964                           ; BSR set to: 1
  8965   002388  1F7B               	comf	(powf@n+3)& (0+255),f,b
  8966   00238A  1F7A               	comf	(powf@n+2)& (0+255),f,b
  8967   00238C  1F79               	comf	(powf@n+1)& (0+255),f,b
  8968   00238E  6D78               	negf	powf@n& (0+255),b
  8969   002390  0E00               	movlw	0
  8970   002392  2379               	addwfc	(powf@n+1)& (0+255),f,b
  8971   002394  237A               	addwfc	(powf@n+2)& (0+255),f,b
  8972   002396  237B               	addwfc	(powf@n+3)& (0+255),f,b
  8973   002398                     l5592:
  8974                           
  8975                           ; BSR set to: 1
  8976   002398  C194  F046         	movff	powf@p_h,___flsub@b
  8977   00239C  C195  F047         	movff	powf@p_h+1,___flsub@b+1
  8978   0023A0  C196  F048         	movff	powf@p_h+2,___flsub@b+2
  8979   0023A4  C197  F049         	movff	powf@p_h+3,___flsub@b+3
  8980   0023A8  C1A8  F04A         	movff	powf@t,___flsub@a
  8981   0023AC  C1A9  F04B         	movff	powf@t+1,___flsub@a+1
  8982   0023B0  C1AA  F04C         	movff	powf@t+2,___flsub@a+2
  8983   0023B4  C1AB  F04D         	movff	powf@t+3,___flsub@a+3
  8984   0023B8  ECB3  F02F         	call	___flsub	;wreg free
  8985   0023BC  C046  F194         	movff	?___flsub,powf@p_h
  8986   0023C0  C047  F195         	movff	?___flsub+1,powf@p_h+1
  8987   0023C4  C048  F196         	movff	?___flsub+2,powf@p_h+2
  8988   0023C8  C049  F197         	movff	?___flsub+3,powf@p_h+3
  8989   0023CC                     l5594:
  8990   0023CC  C15C  F02C         	movff	powf@p_l,___fladd@b
  8991   0023D0  C15D  F02D         	movff	powf@p_l+1,___fladd@b+1
  8992   0023D4  C15E  F02E         	movff	powf@p_l+2,___fladd@b+2
  8993   0023D8  C15F  F02F         	movff	powf@p_l+3,___fladd@b+3
  8994   0023DC  C194  F030         	movff	powf@p_h,___fladd@a
  8995   0023E0  C195  F031         	movff	powf@p_h+1,___fladd@a+1
  8996   0023E4  C196  F032         	movff	powf@p_h+2,___fladd@a+2
  8997   0023E8  C197  F033         	movff	powf@p_h+3,___fladd@a+3
  8998   0023EC  ECD8  F020         	call	___fladd	;wreg free
  8999   0023F0  C02C  F1A8         	movff	?___fladd,powf@t
  9000   0023F4  C02D  F1A9         	movff	?___fladd+1,powf@t+1
  9001   0023F8  C02E  F1AA         	movff	?___fladd+2,powf@t+2
  9002   0023FC  C02F  F1AB         	movff	?___fladd+3,powf@t+3
  9003   002400  C1A8  F1B0         	movff	powf@t,powf@__xc8_float_word
  9004   002404  C1A9  F1B1         	movff	powf@t+1,powf@__xc8_float_word+1
  9005   002408  C1AA  F1B2         	movff	powf@t+2,powf@__xc8_float_word+2
  9006   00240C  C1AB  F1B3         	movff	powf@t+3,powf@__xc8_float_word+3
  9007   002410  C1B0  F18C         	movff	powf@__xc8_float_word,powf@is
  9008   002414  C1B1  F18D         	movff	powf@__xc8_float_word+1,powf@is+1
  9009   002418  C1B2  F18E         	movff	powf@__xc8_float_word+2,powf@is+2
  9010   00241C  C1B3  F18F         	movff	powf@__xc8_float_word+3,powf@is+3
  9011   002420  0E00               	movlw	0
  9012   002422  0101               	movlb	1	; () banked
  9013   002424  158C               	andwf	powf@is& (0+255),w,b
  9014   002426  6FB0               	movwf	powf@__xc8_float_word& (0+255),b
  9015   002428  0E80               	movlw	128
  9016   00242A  158D               	andwf	(powf@is+1)& (0+255),w,b
  9017   00242C  6FB1               	movwf	(powf@__xc8_float_word+1)& (0+255),b
  9018   00242E  0EFF               	movlw	255
  9019   002430  158E               	andwf	(powf@is+2)& (0+255),w,b
  9020   002432  6FB2               	movwf	(powf@__xc8_float_word+2)& (0+255),b
  9021   002434  0EFF               	movlw	255
  9022   002436  158F               	andwf	(powf@is+3)& (0+255),w,b
  9023   002438  6FB3               	movwf	(powf@__xc8_float_word+3)& (0+255),b
  9024   00243A                     
  9025                           ; BSR set to: 1
  9026   00243A  C1B0  F1A8         	movff	powf@__xc8_float_word,powf@t
  9027   00243E  C1B1  F1A9         	movff	powf@__xc8_float_word+1,powf@t+1
  9028   002442  C1B2  F1AA         	movff	powf@__xc8_float_word+2,powf@t+2
  9029   002446  C1B3  F1AB         	movff	powf@__xc8_float_word+3,powf@t+3
  9030   00244A                     
  9031                           ; BSR set to: 1
  9032   00244A  C1A8  F013         	movff	powf@t,___flmul@b
  9033   00244E  C1A9  F014         	movff	powf@t+1,___flmul@b+1
  9034   002452  C1AA  F015         	movff	powf@t+2,___flmul@b+2
  9035   002456  C1AB  F016         	movff	powf@t+3,___flmul@b+3
  9036   00245A  0E00               	movlw	0
  9037   00245C  6E17               	movwf	___flmul@a^0,c
  9038   00245E  0E72               	movlw	114
  9039   002460  6E18               	movwf	(___flmul@a+1)^0,c
  9040   002462  0E31               	movlw	49
  9041   002464  6E19               	movwf	(___flmul@a+2)^0,c
  9042   002466  0E3F               	movlw	63
  9043   002468  6E1A               	movwf	(___flmul@a+3)^0,c
  9044   00246A  EC38  F023         	call	___flmul	;wreg free
  9045   00246E  C013  F16C         	movff	?___flmul,powf@u
  9046   002472  C014  F16D         	movff	?___flmul+1,powf@u+1
  9047   002476  C015  F16E         	movff	?___flmul+2,powf@u+2
  9048   00247A  C016  F16F         	movff	?___flmul+3,powf@u+3
  9049   00247E  C194  F04A         	movff	powf@p_h,___flsub@a
  9050   002482  C195  F04B         	movff	powf@p_h+1,___flsub@a+1
  9051   002486  C196  F04C         	movff	powf@p_h+2,___flsub@a+2
  9052   00248A  C197  F04D         	movff	powf@p_h+3,___flsub@a+3
  9053   00248E  C1A8  F046         	movff	powf@t,___flsub@b
  9054   002492  C1A9  F047         	movff	powf@t+1,___flsub@b+1
  9055   002496  C1AA  F048         	movff	powf@t+2,___flsub@b+2
  9056   00249A  C1AB  F049         	movff	powf@t+3,___flsub@b+3
  9057   00249E  ECB3  F02F         	call	___flsub	;wreg free
  9058   0024A2  C046  F190         	movff	?___flsub,_powf$1743
  9059   0024A6  C047  F191         	movff	?___flsub+1,_powf$1743+1
  9060   0024AA  C048  F192         	movff	?___flsub+2,_powf$1743+2
  9061   0024AE  C049  F193         	movff	?___flsub+3,_powf$1743+3
  9062   0024B2  0E18               	movlw	24
  9063   0024B4  6E17               	movwf	___flmul@a^0,c
  9064   0024B6  0E72               	movlw	114
  9065   0024B8  6E18               	movwf	(___flmul@a+1)^0,c
  9066   0024BA  0E31               	movlw	49
  9067   0024BC  6E19               	movwf	(___flmul@a+2)^0,c
  9068   0024BE  0E3F               	movlw	63
  9069   0024C0  6E1A               	movwf	(___flmul@a+3)^0,c
  9070   0024C2  C190  F04A         	movff	_powf$1743,___flsub@a
  9071   0024C6  C191  F04B         	movff	_powf$1743+1,___flsub@a+1
  9072   0024CA  C192  F04C         	movff	_powf$1743+2,___flsub@a+2
  9073   0024CE  C193  F04D         	movff	_powf$1743+3,___flsub@a+3
  9074   0024D2  C15C  F046         	movff	powf@p_l,___flsub@b
  9075   0024D6  C15D  F047         	movff	powf@p_l+1,___flsub@b+1
  9076   0024DA  C15E  F048         	movff	powf@p_l+2,___flsub@b+2
  9077   0024DE  C15F  F049         	movff	powf@p_l+3,___flsub@b+3
  9078   0024E2  ECB3  F02F         	call	___flsub	;wreg free
  9079   0024E6  C046  F013         	movff	?___flsub,___flmul@b
  9080   0024EA  C047  F014         	movff	?___flsub+1,___flmul@b+1
  9081   0024EE  C048  F015         	movff	?___flsub+2,___flmul@b+2
  9082   0024F2  C049  F016         	movff	?___flsub+3,___flmul@b+3
  9083   0024F6  EC38  F023         	call	___flmul	;wreg free
  9084   0024FA  C013  F134         	movff	?___flmul,_powf$1752
  9085   0024FE  C014  F135         	movff	?___flmul+1,_powf$1752+1
  9086   002502  C015  F136         	movff	?___flmul+2,_powf$1752+2
  9087   002506  C016  F137         	movff	?___flmul+3,_powf$1752+3
  9088   00250A  C134  F02C         	movff	_powf$1752,___fladd@b
  9089   00250E  C135  F02D         	movff	_powf$1752+1,___fladd@b+1
  9090   002512  C136  F02E         	movff	_powf$1752+2,___fladd@b+2
  9091   002516  C137  F02F         	movff	_powf$1752+3,___fladd@b+3
  9092   00251A  0E8C               	movlw	140
  9093   00251C  6E17               	movwf	___flmul@a^0,c
  9094   00251E  0EBE               	movlw	190
  9095   002520  6E18               	movwf	(___flmul@a+1)^0,c
  9096   002522  0EBF               	movlw	191
  9097   002524  6E19               	movwf	(___flmul@a+2)^0,c
  9098   002526  0E35               	movlw	53
  9099   002528  6E1A               	movwf	(___flmul@a+3)^0,c
  9100   00252A  C1A8  F013         	movff	powf@t,___flmul@b
  9101   00252E  C1A9  F014         	movff	powf@t+1,___flmul@b+1
  9102   002532  C1AA  F015         	movff	powf@t+2,___flmul@b+2
  9103   002536  C1AB  F016         	movff	powf@t+3,___flmul@b+3
  9104   00253A  EC38  F023         	call	___flmul	;wreg free
  9105   00253E  C013  F030         	movff	?___flmul,___fladd@a
  9106   002542  C014  F031         	movff	?___flmul+1,___fladd@a+1
  9107   002546  C015  F032         	movff	?___flmul+2,___fladd@a+2
  9108   00254A  C016  F033         	movff	?___flmul+3,___fladd@a+3
  9109   00254E  ECD8  F020         	call	___fladd	;wreg free
  9110   002552  C02C  F170         	movff	?___fladd,powf@v
  9111   002556  C02D  F171         	movff	?___fladd+1,powf@v+1
  9112   00255A  C02E  F172         	movff	?___fladd+2,powf@v+2
  9113   00255E  C02F  F173         	movff	?___fladd+3,powf@v+3
  9114   002562  C16C  F02C         	movff	powf@u,___fladd@b
  9115   002566  C16D  F02D         	movff	powf@u+1,___fladd@b+1
  9116   00256A  C16E  F02E         	movff	powf@u+2,___fladd@b+2
  9117   00256E  C16F  F02F         	movff	powf@u+3,___fladd@b+3
  9118   002572  C170  F030         	movff	powf@v,___fladd@a
  9119   002576  C171  F031         	movff	powf@v+1,___fladd@a+1
  9120   00257A  C172  F032         	movff	powf@v+2,___fladd@a+2
  9121   00257E  C173  F033         	movff	powf@v+3,___fladd@a+3
  9122   002582  ECD8  F020         	call	___fladd	;wreg free
  9123   002586  C02C  F1AC         	movff	?___fladd,powf@z
  9124   00258A  C02D  F1AD         	movff	?___fladd+1,powf@z+1
  9125   00258E  C02E  F1AE         	movff	?___fladd+2,powf@z+2
  9126   002592  C02F  F1AF         	movff	?___fladd+3,powf@z+3
  9127   002596  C16C  F04A         	movff	powf@u,___flsub@a
  9128   00259A  C16D  F04B         	movff	powf@u+1,___flsub@a+1
  9129   00259E  C16E  F04C         	movff	powf@u+2,___flsub@a+2
  9130   0025A2  C16F  F04D         	movff	powf@u+3,___flsub@a+3
  9131   0025A6  C1AC  F046         	movff	powf@z,___flsub@b
  9132   0025AA  C1AD  F047         	movff	powf@z+1,___flsub@b+1
  9133   0025AE  C1AE  F048         	movff	powf@z+2,___flsub@b+2
  9134   0025B2  C1AF  F049         	movff	powf@z+3,___flsub@b+3
  9135   0025B6  ECB3  F02F         	call	___flsub	;wreg free
  9136   0025BA  C046  F190         	movff	?___flsub,_powf$1743
  9137   0025BE  C047  F191         	movff	?___flsub+1,_powf$1743+1
  9138   0025C2  C048  F192         	movff	?___flsub+2,_powf$1743+2
  9139   0025C6  C049  F193         	movff	?___flsub+3,_powf$1743+3
  9140   0025CA  C170  F046         	movff	powf@v,___flsub@b
  9141   0025CE  C171  F047         	movff	powf@v+1,___flsub@b+1
  9142   0025D2  C172  F048         	movff	powf@v+2,___flsub@b+2
  9143   0025D6  C173  F049         	movff	powf@v+3,___flsub@b+3
  9144   0025DA  C190  F04A         	movff	_powf$1743,___flsub@a
  9145   0025DE  C191  F04B         	movff	_powf$1743+1,___flsub@a+1
  9146   0025E2  C192  F04C         	movff	_powf$1743+2,___flsub@a+2
  9147   0025E6  C193  F04D         	movff	_powf$1743+3,___flsub@a+3
  9148   0025EA  ECB3  F02F         	call	___flsub	;wreg free
  9149   0025EE  C046  F138         	movff	?___flsub,powf@w
  9150   0025F2  C047  F139         	movff	?___flsub+1,powf@w+1
  9151   0025F6  C048  F13A         	movff	?___flsub+2,powf@w+2
  9152   0025FA  C049  F13B         	movff	?___flsub+3,powf@w+3
  9153   0025FE  C1AC  F013         	movff	powf@z,___flmul@b
  9154   002602  C1AD  F014         	movff	powf@z+1,___flmul@b+1
  9155   002606  C1AE  F015         	movff	powf@z+2,___flmul@b+2
  9156   00260A  C1AF  F016         	movff	powf@z+3,___flmul@b+3
  9157   00260E  C1AC  F017         	movff	powf@z,___flmul@a
  9158   002612  C1AD  F018         	movff	powf@z+1,___flmul@a+1
  9159   002616  C1AE  F019         	movff	powf@z+2,___flmul@a+2
  9160   00261A  C1AF  F01A         	movff	powf@z+3,___flmul@a+3
  9161   00261E  EC38  F023         	call	___flmul	;wreg free
  9162   002622  C013  F1A8         	movff	?___flmul,powf@t
  9163   002626  C014  F1A9         	movff	?___flmul+1,powf@t+1
  9164   00262A  C015  F1AA         	movff	?___flmul+2,powf@t+2
  9165   00262E  C016  F1AB         	movff	?___flmul+3,powf@t+3
  9166   002632  0E0E               	movlw	14
  9167   002634  6E30               	movwf	___fladd@a^0,c
  9168   002636  0EEA               	movlw	234
  9169   002638  6E31               	movwf	(___fladd@a+1)^0,c
  9170   00263A  0EDD               	movlw	221
  9171   00263C  6E32               	movwf	(___fladd@a+2)^0,c
  9172   00263E  0EB5               	movlw	181
  9173   002640  6E33               	movwf	(___fladd@a+3)^0,c
  9174   002642  0E4C               	movlw	76
  9175   002644  6E17               	movwf	___flmul@a^0,c
  9176   002646  0EBB               	movlw	187
  9177   002648  6E18               	movwf	(___flmul@a+1)^0,c
  9178   00264A  0E31               	movlw	49
  9179   00264C  6E19               	movwf	(___flmul@a+2)^0,c
  9180   00264E  0E33               	movlw	51
  9181   002650  6E1A               	movwf	(___flmul@a+3)^0,c
  9182   002652  C1A8  F013         	movff	powf@t,___flmul@b
  9183   002656  C1A9  F014         	movff	powf@t+1,___flmul@b+1
  9184   00265A  C1AA  F015         	movff	powf@t+2,___flmul@b+2
  9185   00265E  C1AB  F016         	movff	powf@t+3,___flmul@b+3
  9186   002662  EC38  F023         	call	___flmul	;wreg free
  9187   002666  C013  F02C         	movff	?___flmul,___fladd@b
  9188   00266A  C014  F02D         	movff	?___flmul+1,___fladd@b+1
  9189   00266E  C015  F02E         	movff	?___flmul+2,___fladd@b+2
  9190   002672  C016  F02F         	movff	?___flmul+3,___fladd@b+3
  9191   002676  ECD8  F020         	call	___fladd	;wreg free
  9192   00267A  C02C  F19C         	movff	?___fladd,_powf$1740
  9193   00267E  C02D  F19D         	movff	?___fladd+1,_powf$1740+1
  9194   002682  C02E  F19E         	movff	?___fladd+2,_powf$1740+2
  9195   002686  C02F  F19F         	movff	?___fladd+3,_powf$1740+3
  9196   00268A  0E55               	movlw	85
  9197   00268C  6E30               	movwf	___fladd@a^0,c
  9198   00268E  0EB3               	movlw	179
  9199   002690  6E31               	movwf	(___fladd@a+1)^0,c
  9200   002692  0E8A               	movlw	138
  9201   002694  6E32               	movwf	(___fladd@a+2)^0,c
  9202   002696  0E38               	movlw	56
  9203   002698  6E33               	movwf	(___fladd@a+3)^0,c
  9204   00269A  C1A8  F017         	movff	powf@t,___flmul@a
  9205   00269E  C1A9  F018         	movff	powf@t+1,___flmul@a+1
  9206   0026A2  C1AA  F019         	movff	powf@t+2,___flmul@a+2
  9207   0026A6  C1AB  F01A         	movff	powf@t+3,___flmul@a+3
  9208   0026AA  C19C  F013         	movff	_powf$1740,___flmul@b
  9209   0026AE  C19D  F014         	movff	_powf$1740+1,___flmul@b+1
  9210   0026B2  C19E  F015         	movff	_powf$1740+2,___flmul@b+2
  9211   0026B6  C19F  F016         	movff	_powf$1740+3,___flmul@b+3
  9212   0026BA  EC38  F023         	call	___flmul	;wreg free
  9213   0026BE  C013  F02C         	movff	?___flmul,___fladd@b
  9214   0026C2  C014  F02D         	movff	?___flmul+1,___fladd@b+1
  9215   0026C6  C015  F02E         	movff	?___flmul+2,___fladd@b+2
  9216   0026CA  C016  F02F         	movff	?___flmul+3,___fladd@b+3
  9217   0026CE  ECD8  F020         	call	___fladd	;wreg free
  9218   0026D2  C02C  F14C         	movff	?___fladd,_powf$1741
  9219   0026D6  C02D  F14D         	movff	?___fladd+1,_powf$1741+1
  9220   0026DA  C02E  F14E         	movff	?___fladd+2,_powf$1741+2
  9221   0026DE  C02F  F14F         	movff	?___fladd+3,_powf$1741+3
  9222   0026E2  0E61               	movlw	97
  9223   0026E4  6E30               	movwf	___fladd@a^0,c
  9224   0026E6  0E0B               	movlw	11
  9225   0026E8  6E31               	movwf	(___fladd@a+1)^0,c
  9226   0026EA  0E36               	movlw	54
  9227   0026EC  6E32               	movwf	(___fladd@a+2)^0,c
  9228   0026EE  0EBB               	movlw	187
  9229   0026F0  6E33               	movwf	(___fladd@a+3)^0,c
  9230   0026F2  C1A8  F017         	movff	powf@t,___flmul@a
  9231   0026F6  C1A9  F018         	movff	powf@t+1,___flmul@a+1
  9232   0026FA  C1AA  F019         	movff	powf@t+2,___flmul@a+2
  9233   0026FE  C1AB  F01A         	movff	powf@t+3,___flmul@a+3
  9234   002702  C14C  F013         	movff	_powf$1741,___flmul@b
  9235   002706  C14D  F014         	movff	_powf$1741+1,___flmul@b+1
  9236   00270A  C14E  F015         	movff	_powf$1741+2,___flmul@b+2
  9237   00270E  C14F  F016         	movff	_powf$1741+3,___flmul@b+3
  9238   002712  EC38  F023         	call	___flmul	;wreg free
  9239   002716  C013  F02C         	movff	?___flmul,___fladd@b
  9240   00271A  C014  F02D         	movff	?___flmul+1,___fladd@b+1
  9241   00271E  C015  F02E         	movff	?___flmul+2,___fladd@b+2
  9242   002722  C016  F02F         	movff	?___flmul+3,___fladd@b+3
  9243   002726  ECD8  F020         	call	___fladd	;wreg free
  9244   00272A  C02C  F13C         	movff	?___fladd,_powf$1742
  9245   00272E  C02D  F13D         	movff	?___fladd+1,_powf$1742+1
  9246   002732  C02E  F13E         	movff	?___fladd+2,_powf$1742+2
  9247   002736  C02F  F13F         	movff	?___fladd+3,_powf$1742+3
  9248   00273A  0EAB               	movlw	171
  9249   00273C  6E30               	movwf	___fladd@a^0,c
  9250   00273E  0EAA               	movlw	170
  9251   002740  6E31               	movwf	(___fladd@a+1)^0,c
  9252   002742  0E2A               	movlw	42
  9253   002744  6E32               	movwf	(___fladd@a+2)^0,c
  9254   002746  0E3E               	movlw	62
  9255   002748  6E33               	movwf	(___fladd@a+3)^0,c
  9256   00274A  C1A8  F017         	movff	powf@t,___flmul@a
  9257   00274E  C1A9  F018         	movff	powf@t+1,___flmul@a+1
  9258   002752  C1AA  F019         	movff	powf@t+2,___flmul@a+2
  9259   002756  C1AB  F01A         	movff	powf@t+3,___flmul@a+3
  9260   00275A  C13C  F013         	movff	_powf$1742,___flmul@b
  9261   00275E  C13D  F014         	movff	_powf$1742+1,___flmul@b+1
  9262   002762  C13E  F015         	movff	_powf$1742+2,___flmul@b+2
  9263   002766  C13F  F016         	movff	_powf$1742+3,___flmul@b+3
  9264   00276A  EC38  F023         	call	___flmul	;wreg free
  9265   00276E  C013  F02C         	movff	?___flmul,___fladd@b
  9266   002772  C014  F02D         	movff	?___flmul+1,___fladd@b+1
  9267   002776  C015  F02E         	movff	?___flmul+2,___fladd@b+2
  9268   00277A  C016  F02F         	movff	?___flmul+3,___fladd@b+3
  9269   00277E  ECD8  F020         	call	___fladd	;wreg free
  9270   002782  C02C  F12C         	movff	?___fladd,_powf$1744
  9271   002786  C02D  F12D         	movff	?___fladd+1,_powf$1744+1
  9272   00278A  C02E  F12E         	movff	?___fladd+2,_powf$1744+2
  9273   00278E  C02F  F12F         	movff	?___fladd+3,_powf$1744+3
  9274   002792  C1AC  F046         	movff	powf@z,___flsub@b
  9275   002796  C1AD  F047         	movff	powf@z+1,___flsub@b+1
  9276   00279A  C1AE  F048         	movff	powf@z+2,___flsub@b+2
  9277   00279E  C1AF  F049         	movff	powf@z+3,___flsub@b+3
  9278   0027A2  C1A8  F017         	movff	powf@t,___flmul@a
  9279   0027A6  C1A9  F018         	movff	powf@t+1,___flmul@a+1
  9280   0027AA  C1AA  F019         	movff	powf@t+2,___flmul@a+2
  9281   0027AE  C1AB  F01A         	movff	powf@t+3,___flmul@a+3
  9282   0027B2  C12C  F013         	movff	_powf$1744,___flmul@b
  9283   0027B6  C12D  F014         	movff	_powf$1744+1,___flmul@b+1
  9284   0027BA  C12E  F015         	movff	_powf$1744+2,___flmul@b+2
  9285   0027BE  C12F  F016         	movff	_powf$1744+3,___flmul@b+3
  9286   0027C2  EC38  F023         	call	___flmul	;wreg free
  9287   0027C6  C013  F04A         	movff	?___flmul,___flsub@a
  9288   0027CA  C014  F04B         	movff	?___flmul+1,___flsub@a+1
  9289   0027CE  C015  F04C         	movff	?___flmul+2,___flsub@a+2
  9290   0027D2  C016  F04D         	movff	?___flmul+3,___flsub@a+3
  9291   0027D6  ECB3  F02F         	call	___flsub	;wreg free
  9292   0027DA  C046  F17C         	movff	?___flsub,powf@t1
  9293   0027DE  C047  F17D         	movff	?___flsub+1,powf@t1+1
  9294   0027E2  C048  F17E         	movff	?___flsub+2,powf@t1+2
  9295   0027E6  C049  F17F         	movff	?___flsub+3,powf@t1+3
  9296   0027EA  0E00               	movlw	0
  9297   0027EC  6E30               	movwf	___fladd@a^0,c
  9298   0027EE  0E00               	movlw	0
  9299   0027F0  6E31               	movwf	(___fladd@a+1)^0,c
  9300   0027F2  0E00               	movlw	0
  9301   0027F4  6E32               	movwf	(___fladd@a+2)^0,c
  9302   0027F6  0EC0               	movlw	192
  9303   0027F8  6E33               	movwf	(___fladd@a+3)^0,c
  9304   0027FA  C17C  F02C         	movff	powf@t1,___fladd@b
  9305   0027FE  C17D  F02D         	movff	powf@t1+1,___fladd@b+1
  9306   002802  C17E  F02E         	movff	powf@t1+2,___fladd@b+2
  9307   002806  C17F  F02F         	movff	powf@t1+3,___fladd@b+3
  9308   00280A  ECD8  F020         	call	___fladd	;wreg free
  9309   00280E  C02C  F052         	movff	?___fladd,___fldiv@a
  9310   002812  C02D  F053         	movff	?___fladd+1,___fldiv@a+1
  9311   002816  C02E  F054         	movff	?___fladd+2,___fldiv@a+2
  9312   00281A  C02F  F055         	movff	?___fladd+3,___fldiv@a+3
  9313   00281E  C17C  F017         	movff	powf@t1,___flmul@a
  9314   002822  C17D  F018         	movff	powf@t1+1,___flmul@a+1
  9315   002826  C17E  F019         	movff	powf@t1+2,___flmul@a+2
  9316   00282A  C17F  F01A         	movff	powf@t1+3,___flmul@a+3
  9317   00282E  C1AC  F013         	movff	powf@z,___flmul@b
  9318   002832  C1AD  F014         	movff	powf@z+1,___flmul@b+1
  9319   002836  C1AE  F015         	movff	powf@z+2,___flmul@b+2
  9320   00283A  C1AF  F016         	movff	powf@z+3,___flmul@b+3
  9321   00283E  EC38  F023         	call	___flmul	;wreg free
  9322   002842  C013  F04E         	movff	?___flmul,___fldiv@b
  9323   002846  C014  F04F         	movff	?___flmul+1,___fldiv@b+1
  9324   00284A  C015  F050         	movff	?___flmul+2,___fldiv@b+2
  9325   00284E  C016  F051         	movff	?___flmul+3,___fldiv@b+3
  9326   002852  EC5F  F025         	call	___fldiv	;wreg free
  9327   002856  C04E  F140         	movff	?___fldiv,_powf$1748
  9328   00285A  C04F  F141         	movff	?___fldiv+1,_powf$1748+1
  9329   00285E  C050  F142         	movff	?___fldiv+2,_powf$1748+2
  9330   002862  C051  F143         	movff	?___fldiv+3,_powf$1748+3
  9331   002866  C138  F030         	movff	powf@w,___fladd@a
  9332   00286A  C139  F031         	movff	powf@w+1,___fladd@a+1
  9333   00286E  C13A  F032         	movff	powf@w+2,___fladd@a+2
  9334   002872  C13B  F033         	movff	powf@w+3,___fladd@a+3
  9335   002876  C138  F017         	movff	powf@w,___flmul@a
  9336   00287A  C139  F018         	movff	powf@w+1,___flmul@a+1
  9337   00287E  C13A  F019         	movff	powf@w+2,___flmul@a+2
  9338   002882  C13B  F01A         	movff	powf@w+3,___flmul@a+3
  9339   002886  C1AC  F013         	movff	powf@z,___flmul@b
  9340   00288A  C1AD  F014         	movff	powf@z+1,___flmul@b+1
  9341   00288E  C1AE  F015         	movff	powf@z+2,___flmul@b+2
  9342   002892  C1AF  F016         	movff	powf@z+3,___flmul@b+3
  9343   002896  EC38  F023         	call	___flmul	;wreg free
  9344   00289A  C013  F02C         	movff	?___flmul,___fladd@b
  9345   00289E  C014  F02D         	movff	?___flmul+1,___fladd@b+1
  9346   0028A2  C015  F02E         	movff	?___flmul+2,___fladd@b+2
  9347   0028A6  C016  F02F         	movff	?___flmul+3,___fladd@b+3
  9348   0028AA  ECD8  F020         	call	___fladd	;wreg free
  9349   0028AE  C02C  F134         	movff	?___fladd,_powf$1752
  9350   0028B2  C02D  F135         	movff	?___fladd+1,_powf$1752+1
  9351   0028B6  C02E  F136         	movff	?___fladd+2,_powf$1752+2
  9352   0028BA  C02F  F137         	movff	?___fladd+3,_powf$1752+3
  9353   0028BE  C140  F046         	movff	_powf$1748,___flsub@b
  9354   0028C2  C141  F047         	movff	_powf$1748+1,___flsub@b+1
  9355   0028C6  C142  F048         	movff	_powf$1748+2,___flsub@b+2
  9356   0028CA  C143  F049         	movff	_powf$1748+3,___flsub@b+3
  9357   0028CE  C134  F04A         	movff	_powf$1752,___flsub@a
  9358   0028D2  C135  F04B         	movff	_powf$1752+1,___flsub@a+1
  9359   0028D6  C136  F04C         	movff	_powf$1752+2,___flsub@a+2
  9360   0028DA  C137  F04D         	movff	_powf$1752+3,___flsub@a+3
  9361   0028DE  ECB3  F02F         	call	___flsub	;wreg free
  9362   0028E2  C046  F144         	movff	?___flsub,powf@r
  9363   0028E6  C047  F145         	movff	?___flsub+1,powf@r+1
  9364   0028EA  C048  F146         	movff	?___flsub+2,powf@r+2
  9365   0028EE  C049  F147         	movff	?___flsub+3,powf@r+3
  9366   0028F2  C1AC  F04A         	movff	powf@z,___flsub@a
  9367   0028F6  C1AD  F04B         	movff	powf@z+1,___flsub@a+1
  9368   0028FA  C1AE  F04C         	movff	powf@z+2,___flsub@a+2
  9369   0028FE  C1AF  F04D         	movff	powf@z+3,___flsub@a+3
  9370   002902  C144  F046         	movff	powf@r,___flsub@b
  9371   002906  C145  F047         	movff	powf@r+1,___flsub@b+1
  9372   00290A  C146  F048         	movff	powf@r+2,___flsub@b+2
  9373   00290E  C147  F049         	movff	powf@r+3,___flsub@b+3
  9374   002912  ECB3  F02F         	call	___flsub	;wreg free
  9375   002916  C046  F190         	movff	?___flsub,_powf$1743
  9376   00291A  C047  F191         	movff	?___flsub+1,_powf$1743+1
  9377   00291E  C048  F192         	movff	?___flsub+2,_powf$1743+2
  9378   002922  C049  F193         	movff	?___flsub+3,_powf$1743+3
  9379   002926  0E00               	movlw	0
  9380   002928  6E46               	movwf	___flsub@b^0,c
  9381   00292A  0E00               	movlw	0
  9382   00292C  6E47               	movwf	(___flsub@b+1)^0,c
  9383   00292E  0E80               	movlw	128
  9384   002930  6E48               	movwf	(___flsub@b+2)^0,c
  9385   002932  0E3F               	movlw	63
  9386   002934  6E49               	movwf	(___flsub@b+3)^0,c
  9387   002936  C190  F04A         	movff	_powf$1743,___flsub@a
  9388   00293A  C191  F04B         	movff	_powf$1743+1,___flsub@a+1
  9389   00293E  C192  F04C         	movff	_powf$1743+2,___flsub@a+2
  9390   002942  C193  F04D         	movff	_powf$1743+3,___flsub@a+3
  9391   002946  ECB3  F02F         	call	___flsub	;wreg free
  9392   00294A  C046  F1AC         	movff	?___flsub,powf@z
  9393   00294E  C047  F1AD         	movff	?___flsub+1,powf@z+1
  9394   002952  C048  F1AE         	movff	?___flsub+2,powf@z+2
  9395   002956  C049  F1AF         	movff	?___flsub+3,powf@z+3
  9396   00295A  C1AC  F1B0         	movff	powf@z,powf@__xc8_float_word
  9397   00295E  C1AD  F1B1         	movff	powf@z+1,powf@__xc8_float_word+1
  9398   002962  C1AE  F1B2         	movff	powf@z+2,powf@__xc8_float_word+2
  9399   002966  C1AF  F1B3         	movff	powf@z+3,powf@__xc8_float_word+3
  9400   00296A  C1B0  F1A4         	movff	powf@__xc8_float_word,powf@j
  9401   00296E  C1B1  F1A5         	movff	powf@__xc8_float_word+1,powf@j+1
  9402   002972  C1B2  F1A6         	movff	powf@__xc8_float_word+2,powf@j+2
  9403   002976  C1B3  F1A7         	movff	powf@__xc8_float_word+3,powf@j+3
  9404   00297A  C178  F095         	movff	powf@n,??_powf
  9405   00297E  C179  F096         	movff	powf@n+1,??_powf+1
  9406   002982  C17A  F097         	movff	powf@n+2,??_powf+2
  9407   002986  C17B  F098         	movff	powf@n+3,??_powf+3
  9408   00298A  0E17               	movlw	23
  9409   00298C                     u5465:
  9410   00298C  90D8               	bcf	status,0,c
  9411   00298E  0100               	movlb	0	; () banked
  9412   002990  3795               	rlcf	??_powf& (0+255),f,b
  9413   002992  3796               	rlcf	(??_powf+1)& (0+255),f,b
  9414   002994  3797               	rlcf	(??_powf+2)& (0+255),f,b
  9415   002996  3798               	rlcf	(??_powf+3)& (0+255),f,b
  9416   002998  2EE8               	decfsz	wreg,f,c
  9417   00299A  EFC6  F014         	goto	u5465
  9418   00299E  5195               	movf	??_powf& (0+255),w,b
  9419   0029A0  0101               	movlb	1	; () banked
  9420   0029A2  27A4               	addwf	powf@j& (0+255),f,b
  9421   0029A4  0100               	movlb	0	; () banked
  9422   0029A6  5196               	movf	(??_powf+1)& (0+255),w,b
  9423   0029A8  0101               	movlb	1	; () banked
  9424   0029AA  23A5               	addwfc	(powf@j+1)& (0+255),f,b
  9425   0029AC  0100               	movlb	0	; () banked
  9426   0029AE  5197               	movf	(??_powf+2)& (0+255),w,b
  9427   0029B0  0101               	movlb	1	; () banked
  9428   0029B2  23A6               	addwfc	(powf@j+2)& (0+255),f,b
  9429   0029B4  0100               	movlb	0	; () banked
  9430   0029B6  5198               	movf	(??_powf+3)& (0+255),w,b
  9431   0029B8  0101               	movlb	1	; () banked
  9432   0029BA  23A7               	addwfc	(powf@j+3)& (0+255),f,b
  9433   0029BC                     
  9434                           ; BSR set to: 1
  9435   0029BC  0E17               	movlw	23
  9436   0029BE  0100               	movlb	0	; () banked
  9437   0029C0  6F95               	movwf	??_powf& (0+255),b
  9438   0029C2  C1A4  F096         	movff	powf@j,??_powf+1
  9439   0029C6  C1A5  F097         	movff	powf@j+1,??_powf+2
  9440   0029CA  C1A6  F098         	movff	powf@j+2,??_powf+3
  9441   0029CE  C1A7  F099         	movff	powf@j+3,??_powf+4
  9442   0029D2                     u5475:
  9443   0029D2  6795               	tstfsz	??_powf& (0+255),b
  9444   0029D4  EFEE  F014         	goto	u5476
  9445   0029D8  EFF6  F014         	goto	u5477
  9446   0029DC                     u5476:
  9447   0029DC  3599               	rlcf	(??_powf+4)& (0+255),w,b
  9448   0029DE  3399               	rrcf	(??_powf+4)& (0+255),f,b
  9449   0029E0  3398               	rrcf	(??_powf+3)& (0+255),f,b
  9450   0029E2  3397               	rrcf	(??_powf+2)& (0+255),f,b
  9451   0029E4  3396               	rrcf	(??_powf+1)& (0+255),f,b
  9452   0029E6  2F95               	decfsz	??_powf& (0+255),f,b
  9453   0029E8  EFE9  F014         	goto	u5475
  9454   0029EC                     u5477:
  9455   0029EC  0100               	movlb	0	; () banked
  9456   0029EE  BF99               	btfsc	(??_powf+4)& (0+255),7,b
  9457   0029F0  EF06  F015         	goto	u5480
  9458   0029F4  5199               	movf	(??_powf+4)& (0+255),w,b
  9459   0029F6  1198               	iorwf	(??_powf+3)& (0+255),w,b
  9460   0029F8  1197               	iorwf	(??_powf+2)& (0+255),w,b
  9461   0029FA  E106               	bnz	u5481
  9462   0029FC  0596               	decf	(??_powf+1)& (0+255),w,b
  9463   0029FE  B0D8               	btfsc	status,0,c
  9464   002A00  EF04  F015         	goto	u5481
  9465   002A04  EF06  F015         	goto	u5480
  9466   002A08                     u5481:
  9467   002A08  EF1E  F015         	goto	l1317
  9468   002A0C                     u5480:
  9469   002A0C                     
  9470                           ; BSR set to: 0
  9471   002A0C  C1AC  F02C         	movff	powf@z,scalbnf@x
  9472   002A10  C1AD  F02D         	movff	powf@z+1,scalbnf@x+1
  9473   002A14  C1AE  F02E         	movff	powf@z+2,scalbnf@x+2
  9474   002A18  C1AF  F02F         	movff	powf@z+3,scalbnf@x+3
  9475   002A1C  C178  F030         	movff	powf@n,scalbnf@n
  9476   002A20  C179  F031         	movff	powf@n+1,scalbnf@n+1
  9477   002A24  EC2D  F027         	call	_scalbnf	;wreg free
  9478   002A28  C02C  F1AC         	movff	?_scalbnf,powf@z
  9479   002A2C  C02D  F1AD         	movff	?_scalbnf+1,powf@z+1
  9480   002A30  C02E  F1AE         	movff	?_scalbnf+2,powf@z+2
  9481   002A34  C02F  F1AF         	movff	?_scalbnf+3,powf@z+3
  9482   002A38  EF2E  F015         	goto	l5650
  9483   002A3C                     l1317:
  9484                           
  9485                           ; BSR set to: 0
  9486   002A3C  C1A4  F1B0         	movff	powf@j,powf@__xc8_float_word
  9487   002A40  C1A5  F1B1         	movff	powf@j+1,powf@__xc8_float_word+1
  9488   002A44  C1A6  F1B2         	movff	powf@j+2,powf@__xc8_float_word+2
  9489   002A48  C1A7  F1B3         	movff	powf@j+3,powf@__xc8_float_word+3
  9490   002A4C  C1B0  F1AC         	movff	powf@__xc8_float_word,powf@z
  9491   002A50  C1B1  F1AD         	movff	powf@__xc8_float_word+1,powf@z+1
  9492   002A54  C1B2  F1AE         	movff	powf@__xc8_float_word+2,powf@z+2
  9493   002A58  C1B3  F1AF         	movff	powf@__xc8_float_word+3,powf@z+3
  9494   002A5C                     l5650:
  9495   002A5C  C180  F013         	movff	powf@sn,___flmul@b
  9496   002A60  C181  F014         	movff	powf@sn+1,___flmul@b+1
  9497   002A64  C182  F015         	movff	powf@sn+2,___flmul@b+2
  9498   002A68  C183  F016         	movff	powf@sn+3,___flmul@b+3
  9499   002A6C  C1AC  F017         	movff	powf@z,___flmul@a
  9500   002A70  C1AD  F018         	movff	powf@z+1,___flmul@a+1
  9501   002A74  C1AE  F019         	movff	powf@z+2,___flmul@a+2
  9502   002A78  C1AF  F01A         	movff	powf@z+3,___flmul@a+3
  9503   002A7C  EC38  F023         	call	___flmul	;wreg free
  9504   002A80  C013  F08D         	movff	?___flmul,?_powf
  9505   002A84  C014  F08E         	movff	?___flmul+1,?_powf+1
  9506   002A88  C015  F08F         	movff	?___flmul+2,?_powf+2
  9507   002A8C  C016  F090         	movff	?___flmul+3,?_powf+3
  9508   002A90                     l1205:
  9509   002A90  0012               	return		;funcret
  9510   002A92                     __end_of_powf:
  9511                           	callstack 0
  9512                           
  9513 ;; *************** function _sqrtf *****************
  9514 ;; Defined at:
  9515 ;;		line 22 in file "C:\Program Files\Microchip\xc8\v2.41\pic\sources\c99\common\sqrtf.c"
  9516 ;; Parameters:    Size  Location     Type
  9517 ;;  x               4    0[BANK0 ] float 
  9518 ;; Auto vars:     Size  Location     Type
  9519 ;;  ix              4   41[BANK0 ] long 
  9520 ;;  r               4   37[BANK0 ] unsigned long 
  9521 ;;  m               4   33[BANK0 ] long 
  9522 ;;  z               4   29[BANK0 ] float 
  9523 ;;  t               4   25[BANK0 ] long 
  9524 ;;  q               4   21[BANK0 ] long 
  9525 ;;  __xc8_float_    4   17[BANK0 ] struct .
  9526 ;;  i               4   13[BANK0 ] long 
  9527 ;;  s               4    9[BANK0 ] long 
  9528 ;;  sign            4    0        long 
  9529 ;; Return value:  Size  Location     Type
  9530 ;;                  4    0[BANK0 ] float 
  9531 ;; Registers used:
  9532 ;;		wreg, status,2, status,0, prodl, prodh, cstack
  9533 ;; Tracked objects:
  9534 ;;		On entry : 0/0
  9535 ;;		On exit  : 0/0
  9536 ;;		Unchanged: 0/0
  9537 ;; Data sizes:     COMRAM   BANK0   BANK1   BANK2   BANK3   BANK4   BANK5   BANK6   BANK7   BANK8   BANK9  BANK10  BANK1
      +1  BANK12  BANK13  BANK14  BANK15
  9538 ;;      Params:         0       4       0       0       0       0       0       0       0       0       0       0       
      +0       0       0       0       0
  9539 ;;      Locals:         0      36       0       0       0       0       0       0       0       0       0       0       
      +0       0       0       0       0
  9540 ;;      Temps:          0       5       0       0       0       0       0       0       0       0       0       0       
      +0       0       0       0       0
  9541 ;;      Totals:         0      45       0       0       0       0       0       0       0       0       0       0       
      +0       0       0       0       0
  9542 ;;Total ram usage:       45 bytes
  9543 ;; Hardware stack levels used: 1
  9544 ;; Hardware stack levels required when called: 4
  9545 ;; This function calls:
  9546 ;;		___fladd
  9547 ;;		___flge
  9548 ;;		___flmul
  9549 ;;		_nanf
  9550 ;; This function is called by:
  9551 ;;		_powf
  9552 ;; This function uses a non-reentrant model
  9553 ;;
  9554                           
  9555                           	psect	text25
  9556   003CF0                     __ptext25:
  9557                           	callstack 0
  9558   003CF0                     _sqrtf:
  9559                           	callstack 25
  9560   003CF0  C060  F071         	movff	sqrtf@x,sqrtf@__xc8_float_word
  9561   003CF4  C061  F072         	movff	sqrtf@x+1,sqrtf@__xc8_float_word+1
  9562   003CF8  C062  F073         	movff	sqrtf@x+2,sqrtf@__xc8_float_word+2
  9563   003CFC  C063  F074         	movff	sqrtf@x+3,sqrtf@__xc8_float_word+3
  9564   003D00  C071  F089         	movff	sqrtf@__xc8_float_word,sqrtf@ix
  9565   003D04  C072  F08A         	movff	sqrtf@__xc8_float_word+1,sqrtf@ix+1
  9566   003D08  C073  F08B         	movff	sqrtf@__xc8_float_word+2,sqrtf@ix+2
  9567   003D0C  C074  F08C         	movff	sqrtf@__xc8_float_word+3,sqrtf@ix+3
  9568   003D10  0E00               	movlw	0
  9569   003D12  0100               	movlb	0	; () banked
  9570   003D14  1589               	andwf	sqrtf@ix& (0+255),w,b
  9571   003D16  6F64               	movwf	??_sqrtf& (0+255),b
  9572   003D18  0E00               	movlw	0
  9573   003D1A  158A               	andwf	(sqrtf@ix+1)& (0+255),w,b
  9574   003D1C  6F65               	movwf	(??_sqrtf+1)& (0+255),b
  9575   003D1E  0E80               	movlw	128
  9576   003D20  158B               	andwf	(sqrtf@ix+2)& (0+255),w,b
  9577   003D22  6F66               	movwf	(??_sqrtf+2)& (0+255),b
  9578   003D24  0E7F               	movlw	127
  9579   003D26  158C               	andwf	(sqrtf@ix+3)& (0+255),w,b
  9580   003D28  6F67               	movwf	(??_sqrtf+3)& (0+255),b
  9581   003D2A  0E80               	movlw	128
  9582   003D2C  1966               	xorwf	(??_sqrtf+2)& (0+255),w,b
  9583   003D2E  E109               	bnz	u4741
  9584   003D30  0E7F               	movlw	127
  9585   003D32  1967               	xorwf	(??_sqrtf+3)& (0+255),w,b
  9586   003D34  1164               	iorwf	??_sqrtf& (0+255),w,b
  9587   003D36  1165               	iorwf	(??_sqrtf+1)& (0+255),w,b
  9588   003D38  A4D8               	btfss	status,2,c
  9589   003D3A  EFA1  F01E         	goto	u4741
  9590   003D3E  EFA3  F01E         	goto	u4740
  9591   003D42                     u4741:
  9592   003D42  EFD1  F01E         	goto	l5098
  9593   003D46                     u4740:
  9594   003D46                     
  9595                           ; BSR set to: 0
  9596   003D46  C060  F017         	movff	sqrtf@x,___flmul@a
  9597   003D4A  C061  F018         	movff	sqrtf@x+1,___flmul@a+1
  9598   003D4E  C062  F019         	movff	sqrtf@x+2,___flmul@a+2
  9599   003D52  C063  F01A         	movff	sqrtf@x+3,___flmul@a+3
  9600   003D56  C060  F013         	movff	sqrtf@x,___flmul@b
  9601   003D5A  C061  F014         	movff	sqrtf@x+1,___flmul@b+1
  9602   003D5E  C062  F015         	movff	sqrtf@x+2,___flmul@b+2
  9603   003D62  C063  F016         	movff	sqrtf@x+3,___flmul@b+3
  9604   003D66  EC38  F023         	call	___flmul	;wreg free
  9605   003D6A  C013  F02C         	movff	?___flmul,___fladd@b
  9606   003D6E  C014  F02D         	movff	?___flmul+1,___fladd@b+1
  9607   003D72  C015  F02E         	movff	?___flmul+2,___fladd@b+2
  9608   003D76  C016  F02F         	movff	?___flmul+3,___fladd@b+3
  9609   003D7A  C060  F030         	movff	sqrtf@x,___fladd@a
  9610   003D7E  C061  F031         	movff	sqrtf@x+1,___fladd@a+1
  9611   003D82  C062  F032         	movff	sqrtf@x+2,___fladd@a+2
  9612   003D86  C063  F033         	movff	sqrtf@x+3,___fladd@a+3
  9613   003D8A  ECD8  F020         	call	___fladd	;wreg free
  9614   003D8E  C02C  F060         	movff	?___fladd,?_sqrtf
  9615   003D92  C02D  F061         	movff	?___fladd+1,?_sqrtf+1
  9616   003D96  C02E  F062         	movff	?___fladd+2,?_sqrtf+2
  9617   003D9A  C02F  F063         	movff	?___fladd+3,?_sqrtf+3
  9618   003D9E  EFD7  F020         	goto	l1345
  9619   003DA2                     l5098:
  9620                           
  9621                           ; BSR set to: 0
  9622   003DA2  BF8C               	btfsc	(sqrtf@ix+3)& (0+255),7,b
  9623   003DA4  EFE0  F01E         	goto	u4750
  9624   003DA8  518C               	movf	(sqrtf@ix+3)& (0+255),w,b
  9625   003DAA  118B               	iorwf	(sqrtf@ix+2)& (0+255),w,b
  9626   003DAC  118A               	iorwf	(sqrtf@ix+1)& (0+255),w,b
  9627   003DAE  E106               	bnz	u4751
  9628   003DB0  0589               	decf	sqrtf@ix& (0+255),w,b
  9629   003DB2  B0D8               	btfsc	status,0,c
  9630   003DB4  EFDE  F01E         	goto	u4751
  9631   003DB8  EFE0  F01E         	goto	u4750
  9632   003DBC                     u4751:
  9633   003DBC  EF1C  F01F         	goto	l5112
  9634   003DC0                     u4750:
  9635   003DC0                     
  9636                           ; BSR set to: 0
  9637   003DC0  0EFF               	movlw	255
  9638   003DC2  1589               	andwf	sqrtf@ix& (0+255),w,b
  9639   003DC4  6F64               	movwf	??_sqrtf& (0+255),b
  9640   003DC6  0EFF               	movlw	255
  9641   003DC8  158A               	andwf	(sqrtf@ix+1)& (0+255),w,b
  9642   003DCA  6F65               	movwf	(??_sqrtf+1)& (0+255),b
  9643   003DCC  0EFF               	movlw	255
  9644   003DCE  158B               	andwf	(sqrtf@ix+2)& (0+255),w,b
  9645   003DD0  6F66               	movwf	(??_sqrtf+2)& (0+255),b
  9646   003DD2  0E7F               	movlw	127
  9647   003DD4  158C               	andwf	(sqrtf@ix+3)& (0+255),w,b
  9648   003DD6  6F67               	movwf	(??_sqrtf+3)& (0+255),b
  9649   003DD8  5164               	movf	??_sqrtf& (0+255),w,b
  9650   003DDA  1165               	iorwf	(??_sqrtf+1)& (0+255),w,b
  9651   003DDC  1166               	iorwf	(??_sqrtf+2)& (0+255),w,b
  9652   003DDE  1167               	iorwf	(??_sqrtf+3)& (0+255),w,b
  9653   003DE0  A4D8               	btfss	status,2,c
  9654   003DE2  EFF5  F01E         	goto	u4761
  9655   003DE6  EFF7  F01E         	goto	u4760
  9656   003DEA                     u4761:
  9657   003DEA  EF01  F01F         	goto	l5104
  9658   003DEE                     u4760:
  9659   003DEE                     
  9660                           ; BSR set to: 0
  9661   003DEE  C060  F060         	movff	sqrtf@x,?_sqrtf
  9662   003DF2  C061  F061         	movff	sqrtf@x+1,?_sqrtf+1
  9663   003DF6  C062  F062         	movff	sqrtf@x+2,?_sqrtf+2
  9664   003DFA  C063  F063         	movff	sqrtf@x+3,?_sqrtf+3
  9665   003DFE  EFD7  F020         	goto	l1345
  9666   003E02                     l5104:
  9667                           
  9668                           ; BSR set to: 0
  9669   003E02  BF8C               	btfsc	(sqrtf@ix+3)& (0+255),7,b
  9670   003E04  EF08  F01F         	goto	u4770
  9671   003E08  EF06  F01F         	goto	u4771
  9672   003E0C                     u4771:
  9673   003E0C  EF1C  F01F         	goto	l5112
  9674   003E10                     u4770:
  9675   003E10                     
  9676                           ; BSR set to: 0
  9677   003E10  0E00               	movlw	0
  9678   003E12  6FFC               	movwf	(_errno+1)& (0+255),b
  9679   003E14  0E21               	movlw	33
  9680   003E16  6FFB               	movwf	_errno& (0+255),b
  9681   003E18                     
  9682                           ; BSR set to: 0
  9683   003E18  0EFD               	movlw	low STR_1
  9684   003E1A  6E03               	movwf	nanf@s^0,c
  9685   003E1C  0EFF               	movlw	high STR_1
  9686   003E1E  6E04               	movwf	(nanf@s+1)^0,c
  9687   003E20  ECAC  F030         	call	_nanf	;wreg free
  9688   003E24  C003  F060         	movff	?_nanf,?_sqrtf
  9689   003E28  C004  F061         	movff	?_nanf+1,?_sqrtf+1
  9690   003E2C  C005  F062         	movff	?_nanf+2,?_sqrtf+2
  9691   003E30  C006  F063         	movff	?_nanf+3,?_sqrtf+3
  9692   003E34  EFD7  F020         	goto	l1345
  9693   003E38                     l5112:
  9694                           
  9695                           ; BSR set to: 0
  9696   003E38  0E17               	movlw	23
  9697   003E3A  6F64               	movwf	??_sqrtf& (0+255),b
  9698   003E3C  C089  F065         	movff	sqrtf@ix,??_sqrtf+1
  9699   003E40  C08A  F066         	movff	sqrtf@ix+1,??_sqrtf+2
  9700   003E44  C08B  F067         	movff	sqrtf@ix+2,??_sqrtf+3
  9701   003E48  C08C  F068         	movff	sqrtf@ix+3,??_sqrtf+4
  9702   003E4C                     u4785:
  9703   003E4C  6764               	tstfsz	??_sqrtf& (0+255),b
  9704   003E4E  EF2B  F01F         	goto	u4786
  9705   003E52  EF33  F01F         	goto	u4787
  9706   003E56                     u4786:
  9707   003E56  3568               	rlcf	(??_sqrtf+4)& (0+255),w,b
  9708   003E58  3368               	rrcf	(??_sqrtf+4)& (0+255),f,b
  9709   003E5A  3367               	rrcf	(??_sqrtf+3)& (0+255),f,b
  9710   003E5C  3366               	rrcf	(??_sqrtf+2)& (0+255),f,b
  9711   003E5E  3365               	rrcf	(??_sqrtf+1)& (0+255),f,b
  9712   003E60  2F64               	decfsz	??_sqrtf& (0+255),f,b
  9713   003E62  EF26  F01F         	goto	u4785
  9714   003E66                     u4787:
  9715   003E66  C065  F081         	movff	??_sqrtf+1,sqrtf@m
  9716   003E6A  C066  F082         	movff	??_sqrtf+2,sqrtf@m+1
  9717   003E6E  C067  F083         	movff	??_sqrtf+3,sqrtf@m+2
  9718   003E72  C068  F084         	movff	??_sqrtf+4,sqrtf@m+3
  9719   003E76  0100               	movlb	0	; () banked
  9720   003E78  5181               	movf	sqrtf@m& (0+255),w,b
  9721   003E7A  1182               	iorwf	(sqrtf@m+1)& (0+255),w,b
  9722   003E7C  1183               	iorwf	(sqrtf@m+2)& (0+255),w,b
  9723   003E7E  1184               	iorwf	(sqrtf@m+3)& (0+255),w,b
  9724   003E80  A4D8               	btfss	status,2,c
  9725   003E82  EF45  F01F         	goto	u4791
  9726   003E86  EF47  F01F         	goto	u4790
  9727   003E8A                     u4791:
  9728   003E8A  EF77  F01F         	goto	l1349
  9729   003E8E                     u4790:
  9730   003E8E                     
  9731                           ; BSR set to: 0
  9732   003E8E  0E00               	movlw	0
  9733   003E90  6F6D               	movwf	sqrtf@i& (0+255),b
  9734   003E92  0E00               	movlw	0
  9735   003E94  6F6E               	movwf	(sqrtf@i+1)& (0+255),b
  9736   003E96  0E00               	movlw	0
  9737   003E98  6F6F               	movwf	(sqrtf@i+2)& (0+255),b
  9738   003E9A  0E00               	movlw	0
  9739   003E9C  6F70               	movwf	(sqrtf@i+3)& (0+255),b
  9740   003E9E  EF5C  F01F         	goto	l5120
  9741   003EA2                     l5116:
  9742                           
  9743                           ; BSR set to: 0
  9744   003EA2  90D8               	bcf	status,0,c
  9745   003EA4  3789               	rlcf	sqrtf@ix& (0+255),f,b
  9746   003EA6  378A               	rlcf	(sqrtf@ix+1)& (0+255),f,b
  9747   003EA8  378B               	rlcf	(sqrtf@ix+2)& (0+255),f,b
  9748   003EAA  378C               	rlcf	(sqrtf@ix+3)& (0+255),f,b
  9749   003EAC                     
  9750                           ; BSR set to: 0
  9751   003EAC  0E01               	movlw	1
  9752   003EAE  276D               	addwf	sqrtf@i& (0+255),f,b
  9753   003EB0  0E00               	movlw	0
  9754   003EB2  236E               	addwfc	(sqrtf@i+1)& (0+255),f,b
  9755   003EB4  236F               	addwfc	(sqrtf@i+2)& (0+255),f,b
  9756   003EB6  2370               	addwfc	(sqrtf@i+3)& (0+255),f,b
  9757   003EB8                     l5120:
  9758                           
  9759                           ; BSR set to: 0
  9760   003EB8  AF8B               	btfss	(sqrtf@ix+2)& (0+255),7,b
  9761   003EBA  EF61  F01F         	goto	u4801
  9762   003EBE  EF63  F01F         	goto	u4800
  9763   003EC2                     u4801:
  9764   003EC2  EF51  F01F         	goto	l5116
  9765   003EC6                     u4800:
  9766   003EC6                     
  9767                           ; BSR set to: 0
  9768   003EC6  0EFF               	movlw	255
  9769   003EC8  256D               	addwf	sqrtf@i& (0+255),w,b
  9770   003ECA  6F64               	movwf	??_sqrtf& (0+255),b
  9771   003ECC  0EFF               	movlw	255
  9772   003ECE  216E               	addwfc	(sqrtf@i+1)& (0+255),w,b
  9773   003ED0  6F65               	movwf	(??_sqrtf+1)& (0+255),b
  9774   003ED2  0EFF               	movlw	255
  9775   003ED4  216F               	addwfc	(sqrtf@i+2)& (0+255),w,b
  9776   003ED6  6F66               	movwf	(??_sqrtf+2)& (0+255),b
  9777   003ED8  0EFF               	movlw	255
  9778   003EDA  2170               	addwfc	(sqrtf@i+3)& (0+255),w,b
  9779   003EDC  6F67               	movwf	(??_sqrtf+3)& (0+255),b
  9780   003EDE  5164               	movf	??_sqrtf& (0+255),w,b
  9781   003EE0  5F81               	subwf	sqrtf@m& (0+255),f,b
  9782   003EE2  5165               	movf	(??_sqrtf+1)& (0+255),w,b
  9783   003EE4  5B82               	subwfb	(sqrtf@m+1)& (0+255),f,b
  9784   003EE6  5166               	movf	(??_sqrtf+2)& (0+255),w,b
  9785   003EE8  5B83               	subwfb	(sqrtf@m+2)& (0+255),f,b
  9786   003EEA  5167               	movf	(??_sqrtf+3)& (0+255),w,b
  9787   003EEC  5B84               	subwfb	(sqrtf@m+3)& (0+255),f,b
  9788   003EEE                     l1349:
  9789                           
  9790                           ; BSR set to: 0
  9791   003EEE  0E81               	movlw	129
  9792   003EF0  2781               	addwf	sqrtf@m& (0+255),f,b
  9793   003EF2  0EFF               	movlw	255
  9794   003EF4  2382               	addwfc	(sqrtf@m+1)& (0+255),f,b
  9795   003EF6  0EFF               	movlw	255
  9796   003EF8  2383               	addwfc	(sqrtf@m+2)& (0+255),f,b
  9797   003EFA  0EFF               	movlw	255
  9798   003EFC  2384               	addwfc	(sqrtf@m+3)& (0+255),f,b
  9799   003EFE  0EFF               	movlw	255
  9800   003F00  1589               	andwf	sqrtf@ix& (0+255),w,b
  9801   003F02  6F64               	movwf	??_sqrtf& (0+255),b
  9802   003F04  0EFF               	movlw	255
  9803   003F06  158A               	andwf	(sqrtf@ix+1)& (0+255),w,b
  9804   003F08  6F65               	movwf	(??_sqrtf+1)& (0+255),b
  9805   003F0A  0E7F               	movlw	127
  9806   003F0C  158B               	andwf	(sqrtf@ix+2)& (0+255),w,b
  9807   003F0E  6F66               	movwf	(??_sqrtf+2)& (0+255),b
  9808   003F10  0E00               	movlw	0
  9809   003F12  158C               	andwf	(sqrtf@ix+3)& (0+255),w,b
  9810   003F14  6F67               	movwf	(??_sqrtf+3)& (0+255),b
  9811   003F16  0E00               	movlw	0
  9812   003F18  1164               	iorwf	??_sqrtf& (0+255),w,b
  9813   003F1A  6F89               	movwf	sqrtf@ix& (0+255),b
  9814   003F1C  0E00               	movlw	0
  9815   003F1E  1165               	iorwf	(??_sqrtf+1)& (0+255),w,b
  9816   003F20  6F8A               	movwf	(sqrtf@ix+1)& (0+255),b
  9817   003F22  0E80               	movlw	128
  9818   003F24  1166               	iorwf	(??_sqrtf+2)& (0+255),w,b
  9819   003F26  6F8B               	movwf	(sqrtf@ix+2)& (0+255),b
  9820   003F28  0E00               	movlw	0
  9821   003F2A  1167               	iorwf	(??_sqrtf+3)& (0+255),w,b
  9822   003F2C  6F8C               	movwf	(sqrtf@ix+3)& (0+255),b
  9823   003F2E                     
  9824                           ; BSR set to: 0
  9825   003F2E  A181               	btfss	sqrtf@m& (0+255),0,b
  9826   003F30  EF9C  F01F         	goto	u4811
  9827   003F34  EF9E  F01F         	goto	u4810
  9828   003F38                     u4811:
  9829   003F38  EFA6  F01F         	goto	l1353
  9830   003F3C                     u4810:
  9831   003F3C                     
  9832                           ; BSR set to: 0
  9833   003F3C  5189               	movf	sqrtf@ix& (0+255),w,b
  9834   003F3E  2789               	addwf	sqrtf@ix& (0+255),f,b
  9835   003F40  518A               	movf	(sqrtf@ix+1)& (0+255),w,b
  9836   003F42  238A               	addwfc	(sqrtf@ix+1)& (0+255),f,b
  9837   003F44  518B               	movf	(sqrtf@ix+2)& (0+255),w,b
  9838   003F46  238B               	addwfc	(sqrtf@ix+2)& (0+255),f,b
  9839   003F48  518C               	movf	(sqrtf@ix+3)& (0+255),w,b
  9840   003F4A  238C               	addwfc	(sqrtf@ix+3)& (0+255),f,b
  9841   003F4C                     l1353:
  9842                           
  9843                           ; BSR set to: 0
  9844   003F4C  3584               	rlcf	(sqrtf@m+3)& (0+255),w,b
  9845   003F4E  3384               	rrcf	(sqrtf@m+3)& (0+255),f,b
  9846   003F50  3383               	rrcf	(sqrtf@m+2)& (0+255),f,b
  9847   003F52  3382               	rrcf	(sqrtf@m+1)& (0+255),f,b
  9848   003F54  3381               	rrcf	sqrtf@m& (0+255),f,b
  9849   003F56  5189               	movf	sqrtf@ix& (0+255),w,b
  9850   003F58  2789               	addwf	sqrtf@ix& (0+255),f,b
  9851   003F5A  518A               	movf	(sqrtf@ix+1)& (0+255),w,b
  9852   003F5C  238A               	addwfc	(sqrtf@ix+1)& (0+255),f,b
  9853   003F5E  518B               	movf	(sqrtf@ix+2)& (0+255),w,b
  9854   003F60  238B               	addwfc	(sqrtf@ix+2)& (0+255),f,b
  9855   003F62  518C               	movf	(sqrtf@ix+3)& (0+255),w,b
  9856   003F64  238C               	addwfc	(sqrtf@ix+3)& (0+255),f,b
  9857   003F66                     
  9858                           ; BSR set to: 0
  9859   003F66  0E00               	movlw	0
  9860   003F68  6F69               	movwf	sqrtf@s& (0+255),b
  9861   003F6A  0E00               	movlw	0
  9862   003F6C  6F6A               	movwf	(sqrtf@s+1)& (0+255),b
  9863   003F6E  0E00               	movlw	0
  9864   003F70  6F6B               	movwf	(sqrtf@s+2)& (0+255),b
  9865   003F72  0E00               	movlw	0
  9866   003F74  6F6C               	movwf	(sqrtf@s+3)& (0+255),b
  9867   003F76  C069  F075         	movff	sqrtf@s,sqrtf@q
  9868   003F7A  C06A  F076         	movff	sqrtf@s+1,sqrtf@q+1
  9869   003F7E  C06B  F077         	movff	sqrtf@s+2,sqrtf@q+2
  9870   003F82  C06C  F078         	movff	sqrtf@s+3,sqrtf@q+3
  9871   003F86                     
  9872                           ; BSR set to: 0
  9873   003F86  0E00               	movlw	0
  9874   003F88  6F85               	movwf	sqrtf@r& (0+255),b
  9875   003F8A  0E00               	movlw	0
  9876   003F8C  6F86               	movwf	(sqrtf@r+1)& (0+255),b
  9877   003F8E  0E00               	movlw	0
  9878   003F90  6F87               	movwf	(sqrtf@r+2)& (0+255),b
  9879   003F92  0E01               	movlw	1
  9880   003F94  6F88               	movwf	(sqrtf@r+3)& (0+255),b
  9881   003F96  EF15  F020         	goto	l5138
  9882   003F9A                     l5132:
  9883                           
  9884                           ; BSR set to: 0
  9885   003F9A  5169               	movf	sqrtf@s& (0+255),w,b
  9886   003F9C  2585               	addwf	sqrtf@r& (0+255),w,b
  9887   003F9E  6F79               	movwf	sqrtf@t& (0+255),b
  9888   003FA0  516A               	movf	(sqrtf@s+1)& (0+255),w,b
  9889   003FA2  2186               	addwfc	(sqrtf@r+1)& (0+255),w,b
  9890   003FA4  6F7A               	movwf	(sqrtf@t+1)& (0+255),b
  9891   003FA6  516B               	movf	(sqrtf@s+2)& (0+255),w,b
  9892   003FA8  2187               	addwfc	(sqrtf@r+2)& (0+255),w,b
  9893   003FAA  6F7B               	movwf	(sqrtf@t+2)& (0+255),b
  9894   003FAC  516C               	movf	(sqrtf@s+3)& (0+255),w,b
  9895   003FAE  2188               	addwfc	(sqrtf@r+3)& (0+255),w,b
  9896   003FB0  6F7C               	movwf	(sqrtf@t+3)& (0+255),b
  9897   003FB2  5179               	movf	sqrtf@t& (0+255),w,b
  9898   003FB4  5D89               	subwf	sqrtf@ix& (0+255),w,b
  9899   003FB6  517A               	movf	(sqrtf@t+1)& (0+255),w,b
  9900   003FB8  598A               	subwfb	(sqrtf@ix+1)& (0+255),w,b
  9901   003FBA  517B               	movf	(sqrtf@t+2)& (0+255),w,b
  9902   003FBC  598B               	subwfb	(sqrtf@ix+2)& (0+255),w,b
  9903   003FBE  518C               	movf	(sqrtf@ix+3)& (0+255),w,b
  9904   003FC0  0A80               	xorlw	128
  9905   003FC2  6F64               	movwf	??_sqrtf& (0+255),b
  9906   003FC4  517C               	movf	(sqrtf@t+3)& (0+255),w,b
  9907   003FC6  0A80               	xorlw	128
  9908   003FC8  5964               	subwfb	??_sqrtf& (0+255),w,b
  9909   003FCA  A0D8               	btfss	status,0,c
  9910   003FCC  EFEA  F01F         	goto	u4821
  9911   003FD0  EFEC  F01F         	goto	u4820
  9912   003FD4                     u4821:
  9913   003FD4  EF08  F020         	goto	l1356
  9914   003FD8                     u4820:
  9915   003FD8                     
  9916                           ; BSR set to: 0
  9917   003FD8  5179               	movf	sqrtf@t& (0+255),w,b
  9918   003FDA  2585               	addwf	sqrtf@r& (0+255),w,b
  9919   003FDC  6F69               	movwf	sqrtf@s& (0+255),b
  9920   003FDE  517A               	movf	(sqrtf@t+1)& (0+255),w,b
  9921   003FE0  2186               	addwfc	(sqrtf@r+1)& (0+255),w,b
  9922   003FE2  6F6A               	movwf	(sqrtf@s+1)& (0+255),b
  9923   003FE4  517B               	movf	(sqrtf@t+2)& (0+255),w,b
  9924   003FE6  2187               	addwfc	(sqrtf@r+2)& (0+255),w,b
  9925   003FE8  6F6B               	movwf	(sqrtf@s+2)& (0+255),b
  9926   003FEA  517C               	movf	(sqrtf@t+3)& (0+255),w,b
  9927   003FEC  2188               	addwfc	(sqrtf@r+3)& (0+255),w,b
  9928   003FEE  6F6C               	movwf	(sqrtf@s+3)& (0+255),b
  9929   003FF0  5179               	movf	sqrtf@t& (0+255),w,b
  9930   003FF2  5F89               	subwf	sqrtf@ix& (0+255),f,b
  9931   003FF4  517A               	movf	(sqrtf@t+1)& (0+255),w,b
  9932   003FF6  5B8A               	subwfb	(sqrtf@ix+1)& (0+255),f,b
  9933   003FF8  517B               	movf	(sqrtf@t+2)& (0+255),w,b
  9934   003FFA  5B8B               	subwfb	(sqrtf@ix+2)& (0+255),f,b
  9935   003FFC  517C               	movf	(sqrtf@t+3)& (0+255),w,b
  9936   003FFE  5B8C               	subwfb	(sqrtf@ix+3)& (0+255),f,b
  9937   004000  5185               	movf	sqrtf@r& (0+255),w,b
  9938   004002  2775               	addwf	sqrtf@q& (0+255),f,b
  9939   004004  5186               	movf	(sqrtf@r+1)& (0+255),w,b
  9940   004006  2376               	addwfc	(sqrtf@q+1)& (0+255),f,b
  9941   004008  5187               	movf	(sqrtf@r+2)& (0+255),w,b
  9942   00400A  2377               	addwfc	(sqrtf@q+2)& (0+255),f,b
  9943   00400C  5188               	movf	(sqrtf@r+3)& (0+255),w,b
  9944   00400E  2378               	addwfc	(sqrtf@q+3)& (0+255),f,b
  9945   004010                     l1356:
  9946                           
  9947                           ; BSR set to: 0
  9948   004010  5189               	movf	sqrtf@ix& (0+255),w,b
  9949   004012  2789               	addwf	sqrtf@ix& (0+255),f,b
  9950   004014  518A               	movf	(sqrtf@ix+1)& (0+255),w,b
  9951   004016  238A               	addwfc	(sqrtf@ix+1)& (0+255),f,b
  9952   004018  518B               	movf	(sqrtf@ix+2)& (0+255),w,b
  9953   00401A  238B               	addwfc	(sqrtf@ix+2)& (0+255),f,b
  9954   00401C  518C               	movf	(sqrtf@ix+3)& (0+255),w,b
  9955   00401E  238C               	addwfc	(sqrtf@ix+3)& (0+255),f,b
  9956   004020                     
  9957                           ; BSR set to: 0
  9958   004020  90D8               	bcf	status,0,c
  9959   004022  3388               	rrcf	(sqrtf@r+3)& (0+255),f,b
  9960   004024  3387               	rrcf	(sqrtf@r+2)& (0+255),f,b
  9961   004026  3386               	rrcf	(sqrtf@r+1)& (0+255),f,b
  9962   004028  3385               	rrcf	sqrtf@r& (0+255),f,b
  9963   00402A                     l5138:
  9964                           
  9965                           ; BSR set to: 0
  9966   00402A  5185               	movf	sqrtf@r& (0+255),w,b
  9967   00402C  1186               	iorwf	(sqrtf@r+1)& (0+255),w,b
  9968   00402E  1187               	iorwf	(sqrtf@r+2)& (0+255),w,b
  9969   004030  1188               	iorwf	(sqrtf@r+3)& (0+255),w,b
  9970   004032  A4D8               	btfss	status,2,c
  9971   004034  EF1E  F020         	goto	u4831
  9972   004038  EF20  F020         	goto	u4830
  9973   00403C                     u4831:
  9974   00403C  EFCD  F01F         	goto	l5132
  9975   004040                     u4830:
  9976   004040                     
  9977                           ; BSR set to: 0
  9978   004040  5189               	movf	sqrtf@ix& (0+255),w,b
  9979   004042  118A               	iorwf	(sqrtf@ix+1)& (0+255),w,b
  9980   004044  118B               	iorwf	(sqrtf@ix+2)& (0+255),w,b
  9981   004046  118C               	iorwf	(sqrtf@ix+3)& (0+255),w,b
  9982   004048  B4D8               	btfsc	status,2,c
  9983   00404A  EF29  F020         	goto	u4841
  9984   00404E  EF2B  F020         	goto	u4840
  9985   004052                     u4841:
  9986   004052  EF8C  F020         	goto	l1358
  9987   004056                     u4840:
  9988   004056                     
  9989                           ; BSR set to: 0
  9990   004056  0E00               	movlw	0
  9991   004058  6F7D               	movwf	sqrtf@z& (0+255),b
  9992   00405A  0E00               	movlw	0
  9993   00405C  6F7E               	movwf	(sqrtf@z+1)& (0+255),b
  9994   00405E  0E80               	movlw	128
  9995   004060  6F7F               	movwf	(sqrtf@z+2)& (0+255),b
  9996   004062  0E3F               	movlw	63
  9997   004064  6F80               	movwf	(sqrtf@z+3)& (0+255),b
  9998   004066                     
  9999                           ; BSR set to: 0
 10000   004066  C07D  F04E         	movff	sqrtf@z,___flge@ff1
 10001   00406A  C07E  F04F         	movff	sqrtf@z+1,___flge@ff1+1
 10002   00406E  C07F  F050         	movff	sqrtf@z+2,___flge@ff1+2
 10003   004072  C080  F051         	movff	sqrtf@z+3,___flge@ff1+3
 10004   004076  0E00               	movlw	0
 10005   004078  6E52               	movwf	___flge@ff2^0,c
 10006   00407A  0E00               	movlw	0
 10007   00407C  6E53               	movwf	(___flge@ff2+1)^0,c
 10008   00407E  0E80               	movlw	128
 10009   004080  6E54               	movwf	(___flge@ff2+2)^0,c
 10010   004082  0E3F               	movlw	63
 10011   004084  6E55               	movwf	(___flge@ff2+3)^0,c
 10012   004086  ECEB  F02C         	call	___flge	;wreg free
 10013   00408A  A0D8               	btfss	status,0,c
 10014   00408C  EF4A  F020         	goto	u4851
 10015   004090  EF4C  F020         	goto	u4850
 10016   004094                     u4851:
 10017   004094  EF8C  F020         	goto	l1358
 10018   004098                     u4850:
 10019   004098  0E00               	movlw	0
 10020   00409A  0100               	movlb	0	; () banked
 10021   00409C  6F7D               	movwf	sqrtf@z& (0+255),b
 10022   00409E  0E00               	movlw	0
 10023   0040A0  6F7E               	movwf	(sqrtf@z+1)& (0+255),b
 10024   0040A2  0E80               	movlw	128
 10025   0040A4  6F7F               	movwf	(sqrtf@z+2)& (0+255),b
 10026   0040A6  0E3F               	movlw	63
 10027   0040A8  6F80               	movwf	(sqrtf@z+3)& (0+255),b
 10028   0040AA                     
 10029                           ; BSR set to: 0
 10030   0040AA  0E00               	movlw	0
 10031   0040AC  6E4E               	movwf	___flge@ff1^0,c
 10032   0040AE  0E00               	movlw	0
 10033   0040B0  6E4F               	movwf	(___flge@ff1+1)^0,c
 10034   0040B2  0E80               	movlw	128
 10035   0040B4  6E50               	movwf	(___flge@ff1+2)^0,c
 10036   0040B6  0E3F               	movlw	63
 10037   0040B8  6E51               	movwf	(___flge@ff1+3)^0,c
 10038   0040BA  C07D  F052         	movff	sqrtf@z,___flge@ff2
 10039   0040BE  C07E  F053         	movff	sqrtf@z+1,___flge@ff2+1
 10040   0040C2  C07F  F054         	movff	sqrtf@z+2,___flge@ff2+2
 10041   0040C6  C080  F055         	movff	sqrtf@z+3,___flge@ff2+3
 10042   0040CA  ECEB  F02C         	call	___flge	;wreg free
 10043   0040CE  B0D8               	btfsc	status,0,c
 10044   0040D0  EF6C  F020         	goto	u4861
 10045   0040D4  EF6E  F020         	goto	u4860
 10046   0040D8                     u4861:
 10047   0040D8  EF77  F020         	goto	l5152
 10048   0040DC                     u4860:
 10049   0040DC  0E02               	movlw	2
 10050   0040DE  0100               	movlb	0	; () banked
 10051   0040E0  2775               	addwf	sqrtf@q& (0+255),f,b
 10052   0040E2  0E00               	movlw	0
 10053   0040E4  2376               	addwfc	(sqrtf@q+1)& (0+255),f,b
 10054   0040E6  2377               	addwfc	(sqrtf@q+2)& (0+255),f,b
 10055   0040E8  2378               	addwfc	(sqrtf@q+3)& (0+255),f,b
 10056   0040EA  EF8C  F020         	goto	l1358
 10057   0040EE                     l5152:
 10058   0040EE  0E01               	movlw	1
 10059   0040F0  0100               	movlb	0	; () banked
 10060   0040F2  1575               	andwf	sqrtf@q& (0+255),w,b
 10061   0040F4  6F64               	movwf	??_sqrtf& (0+255),b
 10062   0040F6  0E00               	movlw	0
 10063   0040F8  1576               	andwf	(sqrtf@q+1)& (0+255),w,b
 10064   0040FA  6F65               	movwf	(??_sqrtf+1)& (0+255),b
 10065   0040FC  0E00               	movlw	0
 10066   0040FE  1577               	andwf	(sqrtf@q+2)& (0+255),w,b
 10067   004100  6F66               	movwf	(??_sqrtf+2)& (0+255),b
 10068   004102  0E00               	movlw	0
 10069   004104  1578               	andwf	(sqrtf@q+3)& (0+255),w,b
 10070   004106  6F67               	movwf	(??_sqrtf+3)& (0+255),b
 10071   004108  5164               	movf	??_sqrtf& (0+255),w,b
 10072   00410A  2775               	addwf	sqrtf@q& (0+255),f,b
 10073   00410C  5165               	movf	(??_sqrtf+1)& (0+255),w,b
 10074   00410E  2376               	addwfc	(sqrtf@q+1)& (0+255),f,b
 10075   004110  5166               	movf	(??_sqrtf+2)& (0+255),w,b
 10076   004112  2377               	addwfc	(sqrtf@q+2)& (0+255),f,b
 10077   004114  5167               	movf	(??_sqrtf+3)& (0+255),w,b
 10078   004116  2378               	addwfc	(sqrtf@q+3)& (0+255),f,b
 10079   004118                     l1358:
 10080   004118  C075  F064         	movff	sqrtf@q,??_sqrtf
 10081   00411C  C076  F065         	movff	sqrtf@q+1,??_sqrtf+1
 10082   004120  C077  F066         	movff	sqrtf@q+2,??_sqrtf+2
 10083   004124  C078  F067         	movff	sqrtf@q+3,??_sqrtf+3
 10084   004128  0100               	movlb	0	; () banked
 10085   00412A  3567               	rlcf	(??_sqrtf+3)& (0+255),w,b
 10086   00412C  3367               	rrcf	(??_sqrtf+3)& (0+255),f,b
 10087   00412E  3366               	rrcf	(??_sqrtf+2)& (0+255),f,b
 10088   004130  3365               	rrcf	(??_sqrtf+1)& (0+255),f,b
 10089   004132  3364               	rrcf	??_sqrtf& (0+255),f,b
 10090   004134  0E00               	movlw	0
 10091   004136  2564               	addwf	??_sqrtf& (0+255),w,b
 10092   004138  6F89               	movwf	sqrtf@ix& (0+255),b
 10093   00413A  0E00               	movlw	0
 10094   00413C  2165               	addwfc	(??_sqrtf+1)& (0+255),w,b
 10095   00413E  6F8A               	movwf	(sqrtf@ix+1)& (0+255),b
 10096   004140  0E00               	movlw	0
 10097   004142  2166               	addwfc	(??_sqrtf+2)& (0+255),w,b
 10098   004144  6F8B               	movwf	(sqrtf@ix+2)& (0+255),b
 10099   004146  0E3F               	movlw	63
 10100   004148  2167               	addwfc	(??_sqrtf+3)& (0+255),w,b
 10101   00414A  6F8C               	movwf	(sqrtf@ix+3)& (0+255),b
 10102   00414C  C081  F064         	movff	sqrtf@m,??_sqrtf
 10103   004150  C082  F065         	movff	sqrtf@m+1,??_sqrtf+1
 10104   004154  C083  F066         	movff	sqrtf@m+2,??_sqrtf+2
 10105   004158  C084  F067         	movff	sqrtf@m+3,??_sqrtf+3
 10106   00415C  0E17               	movlw	23
 10107   00415E                     u4875:
 10108   00415E  90D8               	bcf	status,0,c
 10109   004160  3764               	rlcf	??_sqrtf& (0+255),f,b
 10110   004162  3765               	rlcf	(??_sqrtf+1)& (0+255),f,b
 10111   004164  3766               	rlcf	(??_sqrtf+2)& (0+255),f,b
 10112   004166  3767               	rlcf	(??_sqrtf+3)& (0+255),f,b
 10113   004168  2EE8               	decfsz	wreg,f,c
 10114   00416A  EFAF  F020         	goto	u4875
 10115   00416E  5164               	movf	??_sqrtf& (0+255),w,b
 10116   004170  2789               	addwf	sqrtf@ix& (0+255),f,b
 10117   004172  5165               	movf	(??_sqrtf+1)& (0+255),w,b
 10118   004174  238A               	addwfc	(sqrtf@ix+1)& (0+255),f,b
 10119   004176  5166               	movf	(??_sqrtf+2)& (0+255),w,b
 10120   004178  238B               	addwfc	(sqrtf@ix+2)& (0+255),f,b
 10121   00417A  5167               	movf	(??_sqrtf+3)& (0+255),w,b
 10122   00417C  238C               	addwfc	(sqrtf@ix+3)& (0+255),f,b
 10123   00417E                     
 10124                           ; BSR set to: 0
 10125   00417E  C089  F071         	movff	sqrtf@ix,sqrtf@__xc8_float_word
 10126   004182  C08A  F072         	movff	sqrtf@ix+1,sqrtf@__xc8_float_word+1
 10127   004186  C08B  F073         	movff	sqrtf@ix+2,sqrtf@__xc8_float_word+2
 10128   00418A  C08C  F074         	movff	sqrtf@ix+3,sqrtf@__xc8_float_word+3
 10129   00418E                     
 10130                           ; BSR set to: 0
 10131   00418E  C071  F07D         	movff	sqrtf@__xc8_float_word,sqrtf@z
 10132   004192  C072  F07E         	movff	sqrtf@__xc8_float_word+1,sqrtf@z+1
 10133   004196  C073  F07F         	movff	sqrtf@__xc8_float_word+2,sqrtf@z+2
 10134   00419A  C074  F080         	movff	sqrtf@__xc8_float_word+3,sqrtf@z+3
 10135   00419E                     
 10136                           ; BSR set to: 0
 10137   00419E  C07D  F060         	movff	sqrtf@z,?_sqrtf
 10138   0041A2  C07E  F061         	movff	sqrtf@z+1,?_sqrtf+1
 10139   0041A6  C07F  F062         	movff	sqrtf@z+2,?_sqrtf+2
 10140   0041AA  C080  F063         	movff	sqrtf@z+3,?_sqrtf+3
 10141   0041AE                     l1345:
 10142   0041AE  0012               	return		;funcret
 10143   0041B0                     __end_of_sqrtf:
 10144                           	callstack 0
 10145                           
 10146 ;; *************** function _nanf *****************
 10147 ;; Defined at:
 10148 ;;		line 4 in file "C:\Program Files\Microchip\xc8\v2.41\pic\sources\c99\common\nanf.c"
 10149 ;; Parameters:    Size  Location     Type
 10150 ;;  s               2    2[COMRAM] PTR const unsigned char 
 10151 ;;		 -> STR_1(1), 
 10152 ;; Auto vars:     Size  Location     Type
 10153 ;;  u               4    6[COMRAM] struct .
 10154 ;; Return value:  Size  Location     Type
 10155 ;;                  4    2[COMRAM] float 
 10156 ;; Registers used:
 10157 ;;		wreg, status,2
 10158 ;; Tracked objects:
 10159 ;;		On entry : 0/0
 10160 ;;		On exit  : 0/0
 10161 ;;		Unchanged: 0/0
 10162 ;; Data sizes:     COMRAM   BANK0   BANK1   BANK2   BANK3   BANK4   BANK5   BANK6   BANK7   BANK8   BANK9  BANK10  BANK1
      +1  BANK12  BANK13  BANK14  BANK15
 10163 ;;      Params:         4       0       0       0       0       0       0       0       0       0       0       0       
      +0       0       0       0       0
 10164 ;;      Locals:         4       0       0       0       0       0       0       0       0       0       0       0       
      +0       0       0       0       0
 10165 ;;      Temps:          0       0       0       0       0       0       0       0       0       0       0       0       
      +0       0       0       0       0
 10166 ;;      Totals:         8       0       0       0       0       0       0       0       0       0       0       0       
      +0       0       0       0       0
 10167 ;;Total ram usage:        8 bytes
 10168 ;; Hardware stack levels used: 1
 10169 ;; Hardware stack levels required when called: 3
 10170 ;; This function calls:
 10171 ;;		Nothing
 10172 ;; This function is called by:
 10173 ;;		_sqrtf
 10174 ;; This function uses a non-reentrant model
 10175 ;;
 10176                           
 10177                           	psect	text26
 10178   006158                     __ptext26:
 10179                           	callstack 0
 10180   006158                     _nanf:
 10181                           	callstack 25
 10182   006158  0EFF               	movlw	255
 10183   00615A  6E07               	movwf	nanf@u^0,c
 10184   00615C  0EFF               	movlw	255
 10185   00615E  6E08               	movwf	(nanf@u+1)^0,c
 10186   006160  0EFF               	movlw	255
 10187   006162  6E09               	movwf	(nanf@u+2)^0,c
 10188   006164  0E7F               	movlw	127
 10189   006166  6E0A               	movwf	(nanf@u+3)^0,c
 10190   006168  C007  F003         	movff	nanf@u,?_nanf
 10191   00616C  C008  F004         	movff	nanf@u+1,?_nanf+1
 10192   006170  C009  F005         	movff	nanf@u+2,?_nanf+2
 10193   006174  C00A  F006         	movff	nanf@u+3,?_nanf+3
 10194   006178  0012               	return		;funcret
 10195   00617A                     __end_of_nanf:
 10196                           	callstack 0
 10197                           
 10198 ;; *************** function ___flge *****************
 10199 ;; Defined at:
 10200 ;;		line 4 in file "C:\Program Files\Microchip\xc8\v2.41\pic\sources\c99\common\flge.c"
 10201 ;; Parameters:    Size  Location     Type
 10202 ;;  ff1             4   77[COMRAM] float 
 10203 ;;  ff2             4   81[COMRAM] float 
 10204 ;; Auto vars:     Size  Location     Type
 10205 ;;		None
 10206 ;; Return value:  Size  Location     Type
 10207 ;;		None               void
 10208 ;; Registers used:
 10209 ;;		wreg, status,2, status,0
 10210 ;; Tracked objects:
 10211 ;;		On entry : 0/0
 10212 ;;		On exit  : 0/0
 10213 ;;		Unchanged: 0/0
 10214 ;; Data sizes:     COMRAM   BANK0   BANK1   BANK2   BANK3   BANK4   BANK5   BANK6   BANK7   BANK8   BANK9  BANK10  BANK1
      +1  BANK12  BANK13  BANK14  BANK15
 10215 ;;      Params:         8       0       0       0       0       0       0       0       0       0       0       0       
      +0       0       0       0       0
 10216 ;;      Locals:         0       0       0       0       0       0       0       0       0       0       0       0       
      +0       0       0       0       0
 10217 ;;      Temps:          4       0       0       0       0       0       0       0       0       0       0       0       
      +0       0       0       0       0
 10218 ;;      Totals:        12       0       0       0       0       0       0       0       0       0       0       0       
      +0       0       0       0       0
 10219 ;;Total ram usage:       12 bytes
 10220 ;; Hardware stack levels used: 1
 10221 ;; Hardware stack levels required when called: 3
 10222 ;; This function calls:
 10223 ;;		Nothing
 10224 ;; This function is called by:
 10225 ;;		_powf
 10226 ;;		_sqrtf
 10227 ;; This function uses a non-reentrant model
 10228 ;;
 10229                           
 10230                           	psect	text27
 10231   0059D6                     __ptext27:
 10232                           	callstack 0
 10233   0059D6                     ___flge:
 10234                           	callstack 25
 10235   0059D6  0E00               	movlw	0
 10236   0059D8  144E               	andwf	___flge@ff1^0,w,c
 10237   0059DA  6E56               	movwf	??___flge^0,c
 10238   0059DC  0E00               	movlw	0
 10239   0059DE  144F               	andwf	(___flge@ff1+1)^0,w,c
 10240   0059E0  6E57               	movwf	(??___flge+1)^0,c
 10241   0059E2  0E80               	movlw	128
 10242   0059E4  1450               	andwf	(___flge@ff1+2)^0,w,c
 10243   0059E6  6E58               	movwf	(??___flge+2)^0,c
 10244   0059E8  0E7F               	movlw	127
 10245   0059EA  1451               	andwf	(___flge@ff1+3)^0,w,c
 10246   0059EC  6E59               	movwf	(??___flge+3)^0,c
 10247   0059EE  5056               	movf	??___flge^0,w,c
 10248   0059F0  1057               	iorwf	(??___flge+1)^0,w,c
 10249   0059F2  1058               	iorwf	(??___flge+2)^0,w,c
 10250   0059F4  1059               	iorwf	(??___flge+3)^0,w,c
 10251   0059F6  A4D8               	btfss	status,2,c
 10252   0059F8  EF00  F02D         	goto	u3181
 10253   0059FC  EF02  F02D         	goto	u3180
 10254   005A00                     u3181:
 10255   005A00  EF0A  F02D         	goto	l3708
 10256   005A04                     u3180:
 10257   005A04  0E00               	movlw	0
 10258   005A06  6E4E               	movwf	___flge@ff1^0,c
 10259   005A08  0E00               	movlw	0
 10260   005A0A  6E4F               	movwf	(___flge@ff1+1)^0,c
 10261   005A0C  0E00               	movlw	0
 10262   005A0E  6E50               	movwf	(___flge@ff1+2)^0,c
 10263   005A10  0E00               	movlw	0
 10264   005A12  6E51               	movwf	(___flge@ff1+3)^0,c
 10265   005A14                     l3708:
 10266   005A14  0E00               	movlw	0
 10267   005A16  1452               	andwf	___flge@ff2^0,w,c
 10268   005A18  6E56               	movwf	??___flge^0,c
 10269   005A1A  0E00               	movlw	0
 10270   005A1C  1453               	andwf	(___flge@ff2+1)^0,w,c
 10271   005A1E  6E57               	movwf	(??___flge+1)^0,c
 10272   005A20  0E80               	movlw	128
 10273   005A22  1454               	andwf	(___flge@ff2+2)^0,w,c
 10274   005A24  6E58               	movwf	(??___flge+2)^0,c
 10275   005A26  0E7F               	movlw	127
 10276   005A28  1455               	andwf	(___flge@ff2+3)^0,w,c
 10277   005A2A  6E59               	movwf	(??___flge+3)^0,c
 10278   005A2C  5056               	movf	??___flge^0,w,c
 10279   005A2E  1057               	iorwf	(??___flge+1)^0,w,c
 10280   005A30  1058               	iorwf	(??___flge+2)^0,w,c
 10281   005A32  1059               	iorwf	(??___flge+3)^0,w,c
 10282   005A34  A4D8               	btfss	status,2,c
 10283   005A36  EF1F  F02D         	goto	u3191
 10284   005A3A  EF21  F02D         	goto	u3190
 10285   005A3E                     u3191:
 10286   005A3E  EF29  F02D         	goto	l3712
 10287   005A42                     u3190:
 10288   005A42  0E00               	movlw	0
 10289   005A44  6E52               	movwf	___flge@ff2^0,c
 10290   005A46  0E00               	movlw	0
 10291   005A48  6E53               	movwf	(___flge@ff2+1)^0,c
 10292   005A4A  0E00               	movlw	0
 10293   005A4C  6E54               	movwf	(___flge@ff2+2)^0,c
 10294   005A4E  0E00               	movlw	0
 10295   005A50  6E55               	movwf	(___flge@ff2+3)^0,c
 10296   005A52                     l3712:
 10297   005A52  AE51               	btfss	(___flge@ff1+3)^0,7,c
 10298   005A54  EF2E  F02D         	goto	u3201
 10299   005A58  EF30  F02D         	goto	u3200
 10300   005A5C                     u3201:
 10301   005A5C  EF39  F02D         	goto	l3716
 10302   005A60                     u3200:
 10303   005A60  6C4E               	negf	___flge@ff1^0,c
 10304   005A62  1E4F               	comf	(___flge@ff1+1)^0,f,c
 10305   005A64  B0D8               	btfsc	status,0,c
 10306   005A66  2A4F               	incf	(___flge@ff1+1)^0,f,c
 10307   005A68  1E50               	comf	(___flge@ff1+2)^0,f,c
 10308   005A6A  B0D8               	btfsc	status,0,c
 10309   005A6C  2A50               	incf	(___flge@ff1+2)^0,f,c
 10310   005A6E  0E80               	movlw	128
 10311   005A70  5651               	subfwb	(___flge@ff1+3)^0,f,c
 10312   005A72                     l3716:
 10313   005A72  AE55               	btfss	(___flge@ff2+3)^0,7,c
 10314   005A74  EF3E  F02D         	goto	u3211
 10315   005A78  EF40  F02D         	goto	u3210
 10316   005A7C                     u3211:
 10317   005A7C  EF49  F02D         	goto	l694
 10318   005A80                     u3210:
 10319   005A80  6C52               	negf	___flge@ff2^0,c
 10320   005A82  1E53               	comf	(___flge@ff2+1)^0,f,c
 10321   005A84  B0D8               	btfsc	status,0,c
 10322   005A86  2A53               	incf	(___flge@ff2+1)^0,f,c
 10323   005A88  1E54               	comf	(___flge@ff2+2)^0,f,c
 10324   005A8A  B0D8               	btfsc	status,0,c
 10325   005A8C  2A54               	incf	(___flge@ff2+2)^0,f,c
 10326   005A8E  0E80               	movlw	128
 10327   005A90  5655               	subfwb	(___flge@ff2+3)^0,f,c
 10328   005A92                     l694:
 10329   005A92  0E00               	movlw	0
 10330   005A94  1A4E               	xorwf	___flge@ff1^0,f,c
 10331   005A96  0E00               	movlw	0
 10332   005A98  1A4F               	xorwf	(___flge@ff1+1)^0,f,c
 10333   005A9A  0E00               	movlw	0
 10334   005A9C  1A50               	xorwf	(___flge@ff1+2)^0,f,c
 10335   005A9E  0E80               	movlw	128
 10336   005AA0  1A51               	xorwf	(___flge@ff1+3)^0,f,c
 10337   005AA2  0E00               	movlw	0
 10338   005AA4  1A52               	xorwf	___flge@ff2^0,f,c
 10339   005AA6  0E00               	movlw	0
 10340   005AA8  1A53               	xorwf	(___flge@ff2+1)^0,f,c
 10341   005AAA  0E00               	movlw	0
 10342   005AAC  1A54               	xorwf	(___flge@ff2+2)^0,f,c
 10343   005AAE  0E80               	movlw	128
 10344   005AB0  1A55               	xorwf	(___flge@ff2+3)^0,f,c
 10345   005AB2  5052               	movf	___flge@ff2^0,w,c
 10346   005AB4  5C4E               	subwf	___flge@ff1^0,w,c
 10347   005AB6  5053               	movf	(___flge@ff2+1)^0,w,c
 10348   005AB8  584F               	subwfb	(___flge@ff1+1)^0,w,c
 10349   005ABA  5054               	movf	(___flge@ff2+2)^0,w,c
 10350   005ABC  5850               	subwfb	(___flge@ff1+2)^0,w,c
 10351   005ABE  5055               	movf	(___flge@ff2+3)^0,w,c
 10352   005AC0  5851               	subwfb	(___flge@ff1+3)^0,w,c
 10353   005AC2  B0D8               	btfsc	status,0,c
 10354   005AC4  EF66  F02D         	goto	u3221
 10355   005AC8  EF68  F02D         	goto	u3220
 10356   005ACC                     u3221:
 10357   005ACC  EF6B  F02D         	goto	l3722
 10358   005AD0                     u3220:
 10359   005AD0  90D8               	bcf	status,0,c
 10360   005AD2  EF6C  F02D         	goto	l699
 10361   005AD6                     l3722:
 10362   005AD6  80D8               	bsf	status,0,c
 10363   005AD8                     l699:
 10364   005AD8  0012               	return		;funcret
 10365   005ADA                     __end_of___flge:
 10366                           	callstack 0
 10367                           
 10368 ;; *************** function _scalbnf *****************
 10369 ;; Defined at:
 10370 ;;		line 4 in file "C:\Program Files\Microchip\xc8\v2.41\pic\sources\c99\common\scalbnf.c"
 10371 ;; Parameters:    Size  Location     Type
 10372 ;;  x               4   43[COMRAM] float 
 10373 ;;  n               2   47[COMRAM] int 
 10374 ;; Auto vars:     Size  Location     Type
 10375 ;;  y               4   57[COMRAM] float 
 10376 ;;  u               4   53[COMRAM] struct .
 10377 ;; Return value:  Size  Location     Type
 10378 ;;                  4   43[COMRAM] float 
 10379 ;; Registers used:
 10380 ;;		wreg, status,2, status,0, prodl, prodh, cstack
 10381 ;; Tracked objects:
 10382 ;;		On entry : 0/0
 10383 ;;		On exit  : 0/0
 10384 ;;		Unchanged: 0/0
 10385 ;; Data sizes:     COMRAM   BANK0   BANK1   BANK2   BANK3   BANK4   BANK5   BANK6   BANK7   BANK8   BANK9  BANK10  BANK1
      +1  BANK12  BANK13  BANK14  BANK15
 10386 ;;      Params:         6       0       0       0       0       0       0       0       0       0       0       0       
      +0       0       0       0       0
 10387 ;;      Locals:         8       0       0       0       0       0       0       0       0       0       0       0       
      +0       0       0       0       0
 10388 ;;      Temps:          4       0       0       0       0       0       0       0       0       0       0       0       
      +0       0       0       0       0
 10389 ;;      Totals:        18       0       0       0       0       0       0       0       0       0       0       0       
      +0       0       0       0       0
 10390 ;;Total ram usage:       18 bytes
 10391 ;; Hardware stack levels used: 1
 10392 ;; Hardware stack levels required when called: 4
 10393 ;; This function calls:
 10394 ;;		___flmul
 10395 ;; This function is called by:
 10396 ;;		_expf
 10397 ;;		_powf
 10398 ;; This function uses a non-reentrant model
 10399 ;;
 10400                           
 10401                           	psect	text28
 10402   004E5A                     __ptext28:
 10403                           	callstack 0
 10404   004E5A                     _scalbnf:
 10405                           	callstack 25
 10406   004E5A  C02C  F03A         	movff	scalbnf@x,scalbnf@y
 10407   004E5E  C02D  F03B         	movff	scalbnf@x+1,scalbnf@y+1
 10408   004E62  C02E  F03C         	movff	scalbnf@x+2,scalbnf@y+2
 10409   004E66  C02F  F03D         	movff	scalbnf@x+3,scalbnf@y+3
 10410   004E6A  BE31               	btfsc	(scalbnf@n+1)^0,7,c
 10411   004E6C  EF41  F027         	goto	u3441
 10412   004E70  5031               	movf	(scalbnf@n+1)^0,w,c
 10413   004E72  E109               	bnz	u3440
 10414   004E74  0E80               	movlw	128
 10415   004E76  5C30               	subwf	scalbnf@n^0,w,c
 10416   004E78  A0D8               	btfss	status,0,c
 10417   004E7A  EF41  F027         	goto	u3441
 10418   004E7E  EF43  F027         	goto	u3440
 10419   004E82                     u3441:
 10420   004E82  EFA1  F027         	goto	l3902
 10421   004E86                     u3440:
 10422   004E86  C03A  F013         	movff	scalbnf@y,___flmul@b
 10423   004E8A  C03B  F014         	movff	scalbnf@y+1,___flmul@b+1
 10424   004E8E  C03C  F015         	movff	scalbnf@y+2,___flmul@b+2
 10425   004E92  C03D  F016         	movff	scalbnf@y+3,___flmul@b+3
 10426   004E96  0E00               	movlw	0
 10427   004E98  6E17               	movwf	___flmul@a^0,c
 10428   004E9A  0E00               	movlw	0
 10429   004E9C  6E18               	movwf	(___flmul@a+1)^0,c
 10430   004E9E  0E00               	movlw	0
 10431   004EA0  6E19               	movwf	(___flmul@a+2)^0,c
 10432   004EA2  0E7F               	movlw	127
 10433   004EA4  6E1A               	movwf	(___flmul@a+3)^0,c
 10434   004EA6  EC38  F023         	call	___flmul	;wreg free
 10435   004EAA  C013  F03A         	movff	?___flmul,scalbnf@y
 10436   004EAE  C014  F03B         	movff	?___flmul+1,scalbnf@y+1
 10437   004EB2  C015  F03C         	movff	?___flmul+2,scalbnf@y+2
 10438   004EB6  C016  F03D         	movff	?___flmul+3,scalbnf@y+3
 10439   004EBA  0E81               	movlw	129
 10440   004EBC  2630               	addwf	scalbnf@n^0,f,c
 10441   004EBE  0EFF               	movlw	255
 10442   004EC0  2231               	addwfc	(scalbnf@n+1)^0,f,c
 10443   004EC2  BE31               	btfsc	(scalbnf@n+1)^0,7,c
 10444   004EC4  EF6D  F027         	goto	u3451
 10445   004EC8  5031               	movf	(scalbnf@n+1)^0,w,c
 10446   004ECA  E109               	bnz	u3450
 10447   004ECC  0E80               	movlw	128
 10448   004ECE  5C30               	subwf	scalbnf@n^0,w,c
 10449   004ED0  A0D8               	btfss	status,0,c
 10450   004ED2  EF6D  F027         	goto	u3451
 10451   004ED6  EF6F  F027         	goto	u3450
 10452   004EDA                     u3451:
 10453   004EDA  EF0B  F028         	goto	l3918
 10454   004EDE                     u3450:
 10455   004EDE  C03A  F013         	movff	scalbnf@y,___flmul@b
 10456   004EE2  C03B  F014         	movff	scalbnf@y+1,___flmul@b+1
 10457   004EE6  C03C  F015         	movff	scalbnf@y+2,___flmul@b+2
 10458   004EEA  C03D  F016         	movff	scalbnf@y+3,___flmul@b+3
 10459   004EEE  0E00               	movlw	0
 10460   004EF0  6E17               	movwf	___flmul@a^0,c
 10461   004EF2  0E00               	movlw	0
 10462   004EF4  6E18               	movwf	(___flmul@a+1)^0,c
 10463   004EF6  0E00               	movlw	0
 10464   004EF8  6E19               	movwf	(___flmul@a+2)^0,c
 10465   004EFA  0E7F               	movlw	127
 10466   004EFC  6E1A               	movwf	(___flmul@a+3)^0,c
 10467   004EFE  EC38  F023         	call	___flmul	;wreg free
 10468   004F02  C013  F03A         	movff	?___flmul,scalbnf@y
 10469   004F06  C014  F03B         	movff	?___flmul+1,scalbnf@y+1
 10470   004F0A  C015  F03C         	movff	?___flmul+2,scalbnf@y+2
 10471   004F0E  C016  F03D         	movff	?___flmul+3,scalbnf@y+3
 10472   004F12  0E81               	movlw	129
 10473   004F14  2630               	addwf	scalbnf@n^0,f,c
 10474   004F16  0EFF               	movlw	255
 10475   004F18  2231               	addwfc	(scalbnf@n+1)^0,f,c
 10476   004F1A  BE31               	btfsc	(scalbnf@n+1)^0,7,c
 10477   004F1C  EF99  F027         	goto	u3461
 10478   004F20  5031               	movf	(scalbnf@n+1)^0,w,c
 10479   004F22  E109               	bnz	u3460
 10480   004F24  0E80               	movlw	128
 10481   004F26  5C30               	subwf	scalbnf@n^0,w,c
 10482   004F28  A0D8               	btfss	status,0,c
 10483   004F2A  EF99  F027         	goto	u3461
 10484   004F2E  EF9B  F027         	goto	u3460
 10485   004F32                     u3461:
 10486   004F32  EF0B  F028         	goto	l3918
 10487   004F36                     u3460:
 10488   004F36  0E00               	movlw	0
 10489   004F38  6E31               	movwf	(scalbnf@n+1)^0,c
 10490   004F3A  0E7F               	movlw	127
 10491   004F3C  6E30               	movwf	scalbnf@n^0,c
 10492   004F3E  EF0B  F028         	goto	l3918
 10493   004F42                     l3902:
 10494   004F42  AE31               	btfss	(scalbnf@n+1)^0,7,c
 10495   004F44  EFAD  F027         	goto	u3471
 10496   004F48  0E82               	movlw	130
 10497   004F4A  5C30               	subwf	scalbnf@n^0,w,c
 10498   004F4C  0EFF               	movlw	255
 10499   004F4E  5831               	subwfb	(scalbnf@n+1)^0,w,c
 10500   004F50  B0D8               	btfsc	status,0,c
 10501   004F52  EFAD  F027         	goto	u3471
 10502   004F56  EFAF  F027         	goto	u3470
 10503   004F5A                     u3471:
 10504   004F5A  EF0B  F028         	goto	l3918
 10505   004F5E                     u3470:
 10506   004F5E  C03A  F013         	movff	scalbnf@y,___flmul@b
 10507   004F62  C03B  F014         	movff	scalbnf@y+1,___flmul@b+1
 10508   004F66  C03C  F015         	movff	scalbnf@y+2,___flmul@b+2
 10509   004F6A  C03D  F016         	movff	scalbnf@y+3,___flmul@b+3
 10510   004F6E  0E00               	movlw	0
 10511   004F70  6E17               	movwf	___flmul@a^0,c
 10512   004F72  0E00               	movlw	0
 10513   004F74  6E18               	movwf	(___flmul@a+1)^0,c
 10514   004F76  0E80               	movlw	128
 10515   004F78  6E19               	movwf	(___flmul@a+2)^0,c
 10516   004F7A  0E0C               	movlw	12
 10517   004F7C  6E1A               	movwf	(___flmul@a+3)^0,c
 10518   004F7E  EC38  F023         	call	___flmul	;wreg free
 10519   004F82  C013  F03A         	movff	?___flmul,scalbnf@y
 10520   004F86  C014  F03B         	movff	?___flmul+1,scalbnf@y+1
 10521   004F8A  C015  F03C         	movff	?___flmul+2,scalbnf@y+2
 10522   004F8E  C016  F03D         	movff	?___flmul+3,scalbnf@y+3
 10523   004F92  0E66               	movlw	102
 10524   004F94  2630               	addwf	scalbnf@n^0,f,c
 10525   004F96  0E00               	movlw	0
 10526   004F98  2231               	addwfc	(scalbnf@n+1)^0,f,c
 10527   004F9A  AE31               	btfss	(scalbnf@n+1)^0,7,c
 10528   004F9C  EFD9  F027         	goto	u3481
 10529   004FA0  0E82               	movlw	130
 10530   004FA2  5C30               	subwf	scalbnf@n^0,w,c
 10531   004FA4  0EFF               	movlw	255
 10532   004FA6  5831               	subwfb	(scalbnf@n+1)^0,w,c
 10533   004FA8  B0D8               	btfsc	status,0,c
 10534   004FAA  EFD9  F027         	goto	u3481
 10535   004FAE  EFDB  F027         	goto	u3480
 10536   004FB2                     u3481:
 10537   004FB2  EF0B  F028         	goto	l3918
 10538   004FB6                     u3480:
 10539   004FB6  C03A  F013         	movff	scalbnf@y,___flmul@b
 10540   004FBA  C03B  F014         	movff	scalbnf@y+1,___flmul@b+1
 10541   004FBE  C03C  F015         	movff	scalbnf@y+2,___flmul@b+2
 10542   004FC2  C03D  F016         	movff	scalbnf@y+3,___flmul@b+3
 10543   004FC6  0E00               	movlw	0
 10544   004FC8  6E17               	movwf	___flmul@a^0,c
 10545   004FCA  0E00               	movlw	0
 10546   004FCC  6E18               	movwf	(___flmul@a+1)^0,c
 10547   004FCE  0E80               	movlw	128
 10548   004FD0  6E19               	movwf	(___flmul@a+2)^0,c
 10549   004FD2  0E0C               	movlw	12
 10550   004FD4  6E1A               	movwf	(___flmul@a+3)^0,c
 10551   004FD6  EC38  F023         	call	___flmul	;wreg free
 10552   004FDA  C013  F03A         	movff	?___flmul,scalbnf@y
 10553   004FDE  C014  F03B         	movff	?___flmul+1,scalbnf@y+1
 10554   004FE2  C015  F03C         	movff	?___flmul+2,scalbnf@y+2
 10555   004FE6  C016  F03D         	movff	?___flmul+3,scalbnf@y+3
 10556   004FEA  0E66               	movlw	102
 10557   004FEC  2630               	addwf	scalbnf@n^0,f,c
 10558   004FEE  0E00               	movlw	0
 10559   004FF0  2231               	addwfc	(scalbnf@n+1)^0,f,c
 10560   004FF2  AE31               	btfss	(scalbnf@n+1)^0,7,c
 10561   004FF4  EF05  F028         	goto	u3491
 10562   004FF8  0E82               	movlw	130
 10563   004FFA  5C30               	subwf	scalbnf@n^0,w,c
 10564   004FFC  0EFF               	movlw	255
 10565   004FFE  5831               	subwfb	(scalbnf@n+1)^0,w,c
 10566   005000  B0D8               	btfsc	status,0,c
 10567   005002  EF05  F028         	goto	u3491
 10568   005006  EF07  F028         	goto	u3490
 10569   00500A                     u3491:
 10570   00500A  EF0B  F028         	goto	l3918
 10571   00500E                     u3490:
 10572   00500E  0EFF               	movlw	255
 10573   005010  6E31               	movwf	(scalbnf@n+1)^0,c
 10574   005012  0E82               	movlw	130
 10575   005014  6E30               	movwf	scalbnf@n^0,c
 10576   005016                     l3918:
 10577   005016  0E7F               	movlw	127
 10578   005018  2430               	addwf	scalbnf@n^0,w,c
 10579   00501A  6E32               	movwf	??_scalbnf^0,c
 10580   00501C  0E00               	movlw	0
 10581   00501E  2031               	addwfc	(scalbnf@n+1)^0,w,c
 10582   005020  6E33               	movwf	(??_scalbnf+1)^0,c
 10583   005022  6A34               	clrf	(??_scalbnf+2)^0,c
 10584   005024  6A35               	clrf	(??_scalbnf+3)^0,c
 10585   005026  0E17               	movlw	23
 10586   005028                     u3505:
 10587   005028  90D8               	bcf	status,0,c
 10588   00502A  3632               	rlcf	??_scalbnf^0,f,c
 10589   00502C  3633               	rlcf	(??_scalbnf+1)^0,f,c
 10590   00502E  3634               	rlcf	(??_scalbnf+2)^0,f,c
 10591   005030  3635               	rlcf	(??_scalbnf+3)^0,f,c
 10592   005032  2EE8               	decfsz	wreg,f,c
 10593   005034  EF14  F028         	goto	u3505
 10594   005038  C032  F036         	movff	??_scalbnf,scalbnf@u
 10595   00503C  C033  F037         	movff	??_scalbnf+1,scalbnf@u+1
 10596   005040  C034  F038         	movff	??_scalbnf+2,scalbnf@u+2
 10597   005044  C035  F039         	movff	??_scalbnf+3,scalbnf@u+3
 10598   005048  C036  F013         	movff	scalbnf@u,___flmul@b
 10599   00504C  C037  F014         	movff	scalbnf@u+1,___flmul@b+1
 10600   005050  C038  F015         	movff	scalbnf@u+2,___flmul@b+2
 10601   005054  C039  F016         	movff	scalbnf@u+3,___flmul@b+3
 10602   005058  C03A  F017         	movff	scalbnf@y,___flmul@a
 10603   00505C  C03B  F018         	movff	scalbnf@y+1,___flmul@a+1
 10604   005060  C03C  F019         	movff	scalbnf@y+2,___flmul@a+2
 10605   005064  C03D  F01A         	movff	scalbnf@y+3,___flmul@a+3
 10606   005068  EC38  F023         	call	___flmul	;wreg free
 10607   00506C  C013  F02C         	movff	?___flmul,scalbnf@x
 10608   005070  C014  F02D         	movff	?___flmul+1,scalbnf@x+1
 10609   005074  C015  F02E         	movff	?___flmul+2,scalbnf@x+2
 10610   005078  C016  F02F         	movff	?___flmul+3,scalbnf@x+3
 10611   00507C  C02C  F02C         	movff	scalbnf@x,?_scalbnf
 10612   005080  C02D  F02D         	movff	scalbnf@x+1,?_scalbnf+1
 10613   005084  C02E  F02E         	movff	scalbnf@x+2,?_scalbnf+2
 10614   005088  C02F  F02F         	movff	scalbnf@x+3,?_scalbnf+3
 10615   00508C  0012               	return		;funcret
 10616   00508E                     __end_of_scalbnf:
 10617                           	callstack 0
 10618                           
 10619 ;; *************** function _fabsf *****************
 10620 ;; Defined at:
 10621 ;;		line 4 in file "C:\Program Files\Microchip\xc8\v2.41\pic\sources\c99\common\fabsf.c"
 10622 ;; Parameters:    Size  Location     Type
 10623 ;;  x               4    2[COMRAM] float 
 10624 ;; Auto vars:     Size  Location     Type
 10625 ;;  u               4    6[COMRAM] struct .
 10626 ;; Return value:  Size  Location     Type
 10627 ;;                  4    2[COMRAM] float 
 10628 ;; Registers used:
 10629 ;;		status,2, status,0
 10630 ;; Tracked objects:
 10631 ;;		On entry : 0/0
 10632 ;;		On exit  : 0/0
 10633 ;;		Unchanged: 0/0
 10634 ;; Data sizes:     COMRAM   BANK0   BANK1   BANK2   BANK3   BANK4   BANK5   BANK6   BANK7   BANK8   BANK9  BANK10  BANK1
      +1  BANK12  BANK13  BANK14  BANK15
 10635 ;;      Params:         4       0       0       0       0       0       0       0       0       0       0       0       
      +0       0       0       0       0
 10636 ;;      Locals:         4       0       0       0       0       0       0       0       0       0       0       0       
      +0       0       0       0       0
 10637 ;;      Temps:          0       0       0       0       0       0       0       0       0       0       0       0       
      +0       0       0       0       0
 10638 ;;      Totals:         8       0       0       0       0       0       0       0       0       0       0       0       
      +0       0       0       0       0
 10639 ;;Total ram usage:        8 bytes
 10640 ;; Hardware stack levels used: 1
 10641 ;; Hardware stack levels required when called: 3
 10642 ;; This function calls:
 10643 ;;		Nothing
 10644 ;; This function is called by:
 10645 ;;		_powf
 10646 ;; This function uses a non-reentrant model
 10647 ;;
 10648                           
 10649                           	psect	text29
 10650   006020                     __ptext29:
 10651                           	callstack 0
 10652   006020                     _fabsf:
 10653                           	callstack 26
 10654   006020  C0F7  F007         	movff	fabsf@F465,fabsf@u
 10655   006024  C0F8  F008         	movff	fabsf@F465+1,fabsf@u+1
 10656   006028  C0F9  F009         	movff	fabsf@F465+2,fabsf@u+2
 10657   00602C  C0FA  F00A         	movff	fabsf@F465+3,fabsf@u+3
 10658   006030  C003  F007         	movff	fabsf@x,fabsf@u
 10659   006034  C004  F008         	movff	fabsf@x+1,fabsf@u+1
 10660   006038  C005  F009         	movff	fabsf@x+2,fabsf@u+2
 10661   00603C  C006  F00A         	movff	fabsf@x+3,fabsf@u+3
 10662   006040  9E0A               	bcf	(fabsf@u+3)^0,7,c
 10663   006042  C007  F003         	movff	fabsf@u,?_fabsf
 10664   006046  C008  F004         	movff	fabsf@u+1,?_fabsf+1
 10665   00604A  C009  F005         	movff	fabsf@u+2,?_fabsf+2
 10666   00604E  C00A  F006         	movff	fabsf@u+3,?_fabsf+3
 10667   006052  0012               	return		;funcret
 10668   006054                     __end_of_fabsf:
 10669                           	callstack 0
 10670                           
 10671 ;; *************** function ___flneg *****************
 10672 ;; Defined at:
 10673 ;;		line 15 in file "C:\Program Files\Microchip\xc8\v2.41\pic\sources\c99\common\flneg.c"
 10674 ;; Parameters:    Size  Location     Type
 10675 ;;  f1              4    2[COMRAM] float 
 10676 ;; Auto vars:     Size  Location     Type
 10677 ;;		None
 10678 ;; Return value:  Size  Location     Type
 10679 ;;                  4    2[COMRAM] float 
 10680 ;; Registers used:
 10681 ;;		wreg, status,2, status,0
 10682 ;; Tracked objects:
 10683 ;;		On entry : 0/0
 10684 ;;		On exit  : 0/0
 10685 ;;		Unchanged: 0/0
 10686 ;; Data sizes:     COMRAM   BANK0   BANK1   BANK2   BANK3   BANK4   BANK5   BANK6   BANK7   BANK8   BANK9  BANK10  BANK1
      +1  BANK12  BANK13  BANK14  BANK15
 10687 ;;      Params:         4       0       0       0       0       0       0       0       0       0       0       0       
      +0       0       0       0       0
 10688 ;;      Locals:         0       0       0       0       0       0       0       0       0       0       0       0       
      +0       0       0       0       0
 10689 ;;      Temps:          0       0       0       0       0       0       0       0       0       0       0       0       
      +0       0       0       0       0
 10690 ;;      Totals:         4       0       0       0       0       0       0       0       0       0       0       0       
      +0       0       0       0       0
 10691 ;;Total ram usage:        4 bytes
 10692 ;; Hardware stack levels used: 1
 10693 ;; Hardware stack levels required when called: 3
 10694 ;; This function calls:
 10695 ;;		Nothing
 10696 ;; This function is called by:
 10697 ;;		_powf
 10698 ;; This function uses a non-reentrant model
 10699 ;;
 10700                           
 10701                           	psect	text30
 10702   005FE8                     __ptext30:
 10703                           	callstack 0
 10704   005FE8                     ___flneg:
 10705                           	callstack 26
 10706   005FE8  5003               	movf	___flneg@f1^0,w,c
 10707   005FEA  1004               	iorwf	(___flneg@f1+1)^0,w,c
 10708   005FEC  1005               	iorwf	(___flneg@f1+2)^0,w,c
 10709   005FEE  1006               	iorwf	(___flneg@f1+3)^0,w,c
 10710   005FF0  B4D8               	btfsc	status,2,c
 10711   005FF2  EFFD  F02F         	goto	u3431
 10712   005FF6  EFFF  F02F         	goto	u3430
 10713   005FFA                     u3431:
 10714   005FFA  EF07  F030         	goto	l3880
 10715   005FFE                     u3430:
 10716   005FFE  0E00               	movlw	0
 10717   006000  1A03               	xorwf	___flneg@f1^0,f,c
 10718   006002  0E00               	movlw	0
 10719   006004  1A04               	xorwf	(___flneg@f1+1)^0,f,c
 10720   006006  0E00               	movlw	0
 10721   006008  1A05               	xorwf	(___flneg@f1+2)^0,f,c
 10722   00600A  0E80               	movlw	128
 10723   00600C  1A06               	xorwf	(___flneg@f1+3)^0,f,c
 10724   00600E                     l3880:
 10725   00600E  C003  F003         	movff	___flneg@f1,?___flneg
 10726   006012  C004  F004         	movff	___flneg@f1+1,?___flneg+1
 10727   006016  C005  F005         	movff	___flneg@f1+2,?___flneg+2
 10728   00601A  C006  F006         	movff	___flneg@f1+3,?___flneg+3
 10729   00601E  0012               	return		;funcret
 10730   006020                     __end_of___flneg:
 10731                           	callstack 0
 10732                           
 10733 ;; *************** function _mat_multiply *****************
 10734 ;; Defined at:
 10735 ;;		line 32 in file "matrix_mult.c"
 10736 ;; Parameters:    Size  Location     Type
 10737 ;;  matrixA         2   83[BANK0 ] PTR struct MatrixStruct
 10738 ;;		 -> main@sub_mat_1(18), main@P(18), main@Eprime(18), main@Aprime(18), 
 10739 ;;  matrixB         2   85[BANK0 ] PTR struct MatrixStruct
 10740 ;;		 -> main@Pk_1(18), main@P(18), main@Qk1(18), main@Cprime_transpose(18), 
 10741 ;;		 -> main@Eprime_transpose(18), main@Aprime_transpose(18), 
 10742 ;;  matrixC         2   87[BANK0 ] PTR struct MatrixStruct
 10743 ;;		 -> main@sub_mat_3(18), main@sub_mat_2(18), main@sub_mat_1(18), 
 10744 ;; Auto vars:     Size  Location     Type
 10745 ;;  k               2   92[BANK0 ] int 
 10746 ;;  j               2   96[BANK0 ] int 
 10747 ;;  i               2   94[BANK0 ] int 
 10748 ;; Return value:  Size  Location     Type
 10749 ;;                  1    wreg      void 
 10750 ;; Registers used:
 10751 ;;		wreg, fsr2l, fsr2h, status,2, status,0, prodl, prodh, cstack
 10752 ;; Tracked objects:
 10753 ;;		On entry : 0/0
 10754 ;;		On exit  : 0/0
 10755 ;;		Unchanged: 0/0
 10756 ;; Data sizes:     COMRAM   BANK0   BANK1   BANK2   BANK3   BANK4   BANK5   BANK6   BANK7   BANK8   BANK9  BANK10  BANK1
      +1  BANK12  BANK13  BANK14  BANK15
 10757 ;;      Params:         0       6       0       0       0       0       0       0       0       0       0       0       
      +0       0       0       0       0
 10758 ;;      Locals:         0       6       0       0       0       0       0       0       0       0       0       0       
      +0       0       0       0       0
 10759 ;;      Temps:          0       3       0       0       0       0       0       0       0       0       0       0       
      +0       0       0       0       0
 10760 ;;      Totals:         0      15       0       0       0       0       0       0       0       0       0       0       
      +0       0       0       0       0
 10761 ;;Total ram usage:       15 bytes
 10762 ;; Hardware stack levels used: 1
 10763 ;; Hardware stack levels required when called: 5
 10764 ;; This function calls:
 10765 ;;		___fladd
 10766 ;;		___flmul
 10767 ;;		_mat_fill_zero
 10768 ;;		_mat_get
 10769 ;;		_mat_init
 10770 ;;		_mat_set
 10771 ;; This function is called by:
 10772 ;;		_EKF
 10773 ;; This function uses a non-reentrant model
 10774 ;;
 10775                           
 10776                           	psect	text31
 10777   005476                     __ptext31:
 10778                           	callstack 0
 10779   005476                     _mat_multiply:
 10780                           	callstack 24
 10781   005476                     
 10782                           ;matrix_mult.c: 38:     mat_init(matrixA->rows, matrixB->columns, matrixC);
 10783   005476  0100               	movlb	0	; () banked
 10784   005478  EE20 F001          	lfsr	2,1
 10785   00547C  51B5               	movf	mat_multiply@matrixB& (0+255),w,b
 10786   00547E  26D9               	addwf	fsr2l,f,c
 10787   005480  51B6               	movf	(mat_multiply@matrixB+1)& (0+255),w,b
 10788   005482  22DA               	addwfc	fsr2h,f,c
 10789   005484  50DF               	movf	indf2,w,c
 10790   005486  6E0B               	movwf	mat_init@columns^0,c
 10791   005488  C0B7  F00C         	movff	mat_multiply@matrixC,mat_init@matrix
 10792   00548C  C0B8  F00D         	movff	mat_multiply@matrixC+1,mat_init@matrix+1
 10793   005490  0060  F2CF  FFD9   	movff	mat_multiply@matrixA,fsr2l
 10794   005496  0060  F2D3  FFDA   	movff	mat_multiply@matrixA+1,fsr2h
 10795   00549C  50DF               	movf	indf2,w,c
 10796   00549E  EC2A  F030         	call	_mat_init
 10797                           
 10798                           ;matrix_mult.c: 39:     mat_fill_zero(matrixC);
 10799   0054A2  C0B7  F003         	movff	mat_multiply@matrixC,mat_fill_zero@matrix
 10800   0054A6  C0B8  F004         	movff	mat_multiply@matrixC+1,mat_fill_zero@matrix+1
 10801   0054AA  EC0F  F02F         	call	_mat_fill_zero	;wreg free
 10802   0054AE                     
 10803                           ;matrix_mult.c: 41:     for (int i = 1; i <= matrixC->rows; i++) {
 10804   0054AE  0E00               	movlw	0
 10805   0054B0  0100               	movlb	0	; () banked
 10806   0054B2  6FBF               	movwf	(mat_multiply@i+1)& (0+255),b
 10807   0054B4  0E01               	movlw	1
 10808   0054B6  6FBE               	movwf	mat_multiply@i& (0+255),b
 10809   0054B8  EFF4  F02A         	goto	l5200
 10810   0054BC                     l5184:
 10811                           
 10812                           ; BSR set to: 0
 10813                           ;matrix_mult.c: 42:         for (int j = 1; j <= matrixC->columns; j++) {
 10814   0054BC  0E00               	movlw	0
 10815   0054BE  6FC1               	movwf	(mat_multiply@j+1)& (0+255),b
 10816   0054C0  0E01               	movlw	1
 10817   0054C2  6FC0               	movwf	mat_multiply@j& (0+255),b
 10818   0054C4  EFDA  F02A         	goto	l5196
 10819   0054C8                     l5186:
 10820                           
 10821                           ; BSR set to: 0
 10822                           ;matrix_mult.c: 43:             for (int k = 1; k <= matrixA->columns; k++) {
 10823   0054C8  0E00               	movlw	0
 10824   0054CA  6FBD               	movwf	(mat_multiply@k+1)& (0+255),b
 10825   0054CC  0E01               	movlw	1
 10826   0054CE  6FBC               	movwf	mat_multiply@k& (0+255),b
 10827   0054D0  EFC0  F02A         	goto	l5192
 10828   0054D4                     l5188:
 10829                           
 10830                           ; BSR set to: 0
 10831                           ;matrix_mult.c: 44:                 mat_set(i, j, mat_get(i, j, matrixC) + mat_get(i, k,
      +                           matrixA) * mat_get(k, j, matrixB), matrixC);
 10832   0054D4  C0C0  F0A7         	movff	mat_multiply@j,mat_set@column
 10833   0054D8  C0B7  F00A         	movff	mat_multiply@matrixC,mat_get@matrix
 10834   0054DC  C0B8  F00B         	movff	mat_multiply@matrixC+1,mat_get@matrix+1
 10835   0054E0  C0C0  F009         	movff	mat_multiply@j,mat_get@column
 10836   0054E4  51BE               	movf	mat_multiply@i& (0+255),w,b
 10837   0054E6  EC6B  F02E         	call	_mat_get
 10838   0054EA  C009  F02C         	movff	?_mat_get,___fladd@b
 10839   0054EE  C00A  F02D         	movff	?_mat_get+1,___fladd@b+1
 10840   0054F2  C00B  F02E         	movff	?_mat_get+2,___fladd@b+2
 10841   0054F6  C00C  F02F         	movff	?_mat_get+3,___fladd@b+3
 10842   0054FA  C0B5  F00A         	movff	mat_multiply@matrixB,mat_get@matrix
 10843   0054FE  C0B6  F00B         	movff	mat_multiply@matrixB+1,mat_get@matrix+1
 10844   005502  C0C0  F009         	movff	mat_multiply@j,mat_get@column
 10845   005506  0100               	movlb	0	; () banked
 10846   005508  51BC               	movf	mat_multiply@k& (0+255),w,b
 10847   00550A  EC6B  F02E         	call	_mat_get
 10848   00550E  C009  F017         	movff	?_mat_get,___flmul@a
 10849   005512  C00A  F018         	movff	?_mat_get+1,___flmul@a+1
 10850   005516  C00B  F019         	movff	?_mat_get+2,___flmul@a+2
 10851   00551A  C00C  F01A         	movff	?_mat_get+3,___flmul@a+3
 10852   00551E  C0B3  F00A         	movff	mat_multiply@matrixA,mat_get@matrix
 10853   005522  C0B4  F00B         	movff	mat_multiply@matrixA+1,mat_get@matrix+1
 10854   005526  C0BC  F009         	movff	mat_multiply@k,mat_get@column
 10855   00552A  0100               	movlb	0	; () banked
 10856   00552C  51BE               	movf	mat_multiply@i& (0+255),w,b
 10857   00552E  EC6B  F02E         	call	_mat_get
 10858   005532  C009  F013         	movff	?_mat_get,___flmul@b
 10859   005536  C00A  F014         	movff	?_mat_get+1,___flmul@b+1
 10860   00553A  C00B  F015         	movff	?_mat_get+2,___flmul@b+2
 10861   00553E  C00C  F016         	movff	?_mat_get+3,___flmul@b+3
 10862   005542  EC38  F023         	call	___flmul	;wreg free
 10863   005546  C013  F030         	movff	?___flmul,___fladd@a
 10864   00554A  C014  F031         	movff	?___flmul+1,___fladd@a+1
 10865   00554E  C015  F032         	movff	?___flmul+2,___fladd@a+2
 10866   005552  C016  F033         	movff	?___flmul+3,___fladd@a+3
 10867   005556  ECD8  F020         	call	___fladd	;wreg free
 10868   00555A  C02C  F0A8         	movff	?___fladd,mat_set@element
 10869   00555E  C02D  F0A9         	movff	?___fladd+1,mat_set@element+1
 10870   005562  C02E  F0AA         	movff	?___fladd+2,mat_set@element+2
 10871   005566  C02F  F0AB         	movff	?___fladd+3,mat_set@element+3
 10872   00556A  C0B7  F0AC         	movff	mat_multiply@matrixC,mat_set@matrix
 10873   00556E  C0B8  F0AD         	movff	mat_multiply@matrixC+1,mat_set@matrix+1
 10874   005572  0100               	movlb	0	; () banked
 10875   005574  51BE               	movf	mat_multiply@i& (0+255),w,b
 10876   005576  EC30  F02E         	call	_mat_set
 10877   00557A                     
 10878                           ;matrix_mult.c: 45:             }
 10879   00557A  0100               	movlb	0	; () banked
 10880   00557C  4BBC               	infsnz	mat_multiply@k& (0+255),f,b
 10881   00557E  2BBD               	incf	(mat_multiply@k+1)& (0+255),f,b
 10882   005580                     l5192:
 10883                           
 10884                           ; BSR set to: 0
 10885   005580  EE20 F001          	lfsr	2,1
 10886   005584  51B3               	movf	mat_multiply@matrixA& (0+255),w,b
 10887   005586  26D9               	addwf	fsr2l,f,c
 10888   005588  51B4               	movf	(mat_multiply@matrixA+1)& (0+255),w,b
 10889   00558A  22DA               	addwfc	fsr2h,f,c
 10890   00558C  50DF               	movf	indf2,w,c
 10891   00558E  6FB9               	movwf	??_mat_multiply& (0+255),b
 10892   005590  6BBA               	clrf	(??_mat_multiply+1)& (0+255),b
 10893   005592  51BC               	movf	mat_multiply@k& (0+255),w,b
 10894   005594  5DB9               	subwf	??_mat_multiply& (0+255),w,b
 10895   005596  51BA               	movf	(??_mat_multiply+1)& (0+255),w,b
 10896   005598  0A80               	xorlw	128
 10897   00559A  6FBB               	movwf	(??_mat_multiply+2)& (0+255),b
 10898   00559C  51BD               	movf	(mat_multiply@k+1)& (0+255),w,b
 10899   00559E  0A80               	xorlw	128
 10900   0055A0  59BB               	subwfb	(??_mat_multiply+2)& (0+255),w,b
 10901   0055A2  B0D8               	btfsc	status,0,c
 10902   0055A4  EFD6  F02A         	goto	u4891
 10903   0055A8  EFD8  F02A         	goto	u4890
 10904   0055AC                     u4891:
 10905   0055AC  EF6A  F02A         	goto	l5188
 10906   0055B0                     u4890:
 10907   0055B0                     
 10908                           ; BSR set to: 0
 10909                           ;matrix_mult.c: 46:         }
 10910   0055B0  4BC0               	infsnz	mat_multiply@j& (0+255),f,b
 10911   0055B2  2BC1               	incf	(mat_multiply@j+1)& (0+255),f,b
 10912   0055B4                     l5196:
 10913                           
 10914                           ; BSR set to: 0
 10915   0055B4  EE20 F001          	lfsr	2,1
 10916   0055B8  51B7               	movf	mat_multiply@matrixC& (0+255),w,b
 10917   0055BA  26D9               	addwf	fsr2l,f,c
 10918   0055BC  51B8               	movf	(mat_multiply@matrixC+1)& (0+255),w,b
 10919   0055BE  22DA               	addwfc	fsr2h,f,c
 10920   0055C0  50DF               	movf	indf2,w,c
 10921   0055C2  6FB9               	movwf	??_mat_multiply& (0+255),b
 10922   0055C4  6BBA               	clrf	(??_mat_multiply+1)& (0+255),b
 10923   0055C6  51C0               	movf	mat_multiply@j& (0+255),w,b
 10924   0055C8  5DB9               	subwf	??_mat_multiply& (0+255),w,b
 10925   0055CA  51BA               	movf	(??_mat_multiply+1)& (0+255),w,b
 10926   0055CC  0A80               	xorlw	128
 10927   0055CE  6FBB               	movwf	(??_mat_multiply+2)& (0+255),b
 10928   0055D0  51C1               	movf	(mat_multiply@j+1)& (0+255),w,b
 10929   0055D2  0A80               	xorlw	128
 10930   0055D4  59BB               	subwfb	(??_mat_multiply+2)& (0+255),w,b
 10931   0055D6  B0D8               	btfsc	status,0,c
 10932   0055D8  EFF0  F02A         	goto	u4901
 10933   0055DC  EFF2  F02A         	goto	u4900
 10934   0055E0                     u4901:
 10935   0055E0  EF64  F02A         	goto	l5186
 10936   0055E4                     u4900:
 10937   0055E4                     
 10938                           ; BSR set to: 0
 10939                           ;matrix_mult.c: 47:     }
 10940   0055E4  4BBE               	infsnz	mat_multiply@i& (0+255),f,b
 10941   0055E6  2BBF               	incf	(mat_multiply@i+1)& (0+255),f,b
 10942   0055E8                     l5200:
 10943                           
 10944                           ; BSR set to: 0
 10945   0055E8  0060  F2DF  FFD9   	movff	mat_multiply@matrixC,fsr2l
 10946   0055EE  0060  F2E3  FFDA   	movff	mat_multiply@matrixC+1,fsr2h
 10947   0055F4  50DF               	movf	indf2,w,c
 10948   0055F6  6FB9               	movwf	??_mat_multiply& (0+255),b
 10949   0055F8  6BBA               	clrf	(??_mat_multiply+1)& (0+255),b
 10950   0055FA  51BE               	movf	mat_multiply@i& (0+255),w,b
 10951   0055FC  5DB9               	subwf	??_mat_multiply& (0+255),w,b
 10952   0055FE  51BA               	movf	(??_mat_multiply+1)& (0+255),w,b
 10953   005600  0A80               	xorlw	128
 10954   005602  6FBB               	movwf	(??_mat_multiply+2)& (0+255),b
 10955   005604  51BF               	movf	(mat_multiply@i+1)& (0+255),w,b
 10956   005606  0A80               	xorlw	128
 10957   005608  59BB               	subwfb	(??_mat_multiply+2)& (0+255),w,b
 10958   00560A  B0D8               	btfsc	status,0,c
 10959   00560C  EF0A  F02B         	goto	u4911
 10960   005610  EF0C  F02B         	goto	u4910
 10961   005614                     u4911:
 10962   005614  EF5E  F02A         	goto	l5184
 10963   005618                     u4910:
 10964   005618                     
 10965                           ; BSR set to: 0
 10966   005618  0012               	return		;funcret
 10967   00561A                     __end_of_mat_multiply:
 10968                           	callstack 0
 10969                           
 10970 ;; *************** function _mat_init *****************
 10971 ;; Defined at:
 10972 ;;		line 3 in file "matrix_mult.c"
 10973 ;; Parameters:    Size  Location     Type
 10974 ;;  rows            1    wreg     unsigned char 
 10975 ;;  columns         1   10[COMRAM] unsigned char 
 10976 ;;  matrix          2   11[COMRAM] PTR struct MatrixStruct
 10977 ;;		 -> main@sub_mat_3(18), main@sub_mat_2(18), main@sub_mat_1(18), main@Pk_1(18), 
 10978 ;;		 -> main@P(18), main@Lk(18), main@PCorrected(18), main@xhatCorrected(18), 
 10979 ;;		 -> main@fk_(18), main@xhatk_1(18), main@Qk1(18), main@xhat(18), 
 10980 ;;		 -> main@Cprime_transpose(18), main@Cprime(18), main@Fprime(18), main@Eprime_transpose(18), 
 10981 ;;		 -> main@Eprime(18), main@Aprime_transpose(18), main@Aprime(18), 
 10982 ;; Auto vars:     Size  Location     Type
 10983 ;;  rows            1   13[COMRAM] unsigned char 
 10984 ;; Return value:  Size  Location     Type
 10985 ;;                  1    wreg      void 
 10986 ;; Registers used:
 10987 ;;		wreg, fsr2l, fsr2h, status,2, status,0, cstack
 10988 ;; Tracked objects:
 10989 ;;		On entry : 0/0
 10990 ;;		On exit  : 0/0
 10991 ;;		Unchanged: 0/0
 10992 ;; Data sizes:     COMRAM   BANK0   BANK1   BANK2   BANK3   BANK4   BANK5   BANK6   BANK7   BANK8   BANK9  BANK10  BANK1
      +1  BANK12  BANK13  BANK14  BANK15
 10993 ;;      Params:         3       0       0       0       0       0       0       0       0       0       0       0       
      +0       0       0       0       0
 10994 ;;      Locals:         1       0       0       0       0       0       0       0       0       0       0       0       
      +0       0       0       0       0
 10995 ;;      Temps:          0       0       0       0       0       0       0       0       0       0       0       0       
      +0       0       0       0       0
 10996 ;;      Totals:         4       0       0       0       0       0       0       0       0       0       0       0       
      +0       0       0       0       0
 10997 ;;Total ram usage:        4 bytes
 10998 ;; Hardware stack levels used: 1
 10999 ;; Hardware stack levels required when called: 4
 11000 ;; This function calls:
 11001 ;;		_mat_fill_zero
 11002 ;; This function is called by:
 11003 ;;		_main
 11004 ;;		_mat_multiply
 11005 ;;		_mat_transpose
 11006 ;; This function uses a non-reentrant model
 11007 ;;
 11008                           
 11009                           	psect	text32
 11010   006054                     __ptext32:
 11011                           	callstack 0
 11012   006054                     _mat_init:
 11013                           	callstack 25
 11014                           
 11015                           ; BSR set to: 0
 11016                           ;incstack = 0
 11017                           ;mat_init@rows stored from wreg
 11018   006054  6E0E               	movwf	mat_init@rows^0,c
 11019   006056                     
 11020                           ;matrix_mult.c: 5:     matrix->rows = rows;
 11021   006056  0060  F033  FFD9   	movff	mat_init@matrix,fsr2l
 11022   00605C  0060  F037  FFDA   	movff	mat_init@matrix+1,fsr2h
 11023   006062  0060  F03B  FFDF   	movff	mat_init@rows,indf2
 11024   006068                     
 11025                           ;matrix_mult.c: 6:     matrix->columns = columns;
 11026   006068  EE20 F001          	lfsr	2,1
 11027   00606C  500C               	movf	mat_init@matrix^0,w,c
 11028   00606E  26D9               	addwf	fsr2l,f,c
 11029   006070  500D               	movf	(mat_init@matrix+1)^0,w,c
 11030   006072  22DA               	addwfc	fsr2h,f,c
 11031   006074  0060  F02F  FFDF   	movff	mat_init@columns,indf2
 11032   00607A                     
 11033                           ;matrix_mult.c: 7:     mat_fill_zero(matrix);
 11034   00607A  C00C  F003         	movff	mat_init@matrix,mat_fill_zero@matrix
 11035   00607E  C00D  F004         	movff	mat_init@matrix+1,mat_fill_zero@matrix+1
 11036   006082  EC0F  F02F         	call	_mat_fill_zero	;wreg free
 11037   006086  0012               	return		;funcret
 11038   006088                     __end_of_mat_init:
 11039                           	callstack 0
 11040                           
 11041 ;; *************** function _mat_fill_zero *****************
 11042 ;; Defined at:
 11043 ;;		line 23 in file "matrix_mult.c"
 11044 ;; Parameters:    Size  Location     Type
 11045 ;;  matrix          2    2[COMRAM] PTR struct MatrixStruct
 11046 ;;		 -> main@sub_mat_3(18), main@sub_mat_2(18), main@sub_mat_1(18), main@Pk_1(18), 
 11047 ;;		 -> main@P(18), main@Lk(18), main@PCorrected(18), main@xhatCorrected(18), 
 11048 ;;		 -> main@fk_(18), main@xhatk_1(18), main@Qk1(18), main@xhat(18), 
 11049 ;;		 -> main@Cprime_transpose(18), main@Cprime(18), main@Fprime(18), main@Eprime_transpose(18), 
 11050 ;;		 -> main@Eprime(18), main@Aprime_transpose(18), main@Aprime(18), 
 11051 ;; Auto vars:     Size  Location     Type
 11052 ;;  i               2    8[COMRAM] int 
 11053 ;; Return value:  Size  Location     Type
 11054 ;;                  1    wreg      void 
 11055 ;; Registers used:
 11056 ;;		wreg, fsr2l, fsr2h, status,2, status,0
 11057 ;; Tracked objects:
 11058 ;;		On entry : 0/0
 11059 ;;		On exit  : 0/0
 11060 ;;		Unchanged: 0/0
 11061 ;; Data sizes:     COMRAM   BANK0   BANK1   BANK2   BANK3   BANK4   BANK5   BANK6   BANK7   BANK8   BANK9  BANK10  BANK1
      +1  BANK12  BANK13  BANK14  BANK15
 11062 ;;      Params:         2       0       0       0       0       0       0       0       0       0       0       0       
      +0       0       0       0       0
 11063 ;;      Locals:         2       0       0       0       0       0       0       0       0       0       0       0       
      +0       0       0       0       0
 11064 ;;      Temps:          4       0       0       0       0       0       0       0       0       0       0       0       
      +0       0       0       0       0
 11065 ;;      Totals:         8       0       0       0       0       0       0       0       0       0       0       0       
      +0       0       0       0       0
 11066 ;;Total ram usage:        8 bytes
 11067 ;; Hardware stack levels used: 1
 11068 ;; Hardware stack levels required when called: 3
 11069 ;; This function calls:
 11070 ;;		Nothing
 11071 ;; This function is called by:
 11072 ;;		_mat_init
 11073 ;;		_mat_multiply
 11074 ;; This function uses a non-reentrant model
 11075 ;;
 11076                           
 11077                           	psect	text33
 11078   005E1E                     __ptext33:
 11079                           	callstack 0
 11080   005E1E                     _mat_fill_zero:
 11081                           	callstack 25
 11082   005E1E                     
 11083                           ;matrix_mult.c: 25:     for (int i = 0; i < 4; i++) {
 11084   005E1E  0E00               	movlw	0
 11085   005E20  6E0A               	movwf	(mat_fill_zero@i+1)^0,c
 11086   005E22  0E00               	movlw	0
 11087   005E24  6E09               	movwf	mat_fill_zero@i^0,c
 11088   005E26                     l3222:
 11089                           
 11090                           ;matrix_mult.c: 26:         matrix->elements[i] = 0;
 11091   005E26  C009  F005         	movff	mat_fill_zero@i,??_mat_fill_zero
 11092   005E2A  C00A  F006         	movff	mat_fill_zero@i+1,??_mat_fill_zero+1
 11093   005E2E  90D8               	bcf	status,0,c
 11094   005E30  3605               	rlcf	??_mat_fill_zero^0,f,c
 11095   005E32  3606               	rlcf	(??_mat_fill_zero+1)^0,f,c
 11096   005E34  90D8               	bcf	status,0,c
 11097   005E36  3605               	rlcf	??_mat_fill_zero^0,f,c
 11098   005E38  3606               	rlcf	(??_mat_fill_zero+1)^0,f,c
 11099   005E3A  5005               	movf	??_mat_fill_zero^0,w,c
 11100   005E3C  2403               	addwf	mat_fill_zero@matrix^0,w,c
 11101   005E3E  6E07               	movwf	(??_mat_fill_zero+2)^0,c
 11102   005E40  5006               	movf	(??_mat_fill_zero+1)^0,w,c
 11103   005E42  2004               	addwfc	(mat_fill_zero@matrix+1)^0,w,c
 11104   005E44  6E08               	movwf	(??_mat_fill_zero+3)^0,c
 11105   005E46  0E02               	movlw	2
 11106   005E48  2407               	addwf	(??_mat_fill_zero+2)^0,w,c
 11107   005E4A  6ED9               	movwf	fsr2l,c
 11108   005E4C  0E00               	movlw	0
 11109   005E4E  2008               	addwfc	(??_mat_fill_zero+3)^0,w,c
 11110   005E50  6EDA               	movwf	fsr2h,c
 11111   005E52  0E00               	movlw	0
 11112   005E54  6EDE               	movwf	postinc2,c
 11113   005E56  0E00               	movlw	0
 11114   005E58  6EDE               	movwf	postinc2,c
 11115   005E5A  0E00               	movlw	0
 11116   005E5C  6EDE               	movwf	postinc2,c
 11117   005E5E  0E00               	movlw	0
 11118   005E60  6EDD               	movwf	postdec2,c
 11119   005E62                     
 11120                           ;matrix_mult.c: 27:     }
 11121   005E62  4A09               	infsnz	mat_fill_zero@i^0,f,c
 11122   005E64  2A0A               	incf	(mat_fill_zero@i+1)^0,f,c
 11123   005E66  BE0A               	btfsc	(mat_fill_zero@i+1)^0,7,c
 11124   005E68  EF3F  F02F         	goto	u2361
 11125   005E6C  500A               	movf	(mat_fill_zero@i+1)^0,w,c
 11126   005E6E  E109               	bnz	u2360
 11127   005E70  0E04               	movlw	4
 11128   005E72  5C09               	subwf	mat_fill_zero@i^0,w,c
 11129   005E74  A0D8               	btfss	status,0,c
 11130   005E76  EF3F  F02F         	goto	u2361
 11131   005E7A  EF41  F02F         	goto	u2360
 11132   005E7E                     u2361:
 11133   005E7E  EF13  F02F         	goto	l3222
 11134   005E82                     u2360:
 11135   005E82  0012               	return		;funcret
 11136   005E84                     __end_of_mat_fill_zero:
 11137                           	callstack 0
 11138                           
 11139 ;; *************** function _hk *****************
 11140 ;; Defined at:
 11141 ;;		line 144 in file "main.c"
 11142 ;; Parameters:    Size  Location     Type
 11143 ;;  SOC_val         4   17[BANK0 ] float 
 11144 ;;  I               4   21[BANK0 ] float 
 11145 ;;  Voc0            4   25[BANK0 ] float 
 11146 ;;  R0              4   29[BANK0 ] float 
 11147 ;; Auto vars:     Size  Location     Type
 11148 ;;		None
 11149 ;; Return value:  Size  Location     Type
 11150 ;;                  4   17[BANK0 ] float 
 11151 ;; Registers used:
 11152 ;;		wreg, fsr2l, fsr2h, status,2, status,0, tblptrl, tblptrh, tblptru, prodl, prodh, cstack
 11153 ;; Tracked objects:
 11154 ;;		On entry : 0/0
 11155 ;;		On exit  : 0/0
 11156 ;;		Unchanged: 0/0
 11157 ;; Data sizes:     COMRAM   BANK0   BANK1   BANK2   BANK3   BANK4   BANK5   BANK6   BANK7   BANK8   BANK9  BANK10  BANK1
      +1  BANK12  BANK13  BANK14  BANK15
 11158 ;;      Params:         0      16       0       0       0       0       0       0       0       0       0       0       
      +0       0       0       0       0
 11159 ;;      Locals:         0       0       0       0       0       0       0       0       0       0       0       0       
      +0       0       0       0       0
 11160 ;;      Temps:          0       0       0       0       0       0       0       0       0       0       0       0       
      +0       0       0       0       0
 11161 ;;      Totals:         0      16       0       0       0       0       0       0       0       0       0       0       
      +0       0       0       0       0
 11162 ;;Total ram usage:       16 bytes
 11163 ;; Hardware stack levels used: 1
 11164 ;; Hardware stack levels required when called: 5
 11165 ;; This function calls:
 11166 ;;		_VOC
 11167 ;;		___flmul
 11168 ;;		___flsub
 11169 ;; This function is called by:
 11170 ;;		_EKF
 11171 ;; This function uses a non-reentrant model
 11172 ;;
 11173                           
 11174                           	psect	text34
 11175   005D48                     __ptext34:
 11176                           	callstack 0
 11177   005D48                     _hk:
 11178                           	callstack 24
 11179   005D48                     
 11180                           ;main.c: 145:  return VOC(SOC_val) - (R0 * I);
 11181   005D48  C071  F06D         	movff	hk@SOC_val,VOC@soc
 11182   005D4C  C072  F06E         	movff	hk@SOC_val+1,VOC@soc+1
 11183   005D50  C073  F06F         	movff	hk@SOC_val+2,VOC@soc+2
 11184   005D54  C074  F070         	movff	hk@SOC_val+3,VOC@soc+3
 11185   005D58  EC6D  F02D         	call	_VOC	;wreg free
 11186   005D5C  C06D  F046         	movff	?_VOC,___flsub@b
 11187   005D60  C06E  F047         	movff	?_VOC+1,___flsub@b+1
 11188   005D64  C06F  F048         	movff	?_VOC+2,___flsub@b+2
 11189   005D68  C070  F049         	movff	?_VOC+3,___flsub@b+3
 11190   005D6C  C075  F017         	movff	hk@I,___flmul@a
 11191   005D70  C076  F018         	movff	hk@I+1,___flmul@a+1
 11192   005D74  C077  F019         	movff	hk@I+2,___flmul@a+2
 11193   005D78  C078  F01A         	movff	hk@I+3,___flmul@a+3
 11194   005D7C  C07D  F013         	movff	hk@R0,___flmul@b
 11195   005D80  C07E  F014         	movff	hk@R0+1,___flmul@b+1
 11196   005D84  C07F  F015         	movff	hk@R0+2,___flmul@b+2
 11197   005D88  C080  F016         	movff	hk@R0+3,___flmul@b+3
 11198   005D8C  EC38  F023         	call	___flmul	;wreg free
 11199   005D90  C013  F04A         	movff	?___flmul,___flsub@a
 11200   005D94  C014  F04B         	movff	?___flmul+1,___flsub@a+1
 11201   005D98  C015  F04C         	movff	?___flmul+2,___flsub@a+2
 11202   005D9C  C016  F04D         	movff	?___flmul+3,___flsub@a+3
 11203   005DA0  ECB3  F02F         	call	___flsub	;wreg free
 11204   005DA4  C046  F071         	movff	?___flsub,?_hk
 11205   005DA8  C047  F072         	movff	?___flsub+1,?_hk+1
 11206   005DAC  C048  F073         	movff	?___flsub+2,?_hk+2
 11207   005DB0  C049  F074         	movff	?___flsub+3,?_hk+3
 11208   005DB4  0012               	return		;funcret
 11209   005DB6                     __end_of_hk:
 11210                           	callstack 0
 11211                           
 11212 ;; *************** function _VOC *****************
 11213 ;; Defined at:
 11214 ;;		line 119 in file "main.c"
 11215 ;; Parameters:    Size  Location     Type
 11216 ;;  soc             4   13[BANK0 ] float 
 11217 ;; Auto vars:     Size  Location     Type
 11218 ;;  voc_lt        202    0[BANK1 ] const unsigned short [10
 11219 ;;  soc_int         1  202[BANK1 ] char 
 11220 ;; Return value:  Size  Location     Type
 11221 ;;                  4   13[BANK0 ] float 
 11222 ;; Registers used:
 11223 ;;		wreg, fsr2l, fsr2h, status,2, status,0, tblptrl, tblptrh, tblptru, prodl, prodh, cstack
 11224 ;; Tracked objects:
 11225 ;;		On entry : 0/0
 11226 ;;		On exit  : 0/0
 11227 ;;		Unchanged: 0/0
 11228 ;; Data sizes:     COMRAM   BANK0   BANK1   BANK2   BANK3   BANK4   BANK5   BANK6   BANK7   BANK8   BANK9  BANK10  BANK1
      +1  BANK12  BANK13  BANK14  BANK15
 11229 ;;      Params:         0       4       0       0       0       0       0       0       0       0       0       0       
      +0       0       0       0       0
 11230 ;;      Locals:         0       0     203       0       0       0       0       0       0       0       0       0       
      +0       0       0       0       0
 11231 ;;      Temps:          2       0       0       0       0       0       0       0       0       0       0       0       
      +0       0       0       0       0
 11232 ;;      Totals:         2       4     203       0       0       0       0       0       0       0       0       0       
      +0       0       0       0       0
 11233 ;;Total ram usage:      209 bytes
 11234 ;; Hardware stack levels used: 1
 11235 ;; Hardware stack levels required when called: 4
 11236 ;; This function calls:
 11237 ;;		___fldiv
 11238 ;;		___fltol
 11239 ;;		___xxtofl
 11240 ;; This function is called by:
 11241 ;;		_hk
 11242 ;; This function uses a non-reentrant model
 11243 ;;
 11244                           
 11245                           	psect	text35
 11246   005ADA                     __ptext35:
 11247                           	callstack 0
 11248   005ADA                     _VOC:
 11249                           	callstack 24
 11250   005ADA                     
 11251                           ;main.c: 120:   int8_t soc_int = (int8_t)soc;
 11252   005ADA  C06D  F03C         	movff	VOC@soc,___fltol@f1
 11253   005ADE  C06E  F03D         	movff	VOC@soc+1,___fltol@f1+1
 11254   005AE2  C06F  F03E         	movff	VOC@soc+2,___fltol@f1+2
 11255   005AE6  C070  F03F         	movff	VOC@soc+3,___fltol@f1+3
 11256   005AEA  EC68  F02C         	call	___fltol	;wreg free
 11257   005AEE  503C               	movf	?___fltol^0,w,c
 11258   005AF0  0101               	movlb	1	; () banked
 11259   005AF2  6FCA               	movwf	VOC@soc_int& (0+255),b
 11260   005AF4                     
 11261                           ; BSR set to: 1
 11262                           ;main.c: 122:   const uint16_t voc_lt[101] = {
 11263   005AF4  0E9B               	movlw	low VOC@F23485
 11264   005AF6  6EF6               	movwf	tblptrl,c
 11265   005AF8                     	if	1	;There is more than 1 active tblptr byte
 11266   005AF8  0EFE               	movlw	high VOC@F23485
 11267   005AFA  6EF7               	movwf	tblptrh,c
 11268   005AFC                     	endif
 11269   005AFC                     	if	1	;There are 3 active tblptr bytes
 11270   005AFC  0E00               	movlw	low (VOC@F23485 shr (0+16))
 11271   005AFE  6EF8               	movwf	tblptru,c
 11272   005B00                     	endif
 11273   005B00  EE20  F100         	lfsr	2,VOC@voc_lt
 11274   005B04  0EC9               	movlw	201
 11275   005B06                     u4710:
 11276   005B06  0009               	tblrd		*+
 11277   005B08  006F FFD7 FFDE     	movff	tablat,postinc2
 11278   005B0E  06E8               	decf	wreg,f,c
 11279   005B10  E2FA               	bc	u4710
 11280   005B12                     
 11281                           ; BSR set to: 1
 11282                           ;main.c: 135:   if (soc_int < 0) {
 11283   005B12  BFCA               	btfsc	VOC@soc_int& (0+255),7,b
 11284   005B14  EF90  F02D         	goto	u4720
 11285   005B18  EF8E  F02D         	goto	u4721
 11286   005B1C                     u4721:
 11287   005B1C  EF9B  F02D         	goto	l5066
 11288   005B20                     u4720:
 11289   005B20                     
 11290                           ; BSR set to: 1
 11291                           ;main.c: 136:     return 4.2f;
 11292   005B20  0E66               	movlw	102
 11293   005B22  0100               	movlb	0	; () banked
 11294   005B24  6F6D               	movwf	?_VOC& (0+255),b
 11295   005B26  0E66               	movlw	102
 11296   005B28  6F6E               	movwf	(?_VOC+1)& (0+255),b
 11297   005B2A  0E86               	movlw	134
 11298   005B2C  6F6F               	movwf	(?_VOC+2)& (0+255),b
 11299   005B2E  0E40               	movlw	64
 11300   005B30  6F70               	movwf	(?_VOC+3)& (0+255),b
 11301   005B32  EFE1  F02D         	goto	l301
 11302   005B36                     l5066:
 11303                           
 11304                           ; BSR set to: 1
 11305   005B36  51CA               	movf	VOC@soc_int& (0+255),w,b
 11306   005B38  0A80               	xorlw	128
 11307   005B3A  0F1B               	addlw	-229
 11308   005B3C  A0D8               	btfss	status,0,c
 11309   005B3E  EFA3  F02D         	goto	u4731
 11310   005B42  EFA5  F02D         	goto	u4730
 11311   005B46                     u4731:
 11312   005B46  EFB0  F02D         	goto	l5074
 11313   005B4A                     u4730:
 11314   005B4A                     
 11315                           ; BSR set to: 1
 11316                           ;main.c: 138:     return 2.5f;
 11317   005B4A  0E00               	movlw	0
 11318   005B4C  0100               	movlb	0	; () banked
 11319   005B4E  6F6D               	movwf	?_VOC& (0+255),b
 11320   005B50  0E00               	movlw	0
 11321   005B52  6F6E               	movwf	(?_VOC+1)& (0+255),b
 11322   005B54  0E20               	movlw	32
 11323   005B56  6F6F               	movwf	(?_VOC+2)& (0+255),b
 11324   005B58  0E40               	movlw	64
 11325   005B5A  6F70               	movwf	(?_VOC+3)& (0+255),b
 11326   005B5C  EFE1  F02D         	goto	l301
 11327   005B60                     l5074:
 11328                           
 11329                           ; BSR set to: 1
 11330                           ;main.c: 140:     return ((float)voc_lt[soc_int]) / 10000;
 11331   005B60  51CA               	movf	VOC@soc_int& (0+255),w,b
 11332   005B62  0D02               	mullw	2
 11333   005B64  0E00               	movlw	low VOC@voc_lt
 11334   005B66  24F3               	addwf	243,w,c
 11335   005B68  6ED9               	movwf	fsr2l,c
 11336   005B6A  0E01               	movlw	high VOC@voc_lt
 11337   005B6C  20F4               	addwfc	prodh,w,c
 11338   005B6E  6EDA               	movwf	fsr2h,c
 11339   005B70  006F FF78  F05A    	movff	postinc2,??_VOC
 11340   005B76  006F FF74  F05B    	movff	postdec2,??_VOC+1
 11341   005B7C  C05A  F003         	movff	??_VOC,___xxtofl@val
 11342   005B80  C05B  F004         	movff	??_VOC+1,___xxtofl@val+1
 11343   005B84  6A05               	clrf	(___xxtofl@val+2)^0,c
 11344   005B86  6A06               	clrf	(___xxtofl@val+3)^0,c
 11345   005B88  0E00               	movlw	0
 11346   005B8A  EC61  F029         	call	___xxtofl
 11347   005B8E  C003  F04E         	movff	?___xxtofl,___fldiv@b
 11348   005B92  C004  F04F         	movff	?___xxtofl+1,___fldiv@b+1
 11349   005B96  C005  F050         	movff	?___xxtofl+2,___fldiv@b+2
 11350   005B9A  C006  F051         	movff	?___xxtofl+3,___fldiv@b+3
 11351   005B9E  0E00               	movlw	0
 11352   005BA0  6E52               	movwf	___fldiv@a^0,c
 11353   005BA2  0E40               	movlw	64
 11354   005BA4  6E53               	movwf	(___fldiv@a+1)^0,c
 11355   005BA6  0E1C               	movlw	28
 11356   005BA8  6E54               	movwf	(___fldiv@a+2)^0,c
 11357   005BAA  0E46               	movlw	70
 11358   005BAC  6E55               	movwf	(___fldiv@a+3)^0,c
 11359   005BAE  EC5F  F025         	call	___fldiv	;wreg free
 11360   005BB2  C04E  F06D         	movff	?___fldiv,?_VOC
 11361   005BB6  C04F  F06E         	movff	?___fldiv+1,?_VOC+1
 11362   005BBA  C050  F06F         	movff	?___fldiv+2,?_VOC+2
 11363   005BBE  C051  F070         	movff	?___fldiv+3,?_VOC+3
 11364   005BC2                     l301:
 11365   005BC2  0012               	return		;funcret
 11366   005BC4                     __end_of_VOC:
 11367                           	callstack 0
 11368                           
 11369 ;; *************** function ___xxtofl *****************
 11370 ;; Defined at:
 11371 ;;		line 10 in file "C:\Program Files\Microchip\xc8\v2.41\pic\sources\c99\common\xxtofl.c"
 11372 ;; Parameters:    Size  Location     Type
 11373 ;;  sign            1    wreg     unsigned char 
 11374 ;;  val             4    2[COMRAM] long 
 11375 ;; Auto vars:     Size  Location     Type
 11376 ;;  sign            1   10[COMRAM] unsigned char 
 11377 ;;  arg             4   12[COMRAM] unsigned long 
 11378 ;;  exp             1   11[COMRAM] unsigned char 
 11379 ;; Return value:  Size  Location     Type
 11380 ;;                  4    2[COMRAM] unsigned char 
 11381 ;; Registers used:
 11382 ;;		wreg, status,2, status,0
 11383 ;; Tracked objects:
 11384 ;;		On entry : 0/0
 11385 ;;		On exit  : 0/0
 11386 ;;		Unchanged: 0/0
 11387 ;; Data sizes:     COMRAM   BANK0   BANK1   BANK2   BANK3   BANK4   BANK5   BANK6   BANK7   BANK8   BANK9  BANK10  BANK1
      +1  BANK12  BANK13  BANK14  BANK15
 11388 ;;      Params:         4       0       0       0       0       0       0       0       0       0       0       0       
      +0       0       0       0       0
 11389 ;;      Locals:         6       0       0       0       0       0       0       0       0       0       0       0       
      +0       0       0       0       0
 11390 ;;      Temps:          4       0       0       0       0       0       0       0       0       0       0       0       
      +0       0       0       0       0
 11391 ;;      Totals:        14       0       0       0       0       0       0       0       0       0       0       0       
      +0       0       0       0       0
 11392 ;;Total ram usage:       14 bytes
 11393 ;; Hardware stack levels used: 1
 11394 ;; Hardware stack levels required when called: 3
 11395 ;; This function calls:
 11396 ;;		Nothing
 11397 ;; This function is called by:
 11398 ;;		_VOC
 11399 ;;		_main
 11400 ;;		_expf
 11401 ;;		_powf
 11402 ;; This function uses a non-reentrant model
 11403 ;;
 11404                           
 11405                           	psect	text36
 11406   0052C2                     __ptext36:
 11407                           	callstack 0
 11408   0052C2                     ___xxtofl:
 11409                           	callstack 26
 11410                           
 11411                           ;incstack = 0
 11412                           ;___xxtofl@sign stored from wreg
 11413   0052C2  6E0B               	movwf	___xxtofl@sign^0,c
 11414   0052C4  500B               	movf	___xxtofl@sign^0,w,c
 11415   0052C6  B4D8               	btfsc	status,2,c
 11416   0052C8  EF68  F029         	goto	u3301
 11417   0052CC  EF6A  F029         	goto	u3300
 11418   0052D0                     u3301:
 11419   0052D0  EF8C  F029         	goto	l1084
 11420   0052D4                     u3300:
 11421   0052D4  BE06               	btfsc	(___xxtofl@val+3)^0,7,c
 11422   0052D6  EF71  F029         	goto	u3310
 11423   0052DA  EF6F  F029         	goto	u3311
 11424   0052DE                     u3311:
 11425   0052DE  EF8C  F029         	goto	l1084
 11426   0052E2                     u3310:
 11427   0052E2  C003  F007         	movff	___xxtofl@val,??___xxtofl
 11428   0052E6  C004  F008         	movff	___xxtofl@val+1,??___xxtofl+1
 11429   0052EA  C005  F009         	movff	___xxtofl@val+2,??___xxtofl+2
 11430   0052EE  C006  F00A         	movff	___xxtofl@val+3,??___xxtofl+3
 11431   0052F2  1E07               	comf	??___xxtofl^0,f,c
 11432   0052F4  1E08               	comf	(??___xxtofl+1)^0,f,c
 11433   0052F6  1E09               	comf	(??___xxtofl+2)^0,f,c
 11434   0052F8  1E0A               	comf	(??___xxtofl+3)^0,f,c
 11435   0052FA  2A07               	incf	??___xxtofl^0,f,c
 11436   0052FC  0E00               	movlw	0
 11437   0052FE  2208               	addwfc	(??___xxtofl+1)^0,f,c
 11438   005300  2209               	addwfc	(??___xxtofl+2)^0,f,c
 11439   005302  220A               	addwfc	(??___xxtofl+3)^0,f,c
 11440   005304  C007  F00D         	movff	??___xxtofl,___xxtofl@arg
 11441   005308  C008  F00E         	movff	??___xxtofl+1,___xxtofl@arg+1
 11442   00530C  C009  F00F         	movff	??___xxtofl+2,___xxtofl@arg+2
 11443   005310  C00A  F010         	movff	??___xxtofl+3,___xxtofl@arg+3
 11444   005314  EF94  F029         	goto	l3776
 11445   005318                     l1084:
 11446   005318  C003  F00D         	movff	___xxtofl@val,___xxtofl@arg
 11447   00531C  C004  F00E         	movff	___xxtofl@val+1,___xxtofl@arg+1
 11448   005320  C005  F00F         	movff	___xxtofl@val+2,___xxtofl@arg+2
 11449   005324  C006  F010         	movff	___xxtofl@val+3,___xxtofl@arg+3
 11450   005328                     l3776:
 11451   005328  5003               	movf	___xxtofl@val^0,w,c
 11452   00532A  1004               	iorwf	(___xxtofl@val+1)^0,w,c
 11453   00532C  1005               	iorwf	(___xxtofl@val+2)^0,w,c
 11454   00532E  1006               	iorwf	(___xxtofl@val+3)^0,w,c
 11455   005330  A4D8               	btfss	status,2,c
 11456   005332  EF9D  F029         	goto	u3321
 11457   005336  EF9F  F029         	goto	u3320
 11458   00533A                     u3321:
 11459   00533A  EFA9  F029         	goto	l3782
 11460   00533E                     u3320:
 11461   00533E  0E00               	movlw	0
 11462   005340  6E03               	movwf	?___xxtofl^0,c
 11463   005342  0E00               	movlw	0
 11464   005344  6E04               	movwf	(?___xxtofl+1)^0,c
 11465   005346  0E00               	movlw	0
 11466   005348  6E05               	movwf	(?___xxtofl+2)^0,c
 11467   00534A  0E00               	movlw	0
 11468   00534C  6E06               	movwf	(?___xxtofl+3)^0,c
 11469   00534E  EF3A  F02A         	goto	l1087
 11470   005352                     l3782:
 11471   005352  0E96               	movlw	150
 11472   005354  6E0C               	movwf	___xxtofl@exp^0,c
 11473   005356  EFB3  F029         	goto	l3786
 11474   00535A                     l3784:
 11475   00535A  2A0C               	incf	___xxtofl@exp^0,f,c
 11476   00535C  90D8               	bcf	status,0,c
 11477   00535E  3210               	rrcf	(___xxtofl@arg+3)^0,f,c
 11478   005360  320F               	rrcf	(___xxtofl@arg+2)^0,f,c
 11479   005362  320E               	rrcf	(___xxtofl@arg+1)^0,f,c
 11480   005364  320D               	rrcf	___xxtofl@arg^0,f,c
 11481   005366                     l3786:
 11482   005366  0E00               	movlw	0
 11483   005368  140D               	andwf	___xxtofl@arg^0,w,c
 11484   00536A  6E07               	movwf	??___xxtofl^0,c
 11485   00536C  0E00               	movlw	0
 11486   00536E  140E               	andwf	(___xxtofl@arg+1)^0,w,c
 11487   005370  6E08               	movwf	(??___xxtofl+1)^0,c
 11488   005372  0E00               	movlw	0
 11489   005374  140F               	andwf	(___xxtofl@arg+2)^0,w,c
 11490   005376  6E09               	movwf	(??___xxtofl+2)^0,c
 11491   005378  0EFE               	movlw	254
 11492   00537A  1410               	andwf	(___xxtofl@arg+3)^0,w,c
 11493   00537C  6E0A               	movwf	(??___xxtofl+3)^0,c
 11494   00537E  5007               	movf	??___xxtofl^0,w,c
 11495   005380  1008               	iorwf	(??___xxtofl+1)^0,w,c
 11496   005382  1009               	iorwf	(??___xxtofl+2)^0,w,c
 11497   005384  100A               	iorwf	(??___xxtofl+3)^0,w,c
 11498   005386  A4D8               	btfss	status,2,c
 11499   005388  EFC8  F029         	goto	u3331
 11500   00538C  EFCA  F029         	goto	u3330
 11501   005390                     u3331:
 11502   005390  EFAD  F029         	goto	l3784
 11503   005394                     u3330:
 11504   005394  EFD8  F029         	goto	l1091
 11505   005398                     l3788:
 11506   005398  2A0C               	incf	___xxtofl@exp^0,f,c
 11507   00539A  0E01               	movlw	1
 11508   00539C  260D               	addwf	___xxtofl@arg^0,f,c
 11509   00539E  0E00               	movlw	0
 11510   0053A0  220E               	addwfc	(___xxtofl@arg+1)^0,f,c
 11511   0053A2  220F               	addwfc	(___xxtofl@arg+2)^0,f,c
 11512   0053A4  2210               	addwfc	(___xxtofl@arg+3)^0,f,c
 11513   0053A6  90D8               	bcf	status,0,c
 11514   0053A8  3210               	rrcf	(___xxtofl@arg+3)^0,f,c
 11515   0053AA  320F               	rrcf	(___xxtofl@arg+2)^0,f,c
 11516   0053AC  320E               	rrcf	(___xxtofl@arg+1)^0,f,c
 11517   0053AE  320D               	rrcf	___xxtofl@arg^0,f,c
 11518   0053B0                     l1091:
 11519   0053B0  0E00               	movlw	0
 11520   0053B2  140D               	andwf	___xxtofl@arg^0,w,c
 11521   0053B4  6E07               	movwf	??___xxtofl^0,c
 11522   0053B6  0E00               	movlw	0
 11523   0053B8  140E               	andwf	(___xxtofl@arg+1)^0,w,c
 11524   0053BA  6E08               	movwf	(??___xxtofl+1)^0,c
 11525   0053BC  0E00               	movlw	0
 11526   0053BE  140F               	andwf	(___xxtofl@arg+2)^0,w,c
 11527   0053C0  6E09               	movwf	(??___xxtofl+2)^0,c
 11528   0053C2  0EFF               	movlw	255
 11529   0053C4  1410               	andwf	(___xxtofl@arg+3)^0,w,c
 11530   0053C6  6E0A               	movwf	(??___xxtofl+3)^0,c
 11531   0053C8  5007               	movf	??___xxtofl^0,w,c
 11532   0053CA  1008               	iorwf	(??___xxtofl+1)^0,w,c
 11533   0053CC  1009               	iorwf	(??___xxtofl+2)^0,w,c
 11534   0053CE  100A               	iorwf	(??___xxtofl+3)^0,w,c
 11535   0053D0  A4D8               	btfss	status,2,c
 11536   0053D2  EFED  F029         	goto	u3341
 11537   0053D6  EFEF  F029         	goto	u3340
 11538   0053DA                     u3341:
 11539   0053DA  EFCC  F029         	goto	l3788
 11540   0053DE                     u3340:
 11541   0053DE  EFF7  F029         	goto	l3796
 11542   0053E2                     l3794:
 11543   0053E2  060C               	decf	___xxtofl@exp^0,f,c
 11544   0053E4  90D8               	bcf	status,0,c
 11545   0053E6  360D               	rlcf	___xxtofl@arg^0,f,c
 11546   0053E8  360E               	rlcf	(___xxtofl@arg+1)^0,f,c
 11547   0053EA  360F               	rlcf	(___xxtofl@arg+2)^0,f,c
 11548   0053EC  3610               	rlcf	(___xxtofl@arg+3)^0,f,c
 11549   0053EE                     l3796:
 11550   0053EE  BE0F               	btfsc	(___xxtofl@arg+2)^0,7,c
 11551   0053F0  EFFC  F029         	goto	u3351
 11552   0053F4  EFFE  F029         	goto	u3350
 11553   0053F8                     u3351:
 11554   0053F8  EF06  F02A         	goto	l1098
 11555   0053FC                     u3350:
 11556   0053FC  0E02               	movlw	2
 11557   0053FE  600C               	cpfslt	___xxtofl@exp^0,c
 11558   005400  EF04  F02A         	goto	u3361
 11559   005404  EF06  F02A         	goto	u3360
 11560   005408                     u3361:
 11561   005408  EFF1  F029         	goto	l3794
 11562   00540C                     u3360:
 11563   00540C                     l1098:
 11564   00540C  B00C               	btfsc	___xxtofl@exp^0,0,c
 11565   00540E  EF0B  F02A         	goto	u3371
 11566   005412  EF0D  F02A         	goto	u3370
 11567   005416                     u3371:
 11568   005416  EF0E  F02A         	goto	l3802
 11569   00541A                     u3370:
 11570   00541A  9E0F               	bcf	(___xxtofl@arg+2)^0,7,c
 11571   00541C                     l3802:
 11572   00541C  90D8               	bcf	status,0,c
 11573   00541E  320C               	rrcf	___xxtofl@exp^0,f,c
 11574   005420  C00C  F007         	movff	___xxtofl@exp,??___xxtofl
 11575   005424  6A08               	clrf	(??___xxtofl+1)^0,c
 11576   005426  6A09               	clrf	(??___xxtofl+2)^0,c
 11577   005428  6A0A               	clrf	(??___xxtofl+3)^0,c
 11578   00542A  C007  F00A         	movff	??___xxtofl,??___xxtofl+3
 11579   00542E  6A09               	clrf	(??___xxtofl+2)^0,c
 11580   005430  6A08               	clrf	(??___xxtofl+1)^0,c
 11581   005432  6A07               	clrf	??___xxtofl^0,c
 11582   005434  5007               	movf	??___xxtofl^0,w,c
 11583   005436  120D               	iorwf	___xxtofl@arg^0,f,c
 11584   005438  5008               	movf	(??___xxtofl+1)^0,w,c
 11585   00543A  120E               	iorwf	(___xxtofl@arg+1)^0,f,c
 11586   00543C  5009               	movf	(??___xxtofl+2)^0,w,c
 11587   00543E  120F               	iorwf	(___xxtofl@arg+2)^0,f,c
 11588   005440  500A               	movf	(??___xxtofl+3)^0,w,c
 11589   005442  1210               	iorwf	(___xxtofl@arg+3)^0,f,c
 11590   005444  500B               	movf	___xxtofl@sign^0,w,c
 11591   005446  B4D8               	btfsc	status,2,c
 11592   005448  EF28  F02A         	goto	u3381
 11593   00544C  EF2A  F02A         	goto	u3380
 11594   005450                     u3381:
 11595   005450  EF32  F02A         	goto	l3812
 11596   005454                     u3380:
 11597   005454  BE06               	btfsc	(___xxtofl@val+3)^0,7,c
 11598   005456  EF31  F02A         	goto	u3390
 11599   00545A  EF2F  F02A         	goto	u3391
 11600   00545E                     u3391:
 11601   00545E  EF32  F02A         	goto	l3812
 11602   005462                     u3390:
 11603   005462  8E10               	bsf	(___xxtofl@arg+3)^0,7,c
 11604   005464                     l3812:
 11605   005464  C00D  F003         	movff	___xxtofl@arg,?___xxtofl
 11606   005468  C00E  F004         	movff	___xxtofl@arg+1,?___xxtofl+1
 11607   00546C  C00F  F005         	movff	___xxtofl@arg+2,?___xxtofl+2
 11608   005470  C010  F006         	movff	___xxtofl@arg+3,?___xxtofl+3
 11609   005474                     l1087:
 11610   005474  0012               	return		;funcret
 11611   005476                     __end_of___xxtofl:
 11612                           	callstack 0
 11613                           
 11614 ;; *************** function ___fltol *****************
 11615 ;; Defined at:
 11616 ;;		line 43 in file "C:\Program Files\Microchip\xc8\v2.41\pic\sources\c99\common\fltol.c"
 11617 ;; Parameters:    Size  Location     Type
 11618 ;;  f1              4   59[COMRAM] unsigned char 
 11619 ;; Auto vars:     Size  Location     Type
 11620 ;;  exp1            1   68[COMRAM] unsigned char 
 11621 ;;  sign1           1   67[COMRAM] unsigned char 
 11622 ;; Return value:  Size  Location     Type
 11623 ;;                  4   59[COMRAM] long 
 11624 ;; Registers used:
 11625 ;;		wreg, status,2, status,0
 11626 ;; Tracked objects:
 11627 ;;		On entry : 0/0
 11628 ;;		On exit  : 0/0
 11629 ;;		Unchanged: 0/0
 11630 ;; Data sizes:     COMRAM   BANK0   BANK1   BANK2   BANK3   BANK4   BANK5   BANK6   BANK7   BANK8   BANK9  BANK10  BANK1
      +1  BANK12  BANK13  BANK14  BANK15
 11631 ;;      Params:         4       0       0       0       0       0       0       0       0       0       0       0       
      +0       0       0       0       0
 11632 ;;      Locals:         2       0       0       0       0       0       0       0       0       0       0       0       
      +0       0       0       0       0
 11633 ;;      Temps:          4       0       0       0       0       0       0       0       0       0       0       0       
      +0       0       0       0       0
 11634 ;;      Totals:        10       0       0       0       0       0       0       0       0       0       0       0       
      +0       0       0       0       0
 11635 ;;Total ram usage:       10 bytes
 11636 ;; Hardware stack levels used: 1
 11637 ;; Hardware stack levels required when called: 3
 11638 ;; This function calls:
 11639 ;;		Nothing
 11640 ;; This function is called by:
 11641 ;;		_VOC
 11642 ;;		_main
 11643 ;;		_expf
 11644 ;; This function uses a non-reentrant model
 11645 ;;
 11646                           
 11647                           	psect	text37
 11648   0058D0                     __ptext37:
 11649                           	callstack 0
 11650   0058D0                     ___fltol:
 11651                           	callstack 26
 11652   0058D0  343E               	rlcf	(___fltol@f1+2)^0,w,c
 11653   0058D2  343F               	rlcf	(___fltol@f1+3)^0,w,c
 11654   0058D4  6E45               	movwf	___fltol@exp1^0,c
 11655   0058D6  5045               	movf	___fltol@exp1^0,w,c
 11656   0058D8  A4D8               	btfss	status,2,c
 11657   0058DA  EF71  F02C         	goto	u3231
 11658   0058DE  EF73  F02C         	goto	u3230
 11659   0058E2                     u3231:
 11660   0058E2  EF7D  F02C         	goto	l3732
 11661   0058E6                     u3230:
 11662   0058E6                     l3728:
 11663   0058E6  0E00               	movlw	0
 11664   0058E8  6E3C               	movwf	?___fltol^0,c
 11665   0058EA  0E00               	movlw	0
 11666   0058EC  6E3D               	movwf	(?___fltol+1)^0,c
 11667   0058EE  0E00               	movlw	0
 11668   0058F0  6E3E               	movwf	(?___fltol+2)^0,c
 11669   0058F2  0E00               	movlw	0
 11670   0058F4  6E3F               	movwf	(?___fltol+3)^0,c
 11671   0058F6  EFEA  F02C         	goto	l726
 11672   0058FA                     l3732:
 11673   0058FA  C03C  F040         	movff	___fltol@f1,??___fltol
 11674   0058FE  C03D  F041         	movff	___fltol@f1+1,??___fltol+1
 11675   005902  C03E  F042         	movff	___fltol@f1+2,??___fltol+2
 11676   005906  C03F  F043         	movff	___fltol@f1+3,??___fltol+3
 11677   00590A  0E20               	movlw	32
 11678   00590C  EF8D  F02C         	goto	u3240
 11679   005910                     u3245:
 11680   005910  90D8               	bcf	status,0,c
 11681   005912  3243               	rrcf	(??___fltol+3)^0,f,c
 11682   005914  3242               	rrcf	(??___fltol+2)^0,f,c
 11683   005916  3241               	rrcf	(??___fltol+1)^0,f,c
 11684   005918  3240               	rrcf	??___fltol^0,f,c
 11685   00591A                     u3240:
 11686   00591A  2EE8               	decfsz	wreg,f,c
 11687   00591C  EF88  F02C         	goto	u3245
 11688   005920  5040               	movf	??___fltol^0,w,c
 11689   005922  6E44               	movwf	___fltol@sign1^0,c
 11690   005924  8E3E               	bsf	(___fltol@f1+2)^0,7,c
 11691   005926  0EFF               	movlw	255
 11692   005928  163C               	andwf	___fltol@f1^0,f,c
 11693   00592A  0EFF               	movlw	255
 11694   00592C  163D               	andwf	(___fltol@f1+1)^0,f,c
 11695   00592E  0EFF               	movlw	255
 11696   005930  163E               	andwf	(___fltol@f1+2)^0,f,c
 11697   005932  0E00               	movlw	0
 11698   005934  163F               	andwf	(___fltol@f1+3)^0,f,c
 11699   005936  0E96               	movlw	150
 11700   005938  5E45               	subwf	___fltol@exp1^0,f,c
 11701   00593A  BE45               	btfsc	___fltol@exp1^0,7,c
 11702   00593C  EFA4  F02C         	goto	u3250
 11703   005940  EFA2  F02C         	goto	u3251
 11704   005944                     u3251:
 11705   005944  EFBA  F02C         	goto	l3752
 11706   005948                     u3250:
 11707   005948  5045               	movf	___fltol@exp1^0,w,c
 11708   00594A  0A80               	xorlw	128
 11709   00594C  0F97               	addlw	151
 11710   00594E  B0D8               	btfsc	status,0,c
 11711   005950  EFAC  F02C         	goto	u3261
 11712   005954  EFAE  F02C         	goto	u3260
 11713   005958                     u3261:
 11714   005958  EFB0  F02C         	goto	l3748
 11715   00595C                     u3260:
 11716   00595C  EF73  F02C         	goto	l3728
 11717   005960                     l3748:
 11718   005960  90D8               	bcf	status,0,c
 11719   005962  323F               	rrcf	(___fltol@f1+3)^0,f,c
 11720   005964  323E               	rrcf	(___fltol@f1+2)^0,f,c
 11721   005966  323D               	rrcf	(___fltol@f1+1)^0,f,c
 11722   005968  323C               	rrcf	___fltol@f1^0,f,c
 11723   00596A  3E45               	incfsz	___fltol@exp1^0,f,c
 11724   00596C  EFB0  F02C         	goto	l3748
 11725   005970  EFD2  F02C         	goto	l3762
 11726   005974                     l3752:
 11727   005974  0E1F               	movlw	31
 11728   005976  6445               	cpfsgt	___fltol@exp1^0,c
 11729   005978  EFC0  F02C         	goto	u3271
 11730   00597C  EFC2  F02C         	goto	u3270
 11731   005980                     u3271:
 11732   005980  EFCA  F02C         	goto	l3760
 11733   005984                     u3270:
 11734   005984  EF73  F02C         	goto	l3728
 11735   005988                     l3758:
 11736   005988  90D8               	bcf	status,0,c
 11737   00598A  363C               	rlcf	___fltol@f1^0,f,c
 11738   00598C  363D               	rlcf	(___fltol@f1+1)^0,f,c
 11739   00598E  363E               	rlcf	(___fltol@f1+2)^0,f,c
 11740   005990  363F               	rlcf	(___fltol@f1+3)^0,f,c
 11741   005992  0645               	decf	___fltol@exp1^0,f,c
 11742   005994                     l3760:
 11743   005994  5045               	movf	___fltol@exp1^0,w,c
 11744   005996  A4D8               	btfss	status,2,c
 11745   005998  EFD0  F02C         	goto	u3281
 11746   00599C  EFD2  F02C         	goto	u3280
 11747   0059A0                     u3281:
 11748   0059A0  EFC4  F02C         	goto	l3758
 11749   0059A4                     u3280:
 11750   0059A4                     l3762:
 11751   0059A4  5044               	movf	___fltol@sign1^0,w,c
 11752   0059A6  B4D8               	btfsc	status,2,c
 11753   0059A8  EFD8  F02C         	goto	u3291
 11754   0059AC  EFDA  F02C         	goto	u3290
 11755   0059B0                     u3291:
 11756   0059B0  EFE2  F02C         	goto	l3766
 11757   0059B4                     u3290:
 11758   0059B4  1E3F               	comf	(___fltol@f1+3)^0,f,c
 11759   0059B6  1E3E               	comf	(___fltol@f1+2)^0,f,c
 11760   0059B8  1E3D               	comf	(___fltol@f1+1)^0,f,c
 11761   0059BA  6C3C               	negf	___fltol@f1^0,c
 11762   0059BC  0E00               	movlw	0
 11763   0059BE  223D               	addwfc	(___fltol@f1+1)^0,f,c
 11764   0059C0  223E               	addwfc	(___fltol@f1+2)^0,f,c
 11765   0059C2  223F               	addwfc	(___fltol@f1+3)^0,f,c
 11766   0059C4                     l3766:
 11767   0059C4  C03C  F03C         	movff	___fltol@f1,?___fltol
 11768   0059C8  C03D  F03D         	movff	___fltol@f1+1,?___fltol+1
 11769   0059CC  C03E  F03E         	movff	___fltol@f1+2,?___fltol+2
 11770   0059D0  C03F  F03F         	movff	___fltol@f1+3,?___fltol+3
 11771   0059D4                     l726:
 11772   0059D4  0012               	return		;funcret
 11773   0059D6                     __end_of___fltol:
 11774                           	callstack 0
 11775                           
 11776 ;; *************** function _fk *****************
 11777 ;; Defined at:
 11778 ;;		line 148 in file "main.c"
 11779 ;; Parameters:    Size  Location     Type
 11780 ;;  xhatk_1         2   83[BANK0 ] PTR struct MatrixStruct
 11781 ;;		 -> main@xhatk_1(18), 
 11782 ;;  I               4   85[BANK0 ] float 
 11783 ;;  dt              4   89[BANK0 ] float 
 11784 ;;  Cbat            4   93[BANK0 ] float 
 11785 ;;  Cc              4   97[BANK0 ] float 
 11786 ;;  Rc              4  101[BANK0 ] float 
 11787 ;;  fk_             2  105[BANK0 ] PTR struct MatrixStruct
 11788 ;;		 -> main@fk_(18), 
 11789 ;; Auto vars:     Size  Location     Type
 11790 ;;  array_mat       8  107[BANK0 ] float [1][2]
 11791 ;; Return value:  Size  Location     Type
 11792 ;;                  1    wreg      void 
 11793 ;; Registers used:
 11794 ;;		wreg, fsr2l, fsr2h, status,2, status,0, prodl, prodh, cstack
 11795 ;; Tracked objects:
 11796 ;;		On entry : 0/0
 11797 ;;		On exit  : 0/0
 11798 ;;		Unchanged: 0/0
 11799 ;; Data sizes:     COMRAM   BANK0   BANK1   BANK2   BANK3   BANK4   BANK5   BANK6   BANK7   BANK8   BANK9  BANK10  BANK1
      +1  BANK12  BANK13  BANK14  BANK15
 11800 ;;      Params:         0      24       0       0       0       0       0       0       0       0       0       0       
      +0       0       0       0       0
 11801 ;;      Locals:         0       8       0       0       0       0       0       0       0       0       0       0       
      +0       0       0       0       0
 11802 ;;      Temps:          0       0       0       0       0       0       0       0       0       0       0       0       
      +0       0       0       0       0
 11803 ;;      Totals:         0      32       0       0       0       0       0       0       0       0       0       0       
      +0       0       0       0       0
 11804 ;;Total ram usage:       32 bytes
 11805 ;; Hardware stack levels used: 1
 11806 ;; Hardware stack levels required when called: 5
 11807 ;; This function calls:
 11808 ;;		___fladd
 11809 ;;		___fldiv
 11810 ;;		___flmul
 11811 ;;		___flsub
 11812 ;;		_mat_get
 11813 ;;		_mat_set
 11814 ;; This function is called by:
 11815 ;;		_EKF
 11816 ;; This function uses a non-reentrant model
 11817 ;;
 11818                           
 11819                           	psect	text38
 11820   00508E                     __ptext38:
 11821                           	callstack 0
 11822   00508E                     _fk:
 11823                           	callstack 24
 11824   00508E                     
 11825                           ;main.c: 149:     float array_mat[2][1] = { {(-1) * I / Cbat}, {(I / Cc) - (mat_get(2, 1
      +                          , xhatk_1) / (Cc * Rc))} };
 11826   00508E  EE20  F0CB         	lfsr	2,fk@array_mat
 11827   005092  0E07               	movlw	7
 11828   005094                     u4881:
 11829   005094  6ADE               	clrf	postinc2,c
 11830   005096  06E8               	decf	wreg,f,c
 11831   005098  E2FD               	bc	u4881
 11832   00509A  0E00               	movlw	0
 11833   00509C  6E17               	movwf	___flmul@a^0,c
 11834   00509E  0E00               	movlw	0
 11835   0050A0  6E18               	movwf	(___flmul@a+1)^0,c
 11836   0050A2  0E80               	movlw	128
 11837   0050A4  6E19               	movwf	(___flmul@a+2)^0,c
 11838   0050A6  0EBF               	movlw	191
 11839   0050A8  6E1A               	movwf	(___flmul@a+3)^0,c
 11840   0050AA  C0B5  F013         	movff	fk@I,___flmul@b
 11841   0050AE  C0B6  F014         	movff	fk@I+1,___flmul@b+1
 11842   0050B2  C0B7  F015         	movff	fk@I+2,___flmul@b+2
 11843   0050B6  C0B8  F016         	movff	fk@I+3,___flmul@b+3
 11844   0050BA  EC38  F023         	call	___flmul	;wreg free
 11845   0050BE  C013  F04E         	movff	?___flmul,___fldiv@b
 11846   0050C2  C014  F04F         	movff	?___flmul+1,___fldiv@b+1
 11847   0050C6  C015  F050         	movff	?___flmul+2,___fldiv@b+2
 11848   0050CA  C016  F051         	movff	?___flmul+3,___fldiv@b+3
 11849   0050CE  C0BD  F052         	movff	fk@Cbat,___fldiv@a
 11850   0050D2  C0BE  F053         	movff	fk@Cbat+1,___fldiv@a+1
 11851   0050D6  C0BF  F054         	movff	fk@Cbat+2,___fldiv@a+2
 11852   0050DA  C0C0  F055         	movff	fk@Cbat+3,___fldiv@a+3
 11853   0050DE  EC5F  F025         	call	___fldiv	;wreg free
 11854   0050E2  C04E  F0CB         	movff	?___fldiv,fk@array_mat
 11855   0050E6  C04F  F0CC         	movff	?___fldiv+1,fk@array_mat+1
 11856   0050EA  C050  F0CD         	movff	?___fldiv+2,fk@array_mat+2
 11857   0050EE  C051  F0CE         	movff	?___fldiv+3,fk@array_mat+3
 11858   0050F2  C0C1  F052         	movff	fk@Cc,___fldiv@a
 11859   0050F6  C0C2  F053         	movff	fk@Cc+1,___fldiv@a+1
 11860   0050FA  C0C3  F054         	movff	fk@Cc+2,___fldiv@a+2
 11861   0050FE  C0C4  F055         	movff	fk@Cc+3,___fldiv@a+3
 11862   005102  C0B5  F04E         	movff	fk@I,___fldiv@b
 11863   005106  C0B6  F04F         	movff	fk@I+1,___fldiv@b+1
 11864   00510A  C0B7  F050         	movff	fk@I+2,___fldiv@b+2
 11865   00510E  C0B8  F051         	movff	fk@I+3,___fldiv@b+3
 11866   005112  EC5F  F025         	call	___fldiv	;wreg free
 11867   005116  C04E  F046         	movff	?___fldiv,___flsub@b
 11868   00511A  C04F  F047         	movff	?___fldiv+1,___flsub@b+1
 11869   00511E  C050  F048         	movff	?___fldiv+2,___flsub@b+2
 11870   005122  C051  F049         	movff	?___fldiv+3,___flsub@b+3
 11871   005126  C0C5  F017         	movff	fk@Rc,___flmul@a
 11872   00512A  C0C6  F018         	movff	fk@Rc+1,___flmul@a+1
 11873   00512E  C0C7  F019         	movff	fk@Rc+2,___flmul@a+2
 11874   005132  C0C8  F01A         	movff	fk@Rc+3,___flmul@a+3
 11875   005136  C0C1  F013         	movff	fk@Cc,___flmul@b
 11876   00513A  C0C2  F014         	movff	fk@Cc+1,___flmul@b+1
 11877   00513E  C0C3  F015         	movff	fk@Cc+2,___flmul@b+2
 11878   005142  C0C4  F016         	movff	fk@Cc+3,___flmul@b+3
 11879   005146  EC38  F023         	call	___flmul	;wreg free
 11880   00514A  C013  F052         	movff	?___flmul,___fldiv@a
 11881   00514E  C014  F053         	movff	?___flmul+1,___fldiv@a+1
 11882   005152  C015  F054         	movff	?___flmul+2,___fldiv@a+2
 11883   005156  C016  F055         	movff	?___flmul+3,___fldiv@a+3
 11884   00515A  C0B3  F00A         	movff	fk@xhatk_1,mat_get@matrix
 11885   00515E  C0B4  F00B         	movff	fk@xhatk_1+1,mat_get@matrix+1
 11886   005162  0E01               	movlw	1
 11887   005164  6E09               	movwf	mat_get@column^0,c
 11888   005166  0E02               	movlw	2
 11889   005168  EC6B  F02E         	call	_mat_get
 11890   00516C  C009  F04E         	movff	?_mat_get,___fldiv@b
 11891   005170  C00A  F04F         	movff	?_mat_get+1,___fldiv@b+1
 11892   005174  C00B  F050         	movff	?_mat_get+2,___fldiv@b+2
 11893   005178  C00C  F051         	movff	?_mat_get+3,___fldiv@b+3
 11894   00517C  EC5F  F025         	call	___fldiv	;wreg free
 11895   005180  C04E  F04A         	movff	?___fldiv,___flsub@a
 11896   005184  C04F  F04B         	movff	?___fldiv+1,___flsub@a+1
 11897   005188  C050  F04C         	movff	?___fldiv+2,___flsub@a+2
 11898   00518C  C051  F04D         	movff	?___fldiv+3,___flsub@a+3
 11899   005190  ECB3  F02F         	call	___flsub	;wreg free
 11900   005194  C046  F0CF         	movff	?___flsub,fk@array_mat+4
 11901   005198  C047  F0D0         	movff	?___flsub+1,fk@array_mat+5
 11902   00519C  C048  F0D1         	movff	?___flsub+2,fk@array_mat+6
 11903   0051A0  C049  F0D2         	movff	?___flsub+3,fk@array_mat+7
 11904   0051A4                     
 11905                           ;main.c: 151:     array_mat[0][0] *= dt;
 11906   0051A4  C0CB  F013         	movff	fk@array_mat,___flmul@b
 11907   0051A8  C0CC  F014         	movff	fk@array_mat+1,___flmul@b+1
 11908   0051AC  C0CD  F015         	movff	fk@array_mat+2,___flmul@b+2
 11909   0051B0  C0CE  F016         	movff	fk@array_mat+3,___flmul@b+3
 11910   0051B4  C0B9  F017         	movff	fk@dt,___flmul@a
 11911   0051B8  C0BA  F018         	movff	fk@dt+1,___flmul@a+1
 11912   0051BC  C0BB  F019         	movff	fk@dt+2,___flmul@a+2
 11913   0051C0  C0BC  F01A         	movff	fk@dt+3,___flmul@a+3
 11914   0051C4  EC38  F023         	call	___flmul	;wreg free
 11915   0051C8  C013  F0CB         	movff	?___flmul,fk@array_mat
 11916   0051CC  C014  F0CC         	movff	?___flmul+1,fk@array_mat+1
 11917   0051D0  C015  F0CD         	movff	?___flmul+2,fk@array_mat+2
 11918   0051D4  C016  F0CE         	movff	?___flmul+3,fk@array_mat+3
 11919   0051D8                     
 11920                           ;main.c: 152:     mat_set(1, 1, mat_get(1, 1, xhatk_1) + array_mat[0][0], fk_);
 11921   0051D8  0E01               	movlw	1
 11922   0051DA  0100               	movlb	0	; () banked
 11923   0051DC  6FA7               	movwf	mat_set@column& (0+255),b
 11924   0051DE  C0B3  F00A         	movff	fk@xhatk_1,mat_get@matrix
 11925   0051E2  C0B4  F00B         	movff	fk@xhatk_1+1,mat_get@matrix+1
 11926   0051E6  0E01               	movlw	1
 11927   0051E8  6E09               	movwf	mat_get@column^0,c
 11928   0051EA  0E01               	movlw	1
 11929   0051EC  EC6B  F02E         	call	_mat_get
 11930   0051F0  C009  F02C         	movff	?_mat_get,___fladd@b
 11931   0051F4  C00A  F02D         	movff	?_mat_get+1,___fladd@b+1
 11932   0051F8  C00B  F02E         	movff	?_mat_get+2,___fladd@b+2
 11933   0051FC  C00C  F02F         	movff	?_mat_get+3,___fladd@b+3
 11934   005200  C0CB  F030         	movff	fk@array_mat,___fladd@a
 11935   005204  C0CC  F031         	movff	fk@array_mat+1,___fladd@a+1
 11936   005208  C0CD  F032         	movff	fk@array_mat+2,___fladd@a+2
 11937   00520C  C0CE  F033         	movff	fk@array_mat+3,___fladd@a+3
 11938   005210  ECD8  F020         	call	___fladd	;wreg free
 11939   005214  C02C  F0A8         	movff	?___fladd,mat_set@element
 11940   005218  C02D  F0A9         	movff	?___fladd+1,mat_set@element+1
 11941   00521C  C02E  F0AA         	movff	?___fladd+2,mat_set@element+2
 11942   005220  C02F  F0AB         	movff	?___fladd+3,mat_set@element+3
 11943   005224  C0C9  F0AC         	movff	fk@fk_,mat_set@matrix
 11944   005228  C0CA  F0AD         	movff	fk@fk_+1,mat_set@matrix+1
 11945   00522C  0E01               	movlw	1
 11946   00522E  EC30  F02E         	call	_mat_set
 11947   005232                     
 11948                           ;main.c: 153:     array_mat[1][0] *= dt;
 11949   005232  C0CF  F013         	movff	fk@array_mat+4,___flmul@b
 11950   005236  C0D0  F014         	movff	fk@array_mat+5,___flmul@b+1
 11951   00523A  C0D1  F015         	movff	fk@array_mat+6,___flmul@b+2
 11952   00523E  C0D2  F016         	movff	fk@array_mat+7,___flmul@b+3
 11953   005242  C0B9  F017         	movff	fk@dt,___flmul@a
 11954   005246  C0BA  F018         	movff	fk@dt+1,___flmul@a+1
 11955   00524A  C0BB  F019         	movff	fk@dt+2,___flmul@a+2
 11956   00524E  C0BC  F01A         	movff	fk@dt+3,___flmul@a+3
 11957   005252  EC38  F023         	call	___flmul	;wreg free
 11958   005256  C013  F0CF         	movff	?___flmul,fk@array_mat+4
 11959   00525A  C014  F0D0         	movff	?___flmul+1,fk@array_mat+5
 11960   00525E  C015  F0D1         	movff	?___flmul+2,fk@array_mat+6
 11961   005262  C016  F0D2         	movff	?___flmul+3,fk@array_mat+7
 11962   005266                     
 11963                           ;main.c: 154:     mat_set(2, 1, mat_get(2, 1, xhatk_1) + array_mat[1][0], fk_);
 11964   005266  0E01               	movlw	1
 11965   005268  0100               	movlb	0	; () banked
 11966   00526A  6FA7               	movwf	mat_set@column& (0+255),b
 11967   00526C  C0B3  F00A         	movff	fk@xhatk_1,mat_get@matrix
 11968   005270  C0B4  F00B         	movff	fk@xhatk_1+1,mat_get@matrix+1
 11969   005274  0E01               	movlw	1
 11970   005276  6E09               	movwf	mat_get@column^0,c
 11971   005278  0E02               	movlw	2
 11972   00527A  EC6B  F02E         	call	_mat_get
 11973   00527E  C009  F02C         	movff	?_mat_get,___fladd@b
 11974   005282  C00A  F02D         	movff	?_mat_get+1,___fladd@b+1
 11975   005286  C00B  F02E         	movff	?_mat_get+2,___fladd@b+2
 11976   00528A  C00C  F02F         	movff	?_mat_get+3,___fladd@b+3
 11977   00528E  C0CF  F030         	movff	fk@array_mat+4,___fladd@a
 11978   005292  C0D0  F031         	movff	fk@array_mat+5,___fladd@a+1
 11979   005296  C0D1  F032         	movff	fk@array_mat+6,___fladd@a+2
 11980   00529A  C0D2  F033         	movff	fk@array_mat+7,___fladd@a+3
 11981   00529E  ECD8  F020         	call	___fladd	;wreg free
 11982   0052A2  C02C  F0A8         	movff	?___fladd,mat_set@element
 11983   0052A6  C02D  F0A9         	movff	?___fladd+1,mat_set@element+1
 11984   0052AA  C02E  F0AA         	movff	?___fladd+2,mat_set@element+2
 11985   0052AE  C02F  F0AB         	movff	?___fladd+3,mat_set@element+3
 11986   0052B2  C0C9  F0AC         	movff	fk@fk_,mat_set@matrix
 11987   0052B6  C0CA  F0AD         	movff	fk@fk_+1,mat_set@matrix+1
 11988   0052BA  0E02               	movlw	2
 11989   0052BC  EC30  F02E         	call	_mat_set
 11990   0052C0  0012               	return		;funcret
 11991   0052C2                     __end_of_fk:
 11992                           	callstack 0
 11993                           
 11994 ;; *************** function _mat_set *****************
 11995 ;; Defined at:
 11996 ;;		line 12 in file "matrix_mult.c"
 11997 ;; Parameters:    Size  Location     Type
 11998 ;;  row             1    wreg     unsigned char 
 11999 ;;  column          1   71[BANK0 ] unsigned char 
 12000 ;;  element         4   72[BANK0 ] float 
 12001 ;;  matrix          2   76[BANK0 ] PTR struct MatrixStruct
 12002 ;;		 -> main@sub_mat_3(18), main@sub_mat_2(18), main@sub_mat_1(18), main@Pk_1(18), 
 12003 ;;		 -> main@P(18), main@Lk(18), main@PCorrected(18), main@xhatCorrected(18), 
 12004 ;;		 -> main@fk_(18), main@xhatk_1(18), main@Qk1(18), main@xhat(18), 
 12005 ;;		 -> main@Cprime_transpose(18), main@Cprime(18), main@Fprime(18), main@Eprime_transpose(18), 
 12006 ;;		 -> main@Eprime(18), main@Aprime_transpose(18), main@Aprime(18), 
 12007 ;; Auto vars:     Size  Location     Type
 12008 ;;  row             1   89[COMRAM] unsigned char 
 12009 ;; Return value:  Size  Location     Type
 12010 ;;                  1    wreg      void 
 12011 ;; Registers used:
 12012 ;;		wreg, fsr2l, fsr2h, status,2, status,0, prodl, prodh, cstack
 12013 ;; Tracked objects:
 12014 ;;		On entry : 0/0
 12015 ;;		On exit  : 0/0
 12016 ;;		Unchanged: 0/0
 12017 ;; Data sizes:     COMRAM   BANK0   BANK1   BANK2   BANK3   BANK4   BANK5   BANK6   BANK7   BANK8   BANK9  BANK10  BANK1
      +1  BANK12  BANK13  BANK14  BANK15
 12018 ;;      Params:         0       7       0       0       0       0       0       0       0       0       0       0       
      +0       0       0       0       0
 12019 ;;      Locals:         1       0       0       0       0       0       0       0       0       0       0       0       
      +0       0       0       0       0
 12020 ;;      Temps:          0       5       0       0       0       0       0       0       0       0       0       0       
      +0       0       0       0       0
 12021 ;;      Totals:         1      12       0       0       0       0       0       0       0       0       0       0       
      +0       0       0       0       0
 12022 ;;Total ram usage:       13 bytes
 12023 ;; Hardware stack levels used: 1
 12024 ;; Hardware stack levels required when called: 4
 12025 ;; This function calls:
 12026 ;;		___wmul
 12027 ;; This function is called by:
 12028 ;;		_fk
 12029 ;;		_EKF
 12030 ;;		_main
 12031 ;;		_mat_multiply
 12032 ;;		_mat_transpose
 12033 ;; This function uses a non-reentrant model
 12034 ;;
 12035                           
 12036                           	psect	text39
 12037   005C60                     __ptext39:
 12038                           	callstack 0
 12039   005C60                     _mat_set:
 12040                           	callstack 25
 12041                           
 12042                           ;incstack = 0
 12043                           ;mat_set@row stored from wreg
 12044   005C60  6E5A               	movwf	mat_set@row^0,c
 12045   005C62                     
 12046                           ;matrix_mult.c: 14:     matrix->elements[(row - 1) * matrix->columns + (column - 1)] = e
      +                          lement;
 12047   005C62  0EFF               	movlw	255
 12048   005C64  245A               	addwf	mat_set@row^0,w,c
 12049   005C66  6E03               	movwf	___wmul@multiplier^0,c
 12050   005C68  6A04               	clrf	(___wmul@multiplier+1)^0,c
 12051   005C6A  0EFF               	movlw	255
 12052   005C6C  2204               	addwfc	(___wmul@multiplier+1)^0,f,c
 12053   005C6E  0100               	movlb	0	; () banked
 12054   005C70  EE20 F001          	lfsr	2,1
 12055   005C74  51AC               	movf	mat_set@matrix& (0+255),w,b
 12056   005C76  26D9               	addwf	fsr2l,f,c
 12057   005C78  51AD               	movf	(mat_set@matrix+1)& (0+255),w,b
 12058   005C7A  22DA               	addwfc	fsr2h,f,c
 12059   005C7C  50DF               	movf	indf2,w,c
 12060   005C7E  6FAE               	movwf	??_mat_set& (0+255),b
 12061   005C80  51AE               	movf	??_mat_set& (0+255),w,b
 12062   005C82  6E05               	movwf	___wmul@multiplicand^0,c
 12063   005C84  6A06               	clrf	(___wmul@multiplicand+1)^0,c
 12064   005C86  EC73  F030         	call	___wmul	;wreg free
 12065   005C8A  0100               	movlb	0	; () banked
 12066   005C8C  51A7               	movf	mat_set@column& (0+255),w,b
 12067   005C8E  2403               	addwf	?___wmul^0,w,c
 12068   005C90  6FAF               	movwf	(??_mat_set+1)& (0+255),b
 12069   005C92  0E00               	movlw	0
 12070   005C94  2004               	addwfc	(?___wmul+1)^0,w,c
 12071   005C96  6FB0               	movwf	(??_mat_set+2)& (0+255),b
 12072   005C98  90D8               	bcf	status,0,c
 12073   005C9A  37AF               	rlcf	(??_mat_set+1)& (0+255),f,b
 12074   005C9C  37B0               	rlcf	(??_mat_set+2)& (0+255),f,b
 12075   005C9E  90D8               	bcf	status,0,c
 12076   005CA0  37AF               	rlcf	(??_mat_set+1)& (0+255),f,b
 12077   005CA2  37B0               	rlcf	(??_mat_set+2)& (0+255),f,b
 12078   005CA4  51AF               	movf	(??_mat_set+1)& (0+255),w,b
 12079   005CA6  25AC               	addwf	mat_set@matrix& (0+255),w,b
 12080   005CA8  6FB1               	movwf	(??_mat_set+3)& (0+255),b
 12081   005CAA  51B0               	movf	(??_mat_set+2)& (0+255),w,b
 12082   005CAC  21AD               	addwfc	(mat_set@matrix+1)& (0+255),w,b
 12083   005CAE  6FB2               	movwf	(??_mat_set+4)& (0+255),b
 12084   005CB0  0EFE               	movlw	254
 12085   005CB2  25B1               	addwf	(??_mat_set+3)& (0+255),w,b
 12086   005CB4  6ED9               	movwf	fsr2l,c
 12087   005CB6  0EFF               	movlw	255
 12088   005CB8  21B2               	addwfc	(??_mat_set+4)& (0+255),w,b
 12089   005CBA  6EDA               	movwf	fsr2h,c
 12090   005CBC  0060  F2A3  FFDE   	movff	mat_set@element,postinc2
 12091   005CC2  0060  F2A7  FFDE   	movff	mat_set@element+1,postinc2
 12092   005CC8  0060  F2AB  FFDE   	movff	mat_set@element+2,postinc2
 12093   005CCE  0060  F2AF  FFDE   	movff	mat_set@element+3,postinc2
 12094   005CD4                     
 12095                           ; BSR set to: 0
 12096   005CD4  0012               	return		;funcret
 12097   005CD6                     __end_of_mat_set:
 12098                           	callstack 0
 12099                           
 12100 ;; *************** function _mat_get *****************
 12101 ;; Defined at:
 12102 ;;		line 19 in file "matrix_mult.c"
 12103 ;; Parameters:    Size  Location     Type
 12104 ;;  row             1    wreg     unsigned char 
 12105 ;;  column          1    8[COMRAM] unsigned char 
 12106 ;;  matrix          2    9[COMRAM] PTR struct MatrixStruct
 12107 ;;		 -> main@sub_mat_3(18), main@sub_mat_2(18), main@sub_mat_1(18), main@Pk_1(18), 
 12108 ;;		 -> main@P(18), main@Lk(18), main@PCorrected(18), main@xhatCorrected(18), 
 12109 ;;		 -> main@fk_(18), main@xhatk_1(18), main@Qk1(18), main@xhat(18), 
 12110 ;;		 -> main@Cprime_transpose(18), main@Cprime(18), main@Eprime_transpose(18), main@Eprime(18), 
 12111 ;;		 -> main@Aprime_transpose(18), main@Aprime(18), 
 12112 ;; Auto vars:     Size  Location     Type
 12113 ;;  row             1   17[COMRAM] unsigned char 
 12114 ;; Return value:  Size  Location     Type
 12115 ;;                  4    8[COMRAM] float 
 12116 ;; Registers used:
 12117 ;;		wreg, fsr2l, fsr2h, status,2, status,0, prodl, prodh, cstack
 12118 ;; Tracked objects:
 12119 ;;		On entry : 0/0
 12120 ;;		On exit  : 0/0
 12121 ;;		Unchanged: 0/0
 12122 ;; Data sizes:     COMRAM   BANK0   BANK1   BANK2   BANK3   BANK4   BANK5   BANK6   BANK7   BANK8   BANK9  BANK10  BANK1
      +1  BANK12  BANK13  BANK14  BANK15
 12123 ;;      Params:         4       0       0       0       0       0       0       0       0       0       0       0       
      +0       0       0       0       0
 12124 ;;      Locals:         1       0       0       0       0       0       0       0       0       0       0       0       
      +0       0       0       0       0
 12125 ;;      Temps:          5       0       0       0       0       0       0       0       0       0       0       0       
      +0       0       0       0       0
 12126 ;;      Totals:        10       0       0       0       0       0       0       0       0       0       0       0       
      +0       0       0       0       0
 12127 ;;Total ram usage:       10 bytes
 12128 ;; Hardware stack levels used: 1
 12129 ;; Hardware stack levels required when called: 4
 12130 ;; This function calls:
 12131 ;;		___wmul
 12132 ;; This function is called by:
 12133 ;;		_fk
 12134 ;;		_EKF
 12135 ;;		_main
 12136 ;;		_mat_multiply
 12137 ;;		_mat_transpose
 12138 ;; This function uses a non-reentrant model
 12139 ;;
 12140                           
 12141                           	psect	text40
 12142   005CD6                     __ptext40:
 12143                           	callstack 0
 12144   005CD6                     _mat_get:
 12145                           	callstack 25
 12146                           
 12147                           ; BSR set to: 0
 12148                           ;incstack = 0
 12149                           ;mat_get@row stored from wreg
 12150   005CD6  6E12               	movwf	mat_get@row^0,c
 12151   005CD8                     
 12152                           ;matrix_mult.c: 20:     return matrix->elements[(row - 1) * matrix->columns + (column - 
      +                          1)];
 12153   005CD8  0EFF               	movlw	255
 12154   005CDA  2412               	addwf	mat_get@row^0,w,c
 12155   005CDC  6E03               	movwf	___wmul@multiplier^0,c
 12156   005CDE  6A04               	clrf	(___wmul@multiplier+1)^0,c
 12157   005CE0  0EFF               	movlw	255
 12158   005CE2  2204               	addwfc	(___wmul@multiplier+1)^0,f,c
 12159   005CE4  EE20 F001          	lfsr	2,1
 12160   005CE8  500A               	movf	mat_get@matrix^0,w,c
 12161   005CEA  26D9               	addwf	fsr2l,f,c
 12162   005CEC  500B               	movf	(mat_get@matrix+1)^0,w,c
 12163   005CEE  22DA               	addwfc	fsr2h,f,c
 12164   005CF0  50DF               	movf	indf2,w,c
 12165   005CF2  6E0D               	movwf	??_mat_get^0,c
 12166   005CF4  500D               	movf	??_mat_get^0,w,c
 12167   005CF6  6E05               	movwf	___wmul@multiplicand^0,c
 12168   005CF8  6A06               	clrf	(___wmul@multiplicand+1)^0,c
 12169   005CFA  EC73  F030         	call	___wmul	;wreg free
 12170   005CFE  5009               	movf	mat_get@column^0,w,c
 12171   005D00  2403               	addwf	?___wmul^0,w,c
 12172   005D02  6E0E               	movwf	(??_mat_get+1)^0,c
 12173   005D04  0E00               	movlw	0
 12174   005D06  2004               	addwfc	(?___wmul+1)^0,w,c
 12175   005D08  6E0F               	movwf	(??_mat_get+2)^0,c
 12176   005D0A  90D8               	bcf	status,0,c
 12177   005D0C  360E               	rlcf	(??_mat_get+1)^0,f,c
 12178   005D0E  360F               	rlcf	(??_mat_get+2)^0,f,c
 12179   005D10  90D8               	bcf	status,0,c
 12180   005D12  360E               	rlcf	(??_mat_get+1)^0,f,c
 12181   005D14  360F               	rlcf	(??_mat_get+2)^0,f,c
 12182   005D16  500E               	movf	(??_mat_get+1)^0,w,c
 12183   005D18  240A               	addwf	mat_get@matrix^0,w,c
 12184   005D1A  6E10               	movwf	(??_mat_get+3)^0,c
 12185   005D1C  500F               	movf	(??_mat_get+2)^0,w,c
 12186   005D1E  200B               	addwfc	(mat_get@matrix+1)^0,w,c
 12187   005D20  6E11               	movwf	(??_mat_get+4)^0,c
 12188   005D22  0EFE               	movlw	254
 12189   005D24  2410               	addwf	(??_mat_get+3)^0,w,c
 12190   005D26  6ED9               	movwf	fsr2l,c
 12191   005D28  0EFF               	movlw	255
 12192   005D2A  2011               	addwfc	(??_mat_get+4)^0,w,c
 12193   005D2C  6EDA               	movwf	fsr2h,c
 12194   005D2E  006F FF78  F009    	movff	postinc2,?_mat_get
 12195   005D34  006F FF78  F00A    	movff	postinc2,?_mat_get+1
 12196   005D3A  006F FF78  F00B    	movff	postinc2,?_mat_get+2
 12197   005D40  006F FF78  F00C    	movff	postinc2,?_mat_get+3
 12198   005D46  0012               	return		;funcret
 12199   005D48                     __end_of_mat_get:
 12200                           	callstack 0
 12201                           
 12202 ;; *************** function ___wmul *****************
 12203 ;; Defined at:
 12204 ;;		line 15 in file "C:\Program Files\Microchip\xc8\v2.41\pic\sources\c99\common\Umul16.c"
 12205 ;; Parameters:    Size  Location     Type
 12206 ;;  multiplier      2    2[COMRAM] unsigned int 
 12207 ;;  multiplicand    2    4[COMRAM] unsigned int 
 12208 ;; Auto vars:     Size  Location     Type
 12209 ;;  product         2    6[COMRAM] unsigned int 
 12210 ;; Return value:  Size  Location     Type
 12211 ;;                  2    2[COMRAM] unsigned int 
 12212 ;; Registers used:
 12213 ;;		wreg, status,2, status,0, prodl, prodh
 12214 ;; Tracked objects:
 12215 ;;		On entry : 0/0
 12216 ;;		On exit  : 0/0
 12217 ;;		Unchanged: 0/0
 12218 ;; Data sizes:     COMRAM   BANK0   BANK1   BANK2   BANK3   BANK4   BANK5   BANK6   BANK7   BANK8   BANK9  BANK10  BANK1
      +1  BANK12  BANK13  BANK14  BANK15
 12219 ;;      Params:         4       0       0       0       0       0       0       0       0       0       0       0       
      +0       0       0       0       0
 12220 ;;      Locals:         2       0       0       0       0       0       0       0       0       0       0       0       
      +0       0       0       0       0
 12221 ;;      Temps:          0       0       0       0       0       0       0       0       0       0       0       0       
      +0       0       0       0       0
 12222 ;;      Totals:         6       0       0       0       0       0       0       0       0       0       0       0       
      +0       0       0       0       0
 12223 ;;Total ram usage:        6 bytes
 12224 ;; Hardware stack levels used: 1
 12225 ;; Hardware stack levels required when called: 3
 12226 ;; This function calls:
 12227 ;;		Nothing
 12228 ;; This function is called by:
 12229 ;;		_mat_set
 12230 ;;		_mat_get
 12231 ;; This function uses a non-reentrant model
 12232 ;;
 12233                           
 12234                           	psect	text41
 12235   0060E6                     __ptext41:
 12236                           	callstack 0
 12237   0060E6                     ___wmul:
 12238                           	callstack 25
 12239   0060E6  5003               	movf	___wmul@multiplier^0,w,c
 12240   0060E8  0205               	mulwf	___wmul@multiplicand^0,c
 12241   0060EA  006F FFCC  F007    	movff	prodl,___wmul@product
 12242   0060F0  006F FFD0  F008    	movff	prodh,___wmul@product+1
 12243   0060F6  5003               	movf	___wmul@multiplier^0,w,c
 12244   0060F8  0206               	mulwf	(___wmul@multiplicand+1)^0,c
 12245   0060FA  50F3               	movf	243,w,c
 12246   0060FC  2608               	addwf	(___wmul@product+1)^0,f,c
 12247   0060FE  5004               	movf	(___wmul@multiplier+1)^0,w,c
 12248   006100  0205               	mulwf	___wmul@multiplicand^0,c
 12249   006102  50F3               	movf	243,w,c
 12250   006104  2608               	addwf	(___wmul@product+1)^0,f,c
 12251   006106  C007  F003         	movff	___wmul@product,?___wmul
 12252   00610A  C008  F004         	movff	___wmul@product+1,?___wmul+1
 12253   00610E  0012               	return		;funcret
 12254   006110                     __end_of___wmul:
 12255                           	callstack 0
 12256                           
 12257 ;; *************** function ___flsub *****************
 12258 ;; Defined at:
 12259 ;;		line 245 in file "C:\Program Files\Microchip\xc8\v2.41\pic\sources\c99\common\sprcadd.c"
 12260 ;; Parameters:    Size  Location     Type
 12261 ;;  b               4   69[COMRAM] unsigned int 
 12262 ;;  a               4   73[COMRAM] unsigned int 
 12263 ;; Auto vars:     Size  Location     Type
 12264 ;;		None
 12265 ;; Return value:  Size  Location     Type
 12266 ;;                  4   69[COMRAM] unsigned int 
 12267 ;; Registers used:
 12268 ;;		wreg, status,2, status,0, cstack
 12269 ;; Tracked objects:
 12270 ;;		On entry : 0/0
 12271 ;;		On exit  : 0/0
 12272 ;;		Unchanged: 0/0
 12273 ;; Data sizes:     COMRAM   BANK0   BANK1   BANK2   BANK3   BANK4   BANK5   BANK6   BANK7   BANK8   BANK9  BANK10  BANK1
      +1  BANK12  BANK13  BANK14  BANK15
 12274 ;;      Params:         8       0       0       0       0       0       0       0       0       0       0       0       
      +0       0       0       0       0
 12275 ;;      Locals:         0       0       0       0       0       0       0       0       0       0       0       0       
      +0       0       0       0       0
 12276 ;;      Temps:          0       0       0       0       0       0       0       0       0       0       0       0       
      +0       0       0       0       0
 12277 ;;      Totals:         8       0       0       0       0       0       0       0       0       0       0       0       
      +0       0       0       0       0
 12278 ;;Total ram usage:        8 bytes
 12279 ;; Hardware stack levels used: 1
 12280 ;; Hardware stack levels required when called: 4
 12281 ;; This function calls:
 12282 ;;		___fladd
 12283 ;; This function is called by:
 12284 ;;		_hk
 12285 ;;		_fk
 12286 ;;		_EKF
 12287 ;;		_expf
 12288 ;;		_powf
 12289 ;; This function uses a non-reentrant model
 12290 ;;
 12291                           
 12292                           	psect	text42
 12293   005F66                     __ptext42:
 12294                           	callstack 0
 12295   005F66                     ___flsub:
 12296                           	callstack 25
 12297   005F66  0E00               	movlw	0
 12298   005F68  1A4A               	xorwf	___flsub@a^0,f,c
 12299   005F6A  0E00               	movlw	0
 12300   005F6C  1A4B               	xorwf	(___flsub@a+1)^0,f,c
 12301   005F6E  0E00               	movlw	0
 12302   005F70  1A4C               	xorwf	(___flsub@a+2)^0,f,c
 12303   005F72  0E80               	movlw	128
 12304   005F74  1A4D               	xorwf	(___flsub@a+3)^0,f,c
 12305   005F76  C046  F02C         	movff	___flsub@b,___fladd@b
 12306   005F7A  C047  F02D         	movff	___flsub@b+1,___fladd@b+1
 12307   005F7E  C048  F02E         	movff	___flsub@b+2,___fladd@b+2
 12308   005F82  C049  F02F         	movff	___flsub@b+3,___fladd@b+3
 12309   005F86  C04A  F030         	movff	___flsub@a,___fladd@a
 12310   005F8A  C04B  F031         	movff	___flsub@a+1,___fladd@a+1
 12311   005F8E  C04C  F032         	movff	___flsub@a+2,___fladd@a+2
 12312   005F92  C04D  F033         	movff	___flsub@a+3,___fladd@a+3
 12313   005F96  ECD8  F020         	call	___fladd	;wreg free
 12314   005F9A  C02C  F046         	movff	?___fladd,?___flsub
 12315   005F9E  C02D  F047         	movff	?___fladd+1,?___flsub+1
 12316   005FA2  C02E  F048         	movff	?___fladd+2,?___flsub+2
 12317   005FA6  C02F  F049         	movff	?___fladd+3,?___flsub+3
 12318   005FAA  0012               	return		;funcret
 12319   005FAC                     __end_of___flsub:
 12320                           	callstack 0
 12321                           
 12322 ;; *************** function ___fladd *****************
 12323 ;; Defined at:
 12324 ;;		line 10 in file "C:\Program Files\Microchip\xc8\v2.41\pic\sources\c99\common\sprcadd.c"
 12325 ;; Parameters:    Size  Location     Type
 12326 ;;  b               4   43[COMRAM] unsigned int 
 12327 ;;  a               4   47[COMRAM] unsigned int 
 12328 ;; Auto vars:     Size  Location     Type
 12329 ;;  grs             1   58[COMRAM] unsigned char 
 12330 ;;  bexp            1   57[COMRAM] unsigned char 
 12331 ;;  aexp            1   56[COMRAM] unsigned char 
 12332 ;;  signs           1   55[COMRAM] unsigned char 
 12333 ;; Return value:  Size  Location     Type
 12334 ;;                  4   43[COMRAM] unsigned char 
 12335 ;; Registers used:
 12336 ;;		wreg, status,2, status,0
 12337 ;; Tracked objects:
 12338 ;;		On entry : 0/0
 12339 ;;		On exit  : 0/0
 12340 ;;		Unchanged: 0/0
 12341 ;; Data sizes:     COMRAM   BANK0   BANK1   BANK2   BANK3   BANK4   BANK5   BANK6   BANK7   BANK8   BANK9  BANK10  BANK1
      +1  BANK12  BANK13  BANK14  BANK15
 12342 ;;      Params:         8       0       0       0       0       0       0       0       0       0       0       0       
      +0       0       0       0       0
 12343 ;;      Locals:         4       0       0       0       0       0       0       0       0       0       0       0       
      +0       0       0       0       0
 12344 ;;      Temps:          4       0       0       0       0       0       0       0       0       0       0       0       
      +0       0       0       0       0
 12345 ;;      Totals:        16       0       0       0       0       0       0       0       0       0       0       0       
      +0       0       0       0       0
 12346 ;;Total ram usage:       16 bytes
 12347 ;; Hardware stack levels used: 1
 12348 ;; Hardware stack levels required when called: 3
 12349 ;; This function calls:
 12350 ;;		Nothing
 12351 ;; This function is called by:
 12352 ;;		_fk
 12353 ;;		_EKF
 12354 ;;		_mat_multiply
 12355 ;;		___flsub
 12356 ;;		_expf
 12357 ;;		_powf
 12358 ;;		_sqrtf
 12359 ;; This function uses a non-reentrant model
 12360 ;;
 12361                           
 12362                           	psect	text43
 12363   0041B0                     __ptext43:
 12364                           	callstack 0
 12365   0041B0                     ___fladd:
 12366                           	callstack 25
 12367   0041B0  502F               	movf	(___fladd@b+3)^0,w,c
 12368   0041B2  0B80               	andlw	128
 12369   0041B4  6E38               	movwf	___fladd@signs^0,c
 12370   0041B6  502F               	movf	(___fladd@b+3)^0,w,c
 12371   0041B8  242F               	addwf	(___fladd@b+3)^0,w,c
 12372   0041BA  6E3A               	movwf	___fladd@bexp^0,c
 12373   0041BC  AE2E               	btfss	(___fladd@b+2)^0,7,c
 12374   0041BE  EFE3  F020         	goto	u2371
 12375   0041C2  EFE5  F020         	goto	u2370
 12376   0041C6                     u2371:
 12377   0041C6  EFE6  F020         	goto	l3240
 12378   0041CA                     u2370:
 12379   0041CA  803A               	bsf	___fladd@bexp^0,0,c
 12380   0041CC                     l3240:
 12381   0041CC  503A               	movf	___fladd@bexp^0,w,c
 12382   0041CE  B4D8               	btfsc	status,2,c
 12383   0041D0  EFEC  F020         	goto	u2381
 12384   0041D4  EFEE  F020         	goto	u2380
 12385   0041D8                     u2381:
 12386   0041D8  EF03  F021         	goto	l3250
 12387   0041DC                     u2380:
 12388   0041DC  283A               	incf	___fladd@bexp^0,w,c
 12389   0041DE  A4D8               	btfss	status,2,c
 12390   0041E0  EFF4  F020         	goto	u2391
 12391   0041E4  EFF6  F020         	goto	u2390
 12392   0041E8                     u2391:
 12393   0041E8  EFFE  F020         	goto	l3246
 12394   0041EC                     u2390:
 12395   0041EC  0E00               	movlw	0
 12396   0041EE  6E2C               	movwf	___fladd@b^0,c
 12397   0041F0  0E00               	movlw	0
 12398   0041F2  6E2D               	movwf	(___fladd@b+1)^0,c
 12399   0041F4  0E00               	movlw	0
 12400   0041F6  6E2E               	movwf	(___fladd@b+2)^0,c
 12401   0041F8  0E00               	movlw	0
 12402   0041FA  6E2F               	movwf	(___fladd@b+3)^0,c
 12403   0041FC                     l3246:
 12404   0041FC  8E2E               	bsf	(___fladd@b+2)^0,7,c
 12405   0041FE  0E00               	movlw	0
 12406   004200  6E2F               	movwf	(___fladd@b+3)^0,c
 12407   004202  EF0B  F021         	goto	l3252
 12408   004206                     l3250:
 12409   004206  0E00               	movlw	0
 12410   004208  6E2C               	movwf	___fladd@b^0,c
 12411   00420A  0E00               	movlw	0
 12412   00420C  6E2D               	movwf	(___fladd@b+1)^0,c
 12413   00420E  0E00               	movlw	0
 12414   004210  6E2E               	movwf	(___fladd@b+2)^0,c
 12415   004212  0E00               	movlw	0
 12416   004214  6E2F               	movwf	(___fladd@b+3)^0,c
 12417   004216                     l3252:
 12418   004216  5033               	movf	(___fladd@a+3)^0,w,c
 12419   004218  0B80               	andlw	128
 12420   00421A  6E39               	movwf	___fladd@aexp^0,c
 12421   00421C  5038               	movf	___fladd@signs^0,w,c
 12422   00421E  1839               	xorwf	___fladd@aexp^0,w,c
 12423   004220  B4D8               	btfsc	status,2,c
 12424   004222  EF15  F021         	goto	u2401
 12425   004226  EF17  F021         	goto	u2400
 12426   00422A                     u2401:
 12427   00422A  EF18  F021         	goto	l3258
 12428   00422E                     u2400:
 12429   00422E  8C38               	bsf	___fladd@signs^0,6,c
 12430   004230                     l3258:
 12431   004230  5033               	movf	(___fladd@a+3)^0,w,c
 12432   004232  2433               	addwf	(___fladd@a+3)^0,w,c
 12433   004234  6E39               	movwf	___fladd@aexp^0,c
 12434   004236  AE32               	btfss	(___fladd@a+2)^0,7,c
 12435   004238  EF20  F021         	goto	u2411
 12436   00423C  EF22  F021         	goto	u2410
 12437   004240                     u2411:
 12438   004240  EF23  F021         	goto	l3264
 12439   004244                     u2410:
 12440   004244  8039               	bsf	___fladd@aexp^0,0,c
 12441   004246                     l3264:
 12442   004246  5039               	movf	___fladd@aexp^0,w,c
 12443   004248  B4D8               	btfsc	status,2,c
 12444   00424A  EF29  F021         	goto	u2421
 12445   00424E  EF2B  F021         	goto	u2420
 12446   004252                     u2421:
 12447   004252  EF40  F021         	goto	l3274
 12448   004256                     u2420:
 12449   004256  2839               	incf	___fladd@aexp^0,w,c
 12450   004258  A4D8               	btfss	status,2,c
 12451   00425A  EF31  F021         	goto	u2431
 12452   00425E  EF33  F021         	goto	u2430
 12453   004262                     u2431:
 12454   004262  EF3B  F021         	goto	l3270
 12455   004266                     u2430:
 12456   004266  0E00               	movlw	0
 12457   004268  6E30               	movwf	___fladd@a^0,c
 12458   00426A  0E00               	movlw	0
 12459   00426C  6E31               	movwf	(___fladd@a+1)^0,c
 12460   00426E  0E00               	movlw	0
 12461   004270  6E32               	movwf	(___fladd@a+2)^0,c
 12462   004272  0E00               	movlw	0
 12463   004274  6E33               	movwf	(___fladd@a+3)^0,c
 12464   004276                     l3270:
 12465   004276  8E32               	bsf	(___fladd@a+2)^0,7,c
 12466   004278  0E00               	movlw	0
 12467   00427A  6E33               	movwf	(___fladd@a+3)^0,c
 12468   00427C  EF48  F021         	goto	l3276
 12469   004280                     l3274:
 12470   004280  0E00               	movlw	0
 12471   004282  6E30               	movwf	___fladd@a^0,c
 12472   004284  0E00               	movlw	0
 12473   004286  6E31               	movwf	(___fladd@a+1)^0,c
 12474   004288  0E00               	movlw	0
 12475   00428A  6E32               	movwf	(___fladd@a+2)^0,c
 12476   00428C  0E00               	movlw	0
 12477   00428E  6E33               	movwf	(___fladd@a+3)^0,c
 12478   004290                     l3276:
 12479   004290  503A               	movf	___fladd@bexp^0,w,c
 12480   004292  5C39               	subwf	___fladd@aexp^0,w,c
 12481   004294  B0D8               	btfsc	status,0,c
 12482   004296  EF4F  F021         	goto	u2441
 12483   00429A  EF51  F021         	goto	u2440
 12484   00429E                     u2441:
 12485   00429E  EF78  F021         	goto	l3312
 12486   0042A2                     u2440:
 12487   0042A2  AC38               	btfss	___fladd@signs^0,6,c
 12488   0042A4  EF56  F021         	goto	u2451
 12489   0042A8  EF58  F021         	goto	u2450
 12490   0042AC                     u2451:
 12491   0042AC  EF5A  F021         	goto	l3282
 12492   0042B0                     u2450:
 12493   0042B0  0E80               	movlw	128
 12494   0042B2  1A38               	xorwf	___fladd@signs^0,f,c
 12495   0042B4                     l3282:
 12496   0042B4  C03A  F03B         	movff	___fladd@bexp,___fladd@grs
 12497   0042B8  C039  F03A         	movff	___fladd@aexp,___fladd@bexp
 12498   0042BC  C03B  F039         	movff	___fladd@grs,___fladd@aexp
 12499   0042C0  C02C  F03B         	movff	___fladd@b,___fladd@grs
 12500   0042C4  C030  F02C         	movff	___fladd@a,___fladd@b
 12501   0042C8  C03B  F030         	movff	___fladd@grs,___fladd@a
 12502   0042CC  C02D  F03B         	movff	___fladd@b+1,___fladd@grs
 12503   0042D0  C031  F02D         	movff	___fladd@a+1,___fladd@b+1
 12504   0042D4  C03B  F031         	movff	___fladd@grs,___fladd@a+1
 12505   0042D8  C02E  F03B         	movff	___fladd@b+2,___fladd@grs
 12506   0042DC  C032  F02E         	movff	___fladd@a+2,___fladd@b+2
 12507   0042E0  C03B  F032         	movff	___fladd@grs,___fladd@a+2
 12508   0042E4  C02F  F03B         	movff	___fladd@b+3,___fladd@grs
 12509   0042E8  C033  F02F         	movff	___fladd@a+3,___fladd@b+3
 12510   0042EC  C03B  F033         	movff	___fladd@grs,___fladd@a+3
 12511   0042F0                     l3312:
 12512   0042F0  0E00               	movlw	0
 12513   0042F2  6E3B               	movwf	___fladd@grs^0,c
 12514   0042F4  503A               	movf	___fladd@bexp^0,w,c
 12515   0042F6  C039  F034         	movff	___fladd@aexp,??___fladd
 12516   0042FA  6A35               	clrf	(??___fladd+1)^0,c
 12517   0042FC  5E34               	subwf	??___fladd^0,f,c
 12518   0042FE  0E00               	movlw	0
 12519   004300  5A35               	subwfb	(??___fladd+1)^0,f,c
 12520   004302  BE35               	btfsc	(??___fladd+1)^0,7,c
 12521   004304  EF8D  F021         	goto	u2461
 12522   004308  5035               	movf	(??___fladd+1)^0,w,c
 12523   00430A  E109               	bnz	u2460
 12524   00430C  0E1A               	movlw	26
 12525   00430E  5C34               	subwf	??___fladd^0,w,c
 12526   004310  A0D8               	btfss	status,0,c
 12527   004312  EF8D  F021         	goto	u2461
 12528   004316  EF8F  F021         	goto	u2460
 12529   00431A                     u2461:
 12530   00431A  EFC6  F021         	goto	l958
 12531   00431E                     u2460:
 12532   00431E  502C               	movf	___fladd@b^0,w,c
 12533   004320  102D               	iorwf	(___fladd@b+1)^0,w,c
 12534   004322  102E               	iorwf	(___fladd@b+2)^0,w,c
 12535   004324  102F               	iorwf	(___fladd@b+3)^0,w,c
 12536   004326  A4D8               	btfss	status,2,c
 12537   004328  EF98  F021         	goto	u2471
 12538   00432C  EF9B  F021         	goto	u2470
 12539   004330                     u2471:
 12540   004330  0E01               	movlw	1
 12541   004332  EF9C  F021         	goto	u2480
 12542   004336                     u2470:
 12543   004336  0E00               	movlw	0
 12544   004338                     u2480:
 12545   004338  6E3B               	movwf	___fladd@grs^0,c
 12546   00433A  0E00               	movlw	0
 12547   00433C  6E2C               	movwf	___fladd@b^0,c
 12548   00433E  0E00               	movlw	0
 12549   004340  6E2D               	movwf	(___fladd@b+1)^0,c
 12550   004342  0E00               	movlw	0
 12551   004344  6E2E               	movwf	(___fladd@b+2)^0,c
 12552   004346  0E00               	movlw	0
 12553   004348  6E2F               	movwf	(___fladd@b+3)^0,c
 12554   00434A  C039  F03A         	movff	___fladd@aexp,___fladd@bexp
 12555   00434E  EFCF  F021         	goto	l957
 12556   004352                     l959:
 12557   004352  A03B               	btfss	___fladd@grs^0,0,c
 12558   004354  EFAE  F021         	goto	u2491
 12559   004358  EFB0  F021         	goto	u2490
 12560   00435C                     u2491:
 12561   00435C  EFB6  F021         	goto	l3324
 12562   004360                     u2490:
 12563   004360  90D8               	bcf	status,0,c
 12564   004362  303B               	rrcf	___fladd@grs^0,w,c
 12565   004364  0901               	iorlw	1
 12566   004366  6E3B               	movwf	___fladd@grs^0,c
 12567   004368  EFB8  F021         	goto	l3326
 12568   00436C                     l3324:
 12569   00436C  90D8               	bcf	status,0,c
 12570   00436E  323B               	rrcf	___fladd@grs^0,f,c
 12571   004370                     l3326:
 12572   004370  A02C               	btfss	___fladd@b^0,0,c
 12573   004372  EFBD  F021         	goto	u2501
 12574   004376  EFBF  F021         	goto	u2500
 12575   00437A                     u2501:
 12576   00437A  EFC0  F021         	goto	l3330
 12577   00437E                     u2500:
 12578   00437E  8E3B               	bsf	___fladd@grs^0,7,c
 12579   004380                     l3330:
 12580   004380  342F               	rlcf	(___fladd@b+3)^0,w,c
 12581   004382  322F               	rrcf	(___fladd@b+3)^0,f,c
 12582   004384  322E               	rrcf	(___fladd@b+2)^0,f,c
 12583   004386  322D               	rrcf	(___fladd@b+1)^0,f,c
 12584   004388  322C               	rrcf	___fladd@b^0,f,c
 12585   00438A  2A3A               	incf	___fladd@bexp^0,f,c
 12586   00438C                     l958:
 12587   00438C  5039               	movf	___fladd@aexp^0,w,c
 12588   00438E  5C3A               	subwf	___fladd@bexp^0,w,c
 12589   004390  A0D8               	btfss	status,0,c
 12590   004392  EFCD  F021         	goto	u2511
 12591   004396  EFCF  F021         	goto	u2510
 12592   00439A                     u2511:
 12593   00439A  EFA9  F021         	goto	l959
 12594   00439E                     u2510:
 12595   00439E                     l957:
 12596   00439E  BC38               	btfsc	___fladd@signs^0,6,c
 12597   0043A0  EFD4  F021         	goto	u2521
 12598   0043A4  EFD6  F021         	goto	u2520
 12599   0043A8                     u2521:
 12600   0043A8  EF16  F022         	goto	l3358
 12601   0043AC                     u2520:
 12602   0043AC  503A               	movf	___fladd@bexp^0,w,c
 12603   0043AE  A4D8               	btfss	status,2,c
 12604   0043B0  EFDC  F021         	goto	u2531
 12605   0043B4  EFDE  F021         	goto	u2530
 12606   0043B8                     u2531:
 12607   0043B8  EFE8  F021         	goto	l3340
 12608   0043BC                     u2530:
 12609   0043BC  0E00               	movlw	0
 12610   0043BE  6E2C               	movwf	?___fladd^0,c
 12611   0043C0  0E00               	movlw	0
 12612   0043C2  6E2D               	movwf	(?___fladd+1)^0,c
 12613   0043C4  0E00               	movlw	0
 12614   0043C6  6E2E               	movwf	(?___fladd+2)^0,c
 12615   0043C8  0E00               	movlw	0
 12616   0043CA  6E2F               	movwf	(?___fladd+3)^0,c
 12617   0043CC  EF37  F023         	goto	l966
 12618   0043D0                     l3340:
 12619   0043D0  5030               	movf	___fladd@a^0,w,c
 12620   0043D2  262C               	addwf	___fladd@b^0,f,c
 12621   0043D4  5031               	movf	(___fladd@a+1)^0,w,c
 12622   0043D6  222D               	addwfc	(___fladd@b+1)^0,f,c
 12623   0043D8  5032               	movf	(___fladd@a+2)^0,w,c
 12624   0043DA  222E               	addwfc	(___fladd@b+2)^0,f,c
 12625   0043DC  5033               	movf	(___fladd@a+3)^0,w,c
 12626   0043DE  222F               	addwfc	(___fladd@b+3)^0,f,c
 12627   0043E0  A02F               	btfss	(___fladd@b+3)^0,0,c
 12628   0043E2  EFF5  F021         	goto	u2541
 12629   0043E6  EFF7  F021         	goto	u2540
 12630   0043EA                     u2541:
 12631   0043EA  EFA3  F022         	goto	l3394
 12632   0043EE                     u2540:
 12633   0043EE  A03B               	btfss	___fladd@grs^0,0,c
 12634   0043F0  EFFC  F021         	goto	u2551
 12635   0043F4  EFFE  F021         	goto	u2550
 12636   0043F8                     u2551:
 12637   0043F8  EF04  F022         	goto	l3348
 12638   0043FC                     u2550:
 12639   0043FC  90D8               	bcf	status,0,c
 12640   0043FE  303B               	rrcf	___fladd@grs^0,w,c
 12641   004400  0901               	iorlw	1
 12642   004402  6E3B               	movwf	___fladd@grs^0,c
 12643   004404  EF06  F022         	goto	l3350
 12644   004408                     l3348:
 12645   004408  90D8               	bcf	status,0,c
 12646   00440A  323B               	rrcf	___fladd@grs^0,f,c
 12647   00440C                     l3350:
 12648   00440C  A02C               	btfss	___fladd@b^0,0,c
 12649   00440E  EF0B  F022         	goto	u2561
 12650   004412  EF0D  F022         	goto	u2560
 12651   004416                     u2561:
 12652   004416  EF0E  F022         	goto	l3354
 12653   00441A                     u2560:
 12654   00441A  8E3B               	bsf	___fladd@grs^0,7,c
 12655   00441C                     l3354:
 12656   00441C  342F               	rlcf	(___fladd@b+3)^0,w,c
 12657   00441E  322F               	rrcf	(___fladd@b+3)^0,f,c
 12658   004420  322E               	rrcf	(___fladd@b+2)^0,f,c
 12659   004422  322D               	rrcf	(___fladd@b+1)^0,f,c
 12660   004424  322C               	rrcf	___fladd@b^0,f,c
 12661   004426  2A3A               	incf	___fladd@bexp^0,f,c
 12662   004428  EFA3  F022         	goto	l3394
 12663   00442C                     l3358:
 12664   00442C  5030               	movf	___fladd@a^0,w,c
 12665   00442E  5C2C               	subwf	___fladd@b^0,w,c
 12666   004430  5031               	movf	(___fladd@a+1)^0,w,c
 12667   004432  582D               	subwfb	(___fladd@b+1)^0,w,c
 12668   004434  5032               	movf	(___fladd@a+2)^0,w,c
 12669   004436  582E               	subwfb	(___fladd@b+2)^0,w,c
 12670   004438  502F               	movf	(___fladd@b+3)^0,w,c
 12671   00443A  0A80               	xorlw	128
 12672   00443C  6E34               	movwf	??___fladd^0,c
 12673   00443E  5033               	movf	(___fladd@a+3)^0,w,c
 12674   004440  0A80               	xorlw	128
 12675   004442  5834               	subwfb	??___fladd^0,w,c
 12676   004444  B0D8               	btfsc	status,0,c
 12677   004446  EF27  F022         	goto	u2571
 12678   00444A  EF29  F022         	goto	u2570
 12679   00444E                     u2571:
 12680   00444E  EF54  F022         	goto	l3368
 12681   004452                     u2570:
 12682   004452  502C               	movf	___fladd@b^0,w,c
 12683   004454  5C30               	subwf	___fladd@a^0,w,c
 12684   004456  6E34               	movwf	??___fladd^0,c
 12685   004458  502D               	movf	(___fladd@b+1)^0,w,c
 12686   00445A  5831               	subwfb	(___fladd@a+1)^0,w,c
 12687   00445C  6E35               	movwf	(??___fladd+1)^0,c
 12688   00445E  502E               	movf	(___fladd@b+2)^0,w,c
 12689   004460  5832               	subwfb	(___fladd@a+2)^0,w,c
 12690   004462  6E36               	movwf	(??___fladd+2)^0,c
 12691   004464  502F               	movf	(___fladd@b+3)^0,w,c
 12692   004466  5833               	subwfb	(___fladd@a+3)^0,w,c
 12693   004468  6E37               	movwf	(??___fladd+3)^0,c
 12694   00446A  0EFF               	movlw	255
 12695   00446C  2434               	addwf	??___fladd^0,w,c
 12696   00446E  6E2C               	movwf	___fladd@b^0,c
 12697   004470  0EFF               	movlw	255
 12698   004472  2035               	addwfc	(??___fladd+1)^0,w,c
 12699   004474  6E2D               	movwf	(___fladd@b+1)^0,c
 12700   004476  0EFF               	movlw	255
 12701   004478  2036               	addwfc	(??___fladd+2)^0,w,c
 12702   00447A  6E2E               	movwf	(___fladd@b+2)^0,c
 12703   00447C  0EFF               	movlw	255
 12704   00447E  2037               	addwfc	(??___fladd+3)^0,w,c
 12705   004480  6E2F               	movwf	(___fladd@b+3)^0,c
 12706   004482  0E80               	movlw	128
 12707   004484  1A38               	xorwf	___fladd@signs^0,f,c
 12708   004486  6C3B               	negf	___fladd@grs^0,c
 12709   004488  503B               	movf	___fladd@grs^0,w,c
 12710   00448A  A4D8               	btfss	status,2,c
 12711   00448C  EF4A  F022         	goto	u2581
 12712   004490  EF4C  F022         	goto	u2580
 12713   004494                     u2581:
 12714   004494  EF5C  F022         	goto	l974
 12715   004498                     u2580:
 12716   004498  0E01               	movlw	1
 12717   00449A  262C               	addwf	___fladd@b^0,f,c
 12718   00449C  0E00               	movlw	0
 12719   00449E  222D               	addwfc	(___fladd@b+1)^0,f,c
 12720   0044A0  222E               	addwfc	(___fladd@b+2)^0,f,c
 12721   0044A2  222F               	addwfc	(___fladd@b+3)^0,f,c
 12722   0044A4  EF5C  F022         	goto	l974
 12723   0044A8                     l3368:
 12724   0044A8  5030               	movf	___fladd@a^0,w,c
 12725   0044AA  5E2C               	subwf	___fladd@b^0,f,c
 12726   0044AC  5031               	movf	(___fladd@a+1)^0,w,c
 12727   0044AE  5A2D               	subwfb	(___fladd@b+1)^0,f,c
 12728   0044B0  5032               	movf	(___fladd@a+2)^0,w,c
 12729   0044B2  5A2E               	subwfb	(___fladd@b+2)^0,f,c
 12730   0044B4  5033               	movf	(___fladd@a+3)^0,w,c
 12731   0044B6  5A2F               	subwfb	(___fladd@b+3)^0,f,c
 12732   0044B8                     l974:
 12733   0044B8  502C               	movf	___fladd@b^0,w,c
 12734   0044BA  102D               	iorwf	(___fladd@b+1)^0,w,c
 12735   0044BC  102E               	iorwf	(___fladd@b+2)^0,w,c
 12736   0044BE  102F               	iorwf	(___fladd@b+3)^0,w,c
 12737   0044C0  A4D8               	btfss	status,2,c
 12738   0044C2  EF65  F022         	goto	u2591
 12739   0044C6  EF67  F022         	goto	u2590
 12740   0044CA                     u2591:
 12741   0044CA  EF9C  F022         	goto	l3392
 12742   0044CE                     u2590:
 12743   0044CE  503B               	movf	___fladd@grs^0,w,c
 12744   0044D0  A4D8               	btfss	status,2,c
 12745   0044D2  EF6D  F022         	goto	u2601
 12746   0044D6  EF6F  F022         	goto	u2600
 12747   0044DA                     u2601:
 12748   0044DA  EF9C  F022         	goto	l3392
 12749   0044DE                     u2600:
 12750   0044DE  0E00               	movlw	0
 12751   0044E0  6E2C               	movwf	?___fladd^0,c
 12752   0044E2  0E00               	movlw	0
 12753   0044E4  6E2D               	movwf	(?___fladd+1)^0,c
 12754   0044E6  0E00               	movlw	0
 12755   0044E8  6E2E               	movwf	(?___fladd+2)^0,c
 12756   0044EA  0E00               	movlw	0
 12757   0044EC  6E2F               	movwf	(?___fladd+3)^0,c
 12758   0044EE  EF37  F023         	goto	l966
 12759   0044F2                     l3376:
 12760   0044F2  90D8               	bcf	status,0,c
 12761   0044F4  362C               	rlcf	___fladd@b^0,f,c
 12762   0044F6  362D               	rlcf	(___fladd@b+1)^0,f,c
 12763   0044F8  362E               	rlcf	(___fladd@b+2)^0,f,c
 12764   0044FA  362F               	rlcf	(___fladd@b+3)^0,f,c
 12765   0044FC  AE3B               	btfss	___fladd@grs^0,7,c
 12766   0044FE  EF83  F022         	goto	u2611
 12767   004502  EF85  F022         	goto	u2610
 12768   004506                     u2611:
 12769   004506  EF86  F022         	goto	l3382
 12770   00450A                     u2610:
 12771   00450A  802C               	bsf	___fladd@b^0,0,c
 12772   00450C                     l3382:
 12773   00450C  A03B               	btfss	___fladd@grs^0,0,c
 12774   00450E  EF8B  F022         	goto	u2621
 12775   004512  EF8D  F022         	goto	u2620
 12776   004516                     u2621:
 12777   004516  EF91  F022         	goto	l3386
 12778   00451A                     u2620:
 12779   00451A  80D8               	bsf	status,0,c
 12780   00451C  363B               	rlcf	___fladd@grs^0,f,c
 12781   00451E  EF93  F022         	goto	l3388
 12782   004522                     l3386:
 12783   004522  90D8               	bcf	status,0,c
 12784   004524  363B               	rlcf	___fladd@grs^0,f,c
 12785   004526                     l3388:
 12786   004526  503A               	movf	___fladd@bexp^0,w,c
 12787   004528  B4D8               	btfsc	status,2,c
 12788   00452A  EF99  F022         	goto	u2631
 12789   00452E  EF9B  F022         	goto	u2630
 12790   004532                     u2631:
 12791   004532  EF9C  F022         	goto	l3392
 12792   004536                     u2630:
 12793   004536  063A               	decf	___fladd@bexp^0,f,c
 12794   004538                     l3392:
 12795   004538  AE2E               	btfss	(___fladd@b+2)^0,7,c
 12796   00453A  EFA1  F022         	goto	u2641
 12797   00453E  EFA3  F022         	goto	u2640
 12798   004542                     u2641:
 12799   004542  EF79  F022         	goto	l3376
 12800   004546                     u2640:
 12801   004546                     l3394:
 12802   004546  0E00               	movlw	0
 12803   004548  6E39               	movwf	___fladd@aexp^0,c
 12804   00454A  AE3B               	btfss	___fladd@grs^0,7,c
 12805   00454C  EFAA  F022         	goto	u2651
 12806   004550  EFAC  F022         	goto	u2650
 12807   004554                     u2651:
 12808   004554  EFC4  F022         	goto	l983
 12809   004558                     u2650:
 12810   004558  C03B  F034         	movff	___fladd@grs,??___fladd
 12811   00455C  0E7F               	movlw	127
 12812   00455E  1634               	andwf	??___fladd^0,f,c
 12813   004560  B4D8               	btfsc	status,2,c
 12814   004562  EFB5  F022         	goto	u2661
 12815   004566  EFB7  F022         	goto	u2660
 12816   00456A                     u2661:
 12817   00456A  EFBB  F022         	goto	l984
 12818   00456E                     u2660:
 12819   00456E                     l3400:
 12820   00456E  0E01               	movlw	1
 12821   004570  6E39               	movwf	___fladd@aexp^0,c
 12822   004572  EFC4  F022         	goto	l983
 12823   004576                     l984:
 12824   004576  A02C               	btfss	___fladd@b^0,0,c
 12825   004578  EFC0  F022         	goto	u2671
 12826   00457C  EFC2  F022         	goto	u2670
 12827   004580                     u2671:
 12828   004580  EFC4  F022         	goto	l983
 12829   004584                     u2670:
 12830   004584  EFB7  F022         	goto	l3400
 12831   004588                     l983:
 12832   004588  5039               	movf	___fladd@aexp^0,w,c
 12833   00458A  B4D8               	btfsc	status,2,c
 12834   00458C  EFCA  F022         	goto	u2681
 12835   004590  EFCC  F022         	goto	u2680
 12836   004594                     u2681:
 12837   004594  EFF7  F022         	goto	l3412
 12838   004598                     u2680:
 12839   004598  0E01               	movlw	1
 12840   00459A  262C               	addwf	___fladd@b^0,f,c
 12841   00459C  0E00               	movlw	0
 12842   00459E  222D               	addwfc	(___fladd@b+1)^0,f,c
 12843   0045A0  222E               	addwfc	(___fladd@b+2)^0,f,c
 12844   0045A2  222F               	addwfc	(___fladd@b+3)^0,f,c
 12845   0045A4  A02F               	btfss	(___fladd@b+3)^0,0,c
 12846   0045A6  EFD7  F022         	goto	u2691
 12847   0045AA  EFD9  F022         	goto	u2690
 12848   0045AE                     u2691:
 12849   0045AE  EFF7  F022         	goto	l3412
 12850   0045B2                     u2690:
 12851   0045B2  C02C  F034         	movff	___fladd@b,??___fladd
 12852   0045B6  C02D  F035         	movff	___fladd@b+1,??___fladd+1
 12853   0045BA  C02E  F036         	movff	___fladd@b+2,??___fladd+2
 12854   0045BE  C02F  F037         	movff	___fladd@b+3,??___fladd+3
 12855   0045C2  3437               	rlcf	(??___fladd+3)^0,w,c
 12856   0045C4  3237               	rrcf	(??___fladd+3)^0,f,c
 12857   0045C6  3236               	rrcf	(??___fladd+2)^0,f,c
 12858   0045C8  3235               	rrcf	(??___fladd+1)^0,f,c
 12859   0045CA  3234               	rrcf	??___fladd^0,f,c
 12860   0045CC  C034  F02C         	movff	??___fladd,___fladd@b
 12861   0045D0  C035  F02D         	movff	??___fladd+1,___fladd@b+1
 12862   0045D4  C036  F02E         	movff	??___fladd+2,___fladd@b+2
 12863   0045D8  C037  F02F         	movff	??___fladd+3,___fladd@b+3
 12864   0045DC  283A               	incf	___fladd@bexp^0,w,c
 12865   0045DE  B4D8               	btfsc	status,2,c
 12866   0045E0  EFF4  F022         	goto	u2701
 12867   0045E4  EFF6  F022         	goto	u2700
 12868   0045E8                     u2701:
 12869   0045E8  EFF7  F022         	goto	l3412
 12870   0045EC                     u2700:
 12871   0045EC  2A3A               	incf	___fladd@bexp^0,f,c
 12872   0045EE                     l3412:
 12873   0045EE  283A               	incf	___fladd@bexp^0,w,c
 12874   0045F0  B4D8               	btfsc	status,2,c
 12875   0045F2  EFFD  F022         	goto	u2711
 12876   0045F6  EFFF  F022         	goto	u2710
 12877   0045FA                     u2711:
 12878   0045FA  EF07  F023         	goto	l3416
 12879   0045FE                     u2710:
 12880   0045FE  503A               	movf	___fladd@bexp^0,w,c
 12881   004600  A4D8               	btfss	status,2,c
 12882   004602  EF05  F023         	goto	u2721
 12883   004606  EF07  F023         	goto	u2720
 12884   00460A                     u2721:
 12885   00460A  EF19  F023         	goto	l3420
 12886   00460E                     u2720:
 12887   00460E                     l3416:
 12888   00460E  0E00               	movlw	0
 12889   004610  6E2C               	movwf	___fladd@b^0,c
 12890   004612  0E00               	movlw	0
 12891   004614  6E2D               	movwf	(___fladd@b+1)^0,c
 12892   004616  0E00               	movlw	0
 12893   004618  6E2E               	movwf	(___fladd@b+2)^0,c
 12894   00461A  0E00               	movlw	0
 12895   00461C  6E2F               	movwf	(___fladd@b+3)^0,c
 12896   00461E  503A               	movf	___fladd@bexp^0,w,c
 12897   004620  A4D8               	btfss	status,2,c
 12898   004622  EF15  F023         	goto	u2731
 12899   004626  EF17  F023         	goto	u2730
 12900   00462A                     u2731:
 12901   00462A  EF19  F023         	goto	l3420
 12902   00462E                     u2730:
 12903   00462E  0E00               	movlw	0
 12904   004630  6E38               	movwf	___fladd@signs^0,c
 12905   004632                     l3420:
 12906   004632  A03A               	btfss	___fladd@bexp^0,0,c
 12907   004634  EF1E  F023         	goto	u2741
 12908   004638  EF20  F023         	goto	u2740
 12909   00463C                     u2741:
 12910   00463C  EF23  F023         	goto	l3424
 12911   004640                     u2740:
 12912   004640  8E2E               	bsf	(___fladd@b+2)^0,7,c
 12913   004642  EF24  F023         	goto	l3426
 12914   004646                     l3424:
 12915   004646  9E2E               	bcf	(___fladd@b+2)^0,7,c
 12916   004648                     l3426:
 12917   004648  90D8               	bcf	status,0,c
 12918   00464A  303A               	rrcf	___fladd@bexp^0,w,c
 12919   00464C  6E2F               	movwf	(___fladd@b+3)^0,c
 12920   00464E  AE38               	btfss	___fladd@signs^0,7,c
 12921   004650  EF2C  F023         	goto	u2751
 12922   004654  EF2E  F023         	goto	u2750
 12923   004658                     u2751:
 12924   004658  EF2F  F023         	goto	l3432
 12925   00465C                     u2750:
 12926   00465C  8E2F               	bsf	(___fladd@b+3)^0,7,c
 12927   00465E                     l3432:
 12928   00465E  C02C  F02C         	movff	___fladd@b,?___fladd
 12929   004662  C02D  F02D         	movff	___fladd@b+1,?___fladd+1
 12930   004666  C02E  F02E         	movff	___fladd@b+2,?___fladd+2
 12931   00466A  C02F  F02F         	movff	___fladd@b+3,?___fladd+3
 12932   00466E                     l966:
 12933   00466E  0012               	return		;funcret
 12934   004670                     __end_of___fladd:
 12935                           	callstack 0
 12936                           
 12937 ;; *************** function ___flmul *****************
 12938 ;; Defined at:
 12939 ;;		line 8 in file "C:\Program Files\Microchip\xc8\v2.41\pic\sources\c99\common\sprcmul.c"
 12940 ;; Parameters:    Size  Location     Type
 12941 ;;  b               4   18[COMRAM] unsigned char 
 12942 ;;  a               4   22[COMRAM] unsigned char 
 12943 ;; Auto vars:     Size  Location     Type
 12944 ;;  prod            4   37[COMRAM] struct .
 12945 ;;  grs             4   31[COMRAM] unsigned long 
 12946 ;;  temp            2   41[COMRAM] struct .
 12947 ;;  bexp            1   36[COMRAM] unsigned char 
 12948 ;;  aexp            1   35[COMRAM] unsigned char 
 12949 ;;  sign            1   30[COMRAM] unsigned char 
 12950 ;; Return value:  Size  Location     Type
 12951 ;;                  4   18[COMRAM] unsigned char 
 12952 ;; Registers used:
 12953 ;;		wreg, status,2, status,0, prodl, prodh
 12954 ;; Tracked objects:
 12955 ;;		On entry : 0/0
 12956 ;;		On exit  : 0/0
 12957 ;;		Unchanged: 0/0
 12958 ;; Data sizes:     COMRAM   BANK0   BANK1   BANK2   BANK3   BANK4   BANK5   BANK6   BANK7   BANK8   BANK9  BANK10  BANK1
      +1  BANK12  BANK13  BANK14  BANK15
 12959 ;;      Params:         8       0       0       0       0       0       0       0       0       0       0       0       
      +0       0       0       0       0
 12960 ;;      Locals:        13       0       0       0       0       0       0       0       0       0       0       0       
      +0       0       0       0       0
 12961 ;;      Temps:          4       0       0       0       0       0       0       0       0       0       0       0       
      +0       0       0       0       0
 12962 ;;      Totals:        25       0       0       0       0       0       0       0       0       0       0       0       
      +0       0       0       0       0
 12963 ;;Total ram usage:       25 bytes
 12964 ;; Hardware stack levels used: 1
 12965 ;; Hardware stack levels required when called: 3
 12966 ;; This function calls:
 12967 ;;		Nothing
 12968 ;; This function is called by:
 12969 ;;		_hk
 12970 ;;		_fk
 12971 ;;		_EKF
 12972 ;;		_main
 12973 ;;		_mat_multiply
 12974 ;;		_expf
 12975 ;;		_powf
 12976 ;;		_scalbnf
 12977 ;;		_sqrtf
 12978 ;; This function uses a non-reentrant model
 12979 ;;
 12980                           
 12981                           	psect	text44
 12982   004670                     __ptext44:
 12983                           	callstack 0
 12984   004670                     ___flmul:
 12985                           	callstack 25
 12986   004670  5016               	movf	(___flmul@b+3)^0,w,c
 12987   004672  0B80               	andlw	128
 12988   004674  6E1F               	movwf	___flmul@sign^0,c
 12989   004676  5016               	movf	(___flmul@b+3)^0,w,c
 12990   004678  2416               	addwf	(___flmul@b+3)^0,w,c
 12991   00467A  6E25               	movwf	___flmul@bexp^0,c
 12992   00467C  AE15               	btfss	(___flmul@b+2)^0,7,c
 12993   00467E  EF43  F023         	goto	u2991
 12994   004682  EF45  F023         	goto	u2990
 12995   004686                     u2991:
 12996   004686  EF46  F023         	goto	l3580
 12997   00468A                     u2990:
 12998   00468A  8025               	bsf	___flmul@bexp^0,0,c
 12999   00468C                     l3580:
 13000   00468C  5025               	movf	___flmul@bexp^0,w,c
 13001   00468E  B4D8               	btfsc	status,2,c
 13002   004690  EF4C  F023         	goto	u3001
 13003   004694  EF4E  F023         	goto	u3000
 13004   004698                     u3001:
 13005   004698  EF61  F023         	goto	l3588
 13006   00469C                     u3000:
 13007   00469C  2825               	incf	___flmul@bexp^0,w,c
 13008   00469E  A4D8               	btfss	status,2,c
 13009   0046A0  EF54  F023         	goto	u3011
 13010   0046A4  EF56  F023         	goto	u3010
 13011   0046A8                     u3011:
 13012   0046A8  EF5E  F023         	goto	l3586
 13013   0046AC                     u3010:
 13014   0046AC  0E00               	movlw	0
 13015   0046AE  6E13               	movwf	___flmul@b^0,c
 13016   0046B0  0E00               	movlw	0
 13017   0046B2  6E14               	movwf	(___flmul@b+1)^0,c
 13018   0046B4  0E00               	movlw	0
 13019   0046B6  6E15               	movwf	(___flmul@b+2)^0,c
 13020   0046B8  0E00               	movlw	0
 13021   0046BA  6E16               	movwf	(___flmul@b+3)^0,c
 13022   0046BC                     l3586:
 13023   0046BC  8E15               	bsf	(___flmul@b+2)^0,7,c
 13024   0046BE  EF69  F023         	goto	l3590
 13025   0046C2                     l3588:
 13026   0046C2  0E00               	movlw	0
 13027   0046C4  6E13               	movwf	___flmul@b^0,c
 13028   0046C6  0E00               	movlw	0
 13029   0046C8  6E14               	movwf	(___flmul@b+1)^0,c
 13030   0046CA  0E00               	movlw	0
 13031   0046CC  6E15               	movwf	(___flmul@b+2)^0,c
 13032   0046CE  0E00               	movlw	0
 13033   0046D0  6E16               	movwf	(___flmul@b+3)^0,c
 13034   0046D2                     l3590:
 13035   0046D2  501A               	movf	(___flmul@a+3)^0,w,c
 13036   0046D4  0B80               	andlw	128
 13037   0046D6  1A1F               	xorwf	___flmul@sign^0,f,c
 13038   0046D8  501A               	movf	(___flmul@a+3)^0,w,c
 13039   0046DA  241A               	addwf	(___flmul@a+3)^0,w,c
 13040   0046DC  6E24               	movwf	___flmul@aexp^0,c
 13041   0046DE  AE19               	btfss	(___flmul@a+2)^0,7,c
 13042   0046E0  EF74  F023         	goto	u3021
 13043   0046E4  EF76  F023         	goto	u3020
 13044   0046E8                     u3021:
 13045   0046E8  EF77  F023         	goto	l3598
 13046   0046EC                     u3020:
 13047   0046EC  8024               	bsf	___flmul@aexp^0,0,c
 13048   0046EE                     l3598:
 13049   0046EE  5024               	movf	___flmul@aexp^0,w,c
 13050   0046F0  B4D8               	btfsc	status,2,c
 13051   0046F2  EF7D  F023         	goto	u3031
 13052   0046F6  EF7F  F023         	goto	u3030
 13053   0046FA                     u3031:
 13054   0046FA  EF92  F023         	goto	l3606
 13055   0046FE                     u3030:
 13056   0046FE  2824               	incf	___flmul@aexp^0,w,c
 13057   004700  A4D8               	btfss	status,2,c
 13058   004702  EF85  F023         	goto	u3041
 13059   004706  EF87  F023         	goto	u3040
 13060   00470A                     u3041:
 13061   00470A  EF8F  F023         	goto	l3604
 13062   00470E                     u3040:
 13063   00470E  0E00               	movlw	0
 13064   004710  6E17               	movwf	___flmul@a^0,c
 13065   004712  0E00               	movlw	0
 13066   004714  6E18               	movwf	(___flmul@a+1)^0,c
 13067   004716  0E00               	movlw	0
 13068   004718  6E19               	movwf	(___flmul@a+2)^0,c
 13069   00471A  0E00               	movlw	0
 13070   00471C  6E1A               	movwf	(___flmul@a+3)^0,c
 13071   00471E                     l3604:
 13072   00471E  8E19               	bsf	(___flmul@a+2)^0,7,c
 13073   004720  EF9A  F023         	goto	l1043
 13074   004724                     l3606:
 13075   004724  0E00               	movlw	0
 13076   004726  6E17               	movwf	___flmul@a^0,c
 13077   004728  0E00               	movlw	0
 13078   00472A  6E18               	movwf	(___flmul@a+1)^0,c
 13079   00472C  0E00               	movlw	0
 13080   00472E  6E19               	movwf	(___flmul@a+2)^0,c
 13081   004730  0E00               	movlw	0
 13082   004732  6E1A               	movwf	(___flmul@a+3)^0,c
 13083   004734                     l1043:
 13084   004734  5024               	movf	___flmul@aexp^0,w,c
 13085   004736  B4D8               	btfsc	status,2,c
 13086   004738  EFA0  F023         	goto	u3051
 13087   00473C  EFA2  F023         	goto	u3050
 13088   004740                     u3051:
 13089   004740  EFAA  F023         	goto	l3610
 13090   004744                     u3050:
 13091   004744  5025               	movf	___flmul@bexp^0,w,c
 13092   004746  A4D8               	btfss	status,2,c
 13093   004748  EFA8  F023         	goto	u3061
 13094   00474C  EFAA  F023         	goto	u3060
 13095   004750                     u3061:
 13096   004750  EFB4  F023         	goto	l3614
 13097   004754                     u3060:
 13098   004754                     l3610:
 13099   004754  0E00               	movlw	0
 13100   004756  6E13               	movwf	?___flmul^0,c
 13101   004758  0E00               	movlw	0
 13102   00475A  6E14               	movwf	(?___flmul+1)^0,c
 13103   00475C  0E00               	movlw	0
 13104   00475E  6E15               	movwf	(?___flmul+2)^0,c
 13105   004760  0E00               	movlw	0
 13106   004762  6E16               	movwf	(?___flmul+3)^0,c
 13107   004764  EF5E  F025         	goto	l1047
 13108   004768                     l3614:
 13109   004768  5019               	movf	(___flmul@a+2)^0,w,c
 13110   00476A  0213               	mulwf	___flmul@b^0,c
 13111   00476C  006F FFCC  F02A    	movff	prodl,___flmul@temp
 13112   004772  006F FFD0  F02B    	movff	prodh,___flmul@temp+1
 13113   004778  502A               	movf	___flmul@temp^0,w,c
 13114   00477A  6E20               	movwf	___flmul@grs^0,c
 13115   00477C  6A21               	clrf	(___flmul@grs+1)^0,c
 13116   00477E  6A22               	clrf	(___flmul@grs+2)^0,c
 13117   004780  6A23               	clrf	(___flmul@grs+3)^0,c
 13118   004782  502B               	movf	(___flmul@temp+1)^0,w,c
 13119   004784  6E26               	movwf	___flmul@prod^0,c
 13120   004786  6A27               	clrf	(___flmul@prod+1)^0,c
 13121   004788  6A28               	clrf	(___flmul@prod+2)^0,c
 13122   00478A  6A29               	clrf	(___flmul@prod+3)^0,c
 13123   00478C  5018               	movf	(___flmul@a+1)^0,w,c
 13124   00478E  0214               	mulwf	(___flmul@b+1)^0,c
 13125   004790  006F FFCC  F02A    	movff	prodl,___flmul@temp
 13126   004796  006F FFD0  F02B    	movff	prodh,___flmul@temp+1
 13127   00479C  502A               	movf	___flmul@temp^0,w,c
 13128   00479E  2620               	addwf	___flmul@grs^0,f,c
 13129   0047A0  0E00               	movlw	0
 13130   0047A2  2221               	addwfc	(___flmul@grs+1)^0,f,c
 13131   0047A4  2222               	addwfc	(___flmul@grs+2)^0,f,c
 13132   0047A6  2223               	addwfc	(___flmul@grs+3)^0,f,c
 13133   0047A8  502B               	movf	(___flmul@temp+1)^0,w,c
 13134   0047AA  2626               	addwf	___flmul@prod^0,f,c
 13135   0047AC  0E00               	movlw	0
 13136   0047AE  2227               	addwfc	(___flmul@prod+1)^0,f,c
 13137   0047B0  2228               	addwfc	(___flmul@prod+2)^0,f,c
 13138   0047B2  2229               	addwfc	(___flmul@prod+3)^0,f,c
 13139   0047B4  5017               	movf	___flmul@a^0,w,c
 13140   0047B6  0215               	mulwf	(___flmul@b+2)^0,c
 13141   0047B8  006F FFCC  F02A    	movff	prodl,___flmul@temp
 13142   0047BE  006F FFD0  F02B    	movff	prodh,___flmul@temp+1
 13143   0047C4  502A               	movf	___flmul@temp^0,w,c
 13144   0047C6  2620               	addwf	___flmul@grs^0,f,c
 13145   0047C8  0E00               	movlw	0
 13146   0047CA  2221               	addwfc	(___flmul@grs+1)^0,f,c
 13147   0047CC  2222               	addwfc	(___flmul@grs+2)^0,f,c
 13148   0047CE  2223               	addwfc	(___flmul@grs+3)^0,f,c
 13149   0047D0  502B               	movf	(___flmul@temp+1)^0,w,c
 13150   0047D2  2626               	addwf	___flmul@prod^0,f,c
 13151   0047D4  0E00               	movlw	0
 13152   0047D6  2227               	addwfc	(___flmul@prod+1)^0,f,c
 13153   0047D8  2228               	addwfc	(___flmul@prod+2)^0,f,c
 13154   0047DA  2229               	addwfc	(___flmul@prod+3)^0,f,c
 13155   0047DC  C022  F023         	movff	___flmul@grs+2,___flmul@grs+3
 13156   0047E0  C021  F022         	movff	___flmul@grs+1,___flmul@grs+2
 13157   0047E4  C020  F021         	movff	___flmul@grs,___flmul@grs+1
 13158   0047E8  6A20               	clrf	___flmul@grs^0,c
 13159   0047EA  5017               	movf	___flmul@a^0,w,c
 13160   0047EC  0214               	mulwf	(___flmul@b+1)^0,c
 13161   0047EE  006F FFCC  F02A    	movff	prodl,___flmul@temp
 13162   0047F4  006F FFD0  F02B    	movff	prodh,___flmul@temp+1
 13163   0047FA  502A               	movf	___flmul@temp^0,w,c
 13164   0047FC  2620               	addwf	___flmul@grs^0,f,c
 13165   0047FE  502B               	movf	(___flmul@temp+1)^0,w,c
 13166   004800  2221               	addwfc	(___flmul@grs+1)^0,f,c
 13167   004802  0E00               	movlw	0
 13168   004804  2222               	addwfc	(___flmul@grs+2)^0,f,c
 13169   004806  0E00               	movlw	0
 13170   004808  2223               	addwfc	(___flmul@grs+3)^0,f,c
 13171   00480A  5018               	movf	(___flmul@a+1)^0,w,c
 13172   00480C  0213               	mulwf	___flmul@b^0,c
 13173   00480E  006F FFCC  F02A    	movff	prodl,___flmul@temp
 13174   004814  006F FFD0  F02B    	movff	prodh,___flmul@temp+1
 13175   00481A  502A               	movf	___flmul@temp^0,w,c
 13176   00481C  2620               	addwf	___flmul@grs^0,f,c
 13177   00481E  502B               	movf	(___flmul@temp+1)^0,w,c
 13178   004820  2221               	addwfc	(___flmul@grs+1)^0,f,c
 13179   004822  0E00               	movlw	0
 13180   004824  2222               	addwfc	(___flmul@grs+2)^0,f,c
 13181   004826  0E00               	movlw	0
 13182   004828  2223               	addwfc	(___flmul@grs+3)^0,f,c
 13183   00482A  C022  F023         	movff	___flmul@grs+2,___flmul@grs+3
 13184   00482E  C021  F022         	movff	___flmul@grs+1,___flmul@grs+2
 13185   004832  C020  F021         	movff	___flmul@grs,___flmul@grs+1
 13186   004836  6A20               	clrf	___flmul@grs^0,c
 13187   004838  5017               	movf	___flmul@a^0,w,c
 13188   00483A  0213               	mulwf	___flmul@b^0,c
 13189   00483C  006F FFCC  F02A    	movff	prodl,___flmul@temp
 13190   004842  006F FFD0  F02B    	movff	prodh,___flmul@temp+1
 13191   004848  502A               	movf	___flmul@temp^0,w,c
 13192   00484A  2620               	addwf	___flmul@grs^0,f,c
 13193   00484C  502B               	movf	(___flmul@temp+1)^0,w,c
 13194   00484E  2221               	addwfc	(___flmul@grs+1)^0,f,c
 13195   004850  0E00               	movlw	0
 13196   004852  2222               	addwfc	(___flmul@grs+2)^0,f,c
 13197   004854  0E00               	movlw	0
 13198   004856  2223               	addwfc	(___flmul@grs+3)^0,f,c
 13199   004858  5019               	movf	(___flmul@a+2)^0,w,c
 13200   00485A  0214               	mulwf	(___flmul@b+1)^0,c
 13201   00485C  006F FFCC  F02A    	movff	prodl,___flmul@temp
 13202   004862  006F FFD0  F02B    	movff	prodh,___flmul@temp+1
 13203   004868  502A               	movf	___flmul@temp^0,w,c
 13204   00486A  2626               	addwf	___flmul@prod^0,f,c
 13205   00486C  502B               	movf	(___flmul@temp+1)^0,w,c
 13206   00486E  2227               	addwfc	(___flmul@prod+1)^0,f,c
 13207   004870  0E00               	movlw	0
 13208   004872  2228               	addwfc	(___flmul@prod+2)^0,f,c
 13209   004874  0E00               	movlw	0
 13210   004876  2229               	addwfc	(___flmul@prod+3)^0,f,c
 13211   004878  5018               	movf	(___flmul@a+1)^0,w,c
 13212   00487A  0215               	mulwf	(___flmul@b+2)^0,c
 13213   00487C  006F FFCC  F02A    	movff	prodl,___flmul@temp
 13214   004882  006F FFD0  F02B    	movff	prodh,___flmul@temp+1
 13215   004888  502A               	movf	___flmul@temp^0,w,c
 13216   00488A  2626               	addwf	___flmul@prod^0,f,c
 13217   00488C  502B               	movf	(___flmul@temp+1)^0,w,c
 13218   00488E  2227               	addwfc	(___flmul@prod+1)^0,f,c
 13219   004890  0E00               	movlw	0
 13220   004892  2228               	addwfc	(___flmul@prod+2)^0,f,c
 13221   004894  0E00               	movlw	0
 13222   004896  2229               	addwfc	(___flmul@prod+3)^0,f,c
 13223   004898  5019               	movf	(___flmul@a+2)^0,w,c
 13224   00489A  0215               	mulwf	(___flmul@b+2)^0,c
 13225   00489C  006F FFCC  F02A    	movff	prodl,___flmul@temp
 13226   0048A2  006F FFD0  F02B    	movff	prodh,___flmul@temp+1
 13227   0048A8  502A               	movf	___flmul@temp^0,w,c
 13228   0048AA  6E1B               	movwf	??___flmul^0,c
 13229   0048AC  502B               	movf	(___flmul@temp+1)^0,w,c
 13230   0048AE  6E1C               	movwf	(??___flmul+1)^0,c
 13231   0048B0  6A1D               	clrf	(??___flmul+2)^0,c
 13232   0048B2  6A1E               	clrf	(??___flmul+3)^0,c
 13233   0048B4  C01D  F01E         	movff	??___flmul+2,??___flmul+3
 13234   0048B8  C01C  F01D         	movff	??___flmul+1,??___flmul+2
 13235   0048BC  C01B  F01C         	movff	??___flmul,??___flmul+1
 13236   0048C0  6A1B               	clrf	??___flmul^0,c
 13237   0048C2  501B               	movf	??___flmul^0,w,c
 13238   0048C4  2626               	addwf	___flmul@prod^0,f,c
 13239   0048C6  501C               	movf	(??___flmul+1)^0,w,c
 13240   0048C8  2227               	addwfc	(___flmul@prod+1)^0,f,c
 13241   0048CA  501D               	movf	(??___flmul+2)^0,w,c
 13242   0048CC  2228               	addwfc	(___flmul@prod+2)^0,f,c
 13243   0048CE  501E               	movf	(??___flmul+3)^0,w,c
 13244   0048D0  2229               	addwfc	(___flmul@prod+3)^0,f,c
 13245   0048D2  C020  F01B         	movff	___flmul@grs,??___flmul
 13246   0048D6  C021  F01C         	movff	___flmul@grs+1,??___flmul+1
 13247   0048DA  C022  F01D         	movff	___flmul@grs+2,??___flmul+2
 13248   0048DE  C023  F01E         	movff	___flmul@grs+3,??___flmul+3
 13249   0048E2  0E19               	movlw	25
 13250   0048E4  EF79  F024         	goto	u3070
 13251   0048E8                     u3075:
 13252   0048E8  90D8               	bcf	status,0,c
 13253   0048EA  321E               	rrcf	(??___flmul+3)^0,f,c
 13254   0048EC  321D               	rrcf	(??___flmul+2)^0,f,c
 13255   0048EE  321C               	rrcf	(??___flmul+1)^0,f,c
 13256   0048F0  321B               	rrcf	??___flmul^0,f,c
 13257   0048F2                     u3070:
 13258   0048F2  2EE8               	decfsz	wreg,f,c
 13259   0048F4  EF74  F024         	goto	u3075
 13260   0048F8  501B               	movf	??___flmul^0,w,c
 13261   0048FA  2626               	addwf	___flmul@prod^0,f,c
 13262   0048FC  501C               	movf	(??___flmul+1)^0,w,c
 13263   0048FE  2227               	addwfc	(___flmul@prod+1)^0,f,c
 13264   004900  501D               	movf	(??___flmul+2)^0,w,c
 13265   004902  2228               	addwfc	(___flmul@prod+2)^0,f,c
 13266   004904  501E               	movf	(??___flmul+3)^0,w,c
 13267   004906  2229               	addwfc	(___flmul@prod+3)^0,f,c
 13268   004908  C022  F023         	movff	___flmul@grs+2,___flmul@grs+3
 13269   00490C  C021  F022         	movff	___flmul@grs+1,___flmul@grs+2
 13270   004910  C020  F021         	movff	___flmul@grs,___flmul@grs+1
 13271   004914  6A20               	clrf	___flmul@grs^0,c
 13272   004916  5024               	movf	___flmul@aexp^0,w,c
 13273   004918  C025  F01B         	movff	___flmul@bexp,??___flmul
 13274   00491C  6A1C               	clrf	(??___flmul+1)^0,c
 13275   00491E  261B               	addwf	??___flmul^0,f,c
 13276   004920  0E00               	movlw	0
 13277   004922  221C               	addwfc	(??___flmul+1)^0,f,c
 13278   004924  0E82               	movlw	130
 13279   004926  241B               	addwf	??___flmul^0,w,c
 13280   004928  6E2A               	movwf	___flmul@temp^0,c
 13281   00492A  0EFF               	movlw	255
 13282   00492C  201C               	addwfc	(??___flmul+1)^0,w,c
 13283   00492E  6E2B               	movwf	(___flmul@temp+1)^0,c
 13284   004930  EFAF  F024         	goto	l3662
 13285   004934                     l3656:
 13286   004934  90D8               	bcf	status,0,c
 13287   004936  3626               	rlcf	___flmul@prod^0,f,c
 13288   004938  3627               	rlcf	(___flmul@prod+1)^0,f,c
 13289   00493A  3628               	rlcf	(___flmul@prod+2)^0,f,c
 13290   00493C  3629               	rlcf	(___flmul@prod+3)^0,f,c
 13291   00493E  AE23               	btfss	(___flmul@grs+3)^0,7,c
 13292   004940  EFA4  F024         	goto	u3081
 13293   004944  EFA6  F024         	goto	u3080
 13294   004948                     u3081:
 13295   004948  EFA7  F024         	goto	l1050
 13296   00494C                     u3080:
 13297   00494C  8026               	bsf	___flmul@prod^0,0,c
 13298   00494E                     l1050:
 13299   00494E  90D8               	bcf	status,0,c
 13300   004950  3620               	rlcf	___flmul@grs^0,f,c
 13301   004952  3621               	rlcf	(___flmul@grs+1)^0,f,c
 13302   004954  3622               	rlcf	(___flmul@grs+2)^0,f,c
 13303   004956  3623               	rlcf	(___flmul@grs+3)^0,f,c
 13304   004958  062A               	decf	___flmul@temp^0,f,c
 13305   00495A  A0D8               	btfss	status,0,c
 13306   00495C  062B               	decf	(___flmul@temp+1)^0,f,c
 13307   00495E                     l3662:
 13308   00495E  AE28               	btfss	(___flmul@prod+2)^0,7,c
 13309   004960  EFB4  F024         	goto	u3091
 13310   004964  EFB6  F024         	goto	u3090
 13311   004968                     u3091:
 13312   004968  EF9A  F024         	goto	l3656
 13313   00496C                     u3090:
 13314   00496C  0E00               	movlw	0
 13315   00496E  6E24               	movwf	___flmul@aexp^0,c
 13316   004970  AE23               	btfss	(___flmul@grs+3)^0,7,c
 13317   004972  EFBD  F024         	goto	u3101
 13318   004976  EFBF  F024         	goto	u3100
 13319   00497A                     u3101:
 13320   00497A  EFE3  F024         	goto	l1052
 13321   00497E                     u3100:
 13322   00497E  0EFF               	movlw	255
 13323   004980  1420               	andwf	___flmul@grs^0,w,c
 13324   004982  6E1B               	movwf	??___flmul^0,c
 13325   004984  0EFF               	movlw	255
 13326   004986  1421               	andwf	(___flmul@grs+1)^0,w,c
 13327   004988  6E1C               	movwf	(??___flmul+1)^0,c
 13328   00498A  0EFF               	movlw	255
 13329   00498C  1422               	andwf	(___flmul@grs+2)^0,w,c
 13330   00498E  6E1D               	movwf	(??___flmul+2)^0,c
 13331   004990  0E7F               	movlw	127
 13332   004992  1423               	andwf	(___flmul@grs+3)^0,w,c
 13333   004994  6E1E               	movwf	(??___flmul+3)^0,c
 13334   004996  501B               	movf	??___flmul^0,w,c
 13335   004998  101C               	iorwf	(??___flmul+1)^0,w,c
 13336   00499A  101D               	iorwf	(??___flmul+2)^0,w,c
 13337   00499C  101E               	iorwf	(??___flmul+3)^0,w,c
 13338   00499E  B4D8               	btfsc	status,2,c
 13339   0049A0  EFD4  F024         	goto	u3111
 13340   0049A4  EFD6  F024         	goto	u3110
 13341   0049A8                     u3111:
 13342   0049A8  EFDA  F024         	goto	l1053
 13343   0049AC                     u3110:
 13344   0049AC                     l3670:
 13345   0049AC  0E01               	movlw	1
 13346   0049AE  6E24               	movwf	___flmul@aexp^0,c
 13347   0049B0  EFE3  F024         	goto	l1052
 13348   0049B4                     l1053:
 13349   0049B4  A026               	btfss	___flmul@prod^0,0,c
 13350   0049B6  EFDF  F024         	goto	u3121
 13351   0049BA  EFE1  F024         	goto	u3120
 13352   0049BE                     u3121:
 13353   0049BE  EFE3  F024         	goto	l1052
 13354   0049C2                     u3120:
 13355   0049C2  EFD6  F024         	goto	l3670
 13356   0049C6                     l1052:
 13357   0049C6  5024               	movf	___flmul@aexp^0,w,c
 13358   0049C8  B4D8               	btfsc	status,2,c
 13359   0049CA  EFE9  F024         	goto	u3131
 13360   0049CE  EFEB  F024         	goto	u3130
 13361   0049D2                     u3131:
 13362   0049D2  EF0F  F025         	goto	l3682
 13363   0049D6                     u3130:
 13364   0049D6  0E01               	movlw	1
 13365   0049D8  2626               	addwf	___flmul@prod^0,f,c
 13366   0049DA  0E00               	movlw	0
 13367   0049DC  2227               	addwfc	(___flmul@prod+1)^0,f,c
 13368   0049DE  2228               	addwfc	(___flmul@prod+2)^0,f,c
 13369   0049E0  2229               	addwfc	(___flmul@prod+3)^0,f,c
 13370   0049E2  A029               	btfss	(___flmul@prod+3)^0,0,c
 13371   0049E4  EFF6  F024         	goto	u3141
 13372   0049E8  EFF8  F024         	goto	u3140
 13373   0049EC                     u3141:
 13374   0049EC  EF0F  F025         	goto	l3682
 13375   0049F0                     u3140:
 13376   0049F0  C026  F01B         	movff	___flmul@prod,??___flmul
 13377   0049F4  C027  F01C         	movff	___flmul@prod+1,??___flmul+1
 13378   0049F8  C028  F01D         	movff	___flmul@prod+2,??___flmul+2
 13379   0049FC  C029  F01E         	movff	___flmul@prod+3,??___flmul+3
 13380   004A00  341E               	rlcf	(??___flmul+3)^0,w,c
 13381   004A02  321E               	rrcf	(??___flmul+3)^0,f,c
 13382   004A04  321D               	rrcf	(??___flmul+2)^0,f,c
 13383   004A06  321C               	rrcf	(??___flmul+1)^0,f,c
 13384   004A08  321B               	rrcf	??___flmul^0,f,c
 13385   004A0A  C01B  F026         	movff	??___flmul,___flmul@prod
 13386   004A0E  C01C  F027         	movff	??___flmul+1,___flmul@prod+1
 13387   004A12  C01D  F028         	movff	??___flmul+2,___flmul@prod+2
 13388   004A16  C01E  F029         	movff	??___flmul+3,___flmul@prod+3
 13389   004A1A  4A2A               	infsnz	___flmul@temp^0,f,c
 13390   004A1C  2A2B               	incf	(___flmul@temp+1)^0,f,c
 13391   004A1E                     l3682:
 13392   004A1E  BE2B               	btfsc	(___flmul@temp+1)^0,7,c
 13393   004A20  EF1A  F025         	goto	u3151
 13394   004A24  502B               	movf	(___flmul@temp+1)^0,w,c
 13395   004A26  E108               	bnz	u3150
 13396   004A28  282A               	incf	___flmul@temp^0,w,c
 13397   004A2A  A0D8               	btfss	status,0,c
 13398   004A2C  EF1A  F025         	goto	u3151
 13399   004A30  EF1C  F025         	goto	u3150
 13400   004A34                     u3151:
 13401   004A34  EF26  F025         	goto	l3686
 13402   004A38                     u3150:
 13403   004A38  0E00               	movlw	0
 13404   004A3A  6E26               	movwf	___flmul@prod^0,c
 13405   004A3C  0E00               	movlw	0
 13406   004A3E  6E27               	movwf	(___flmul@prod+1)^0,c
 13407   004A40  0E80               	movlw	128
 13408   004A42  6E28               	movwf	(___flmul@prod+2)^0,c
 13409   004A44  0E7F               	movlw	127
 13410   004A46  6E29               	movwf	(___flmul@prod+3)^0,c
 13411   004A48  EF54  F025         	goto	l3698
 13412   004A4C                     l3686:
 13413   004A4C  BE2B               	btfsc	(___flmul@temp+1)^0,7,c
 13414   004A4E  EF33  F025         	goto	u3160
 13415   004A52  502B               	movf	(___flmul@temp+1)^0,w,c
 13416   004A54  E106               	bnz	u3161
 13417   004A56  042A               	decf	___flmul@temp^0,w,c
 13418   004A58  B0D8               	btfsc	status,0,c
 13419   004A5A  EF31  F025         	goto	u3161
 13420   004A5E  EF33  F025         	goto	u3160
 13421   004A62                     u3161:
 13422   004A62  EF3F  F025         	goto	l1060
 13423   004A66                     u3160:
 13424   004A66  0E00               	movlw	0
 13425   004A68  6E26               	movwf	___flmul@prod^0,c
 13426   004A6A  0E00               	movlw	0
 13427   004A6C  6E27               	movwf	(___flmul@prod+1)^0,c
 13428   004A6E  0E00               	movlw	0
 13429   004A70  6E28               	movwf	(___flmul@prod+2)^0,c
 13430   004A72  0E00               	movlw	0
 13431   004A74  6E29               	movwf	(___flmul@prod+3)^0,c
 13432   004A76  0E00               	movlw	0
 13433   004A78  6E1F               	movwf	___flmul@sign^0,c
 13434   004A7A  EF54  F025         	goto	l3698
 13435   004A7E                     l1060:
 13436   004A7E  C02A  F025         	movff	___flmul@temp,___flmul@bexp
 13437   004A82  0EFF               	movlw	255
 13438   004A84  1626               	andwf	___flmul@prod^0,f,c
 13439   004A86  0EFF               	movlw	255
 13440   004A88  1627               	andwf	(___flmul@prod+1)^0,f,c
 13441   004A8A  0E7F               	movlw	127
 13442   004A8C  1628               	andwf	(___flmul@prod+2)^0,f,c
 13443   004A8E  0E00               	movlw	0
 13444   004A90  1629               	andwf	(___flmul@prod+3)^0,f,c
 13445   004A92  A025               	btfss	___flmul@bexp^0,0,c
 13446   004A94  EF4E  F025         	goto	u3171
 13447   004A98  EF50  F025         	goto	u3170
 13448   004A9C                     u3171:
 13449   004A9C  EF51  F025         	goto	l3696
 13450   004AA0                     u3170:
 13451   004AA0  8E28               	bsf	(___flmul@prod+2)^0,7,c
 13452   004AA2                     l3696:
 13453   004AA2  90D8               	bcf	status,0,c
 13454   004AA4  3025               	rrcf	___flmul@bexp^0,w,c
 13455   004AA6  6E29               	movwf	(___flmul@prod+3)^0,c
 13456   004AA8                     l3698:
 13457   004AA8  501F               	movf	___flmul@sign^0,w,c
 13458   004AAA  1229               	iorwf	(___flmul@prod+3)^0,f,c
 13459   004AAC  C026  F013         	movff	___flmul@prod,?___flmul
 13460   004AB0  C027  F014         	movff	___flmul@prod+1,?___flmul+1
 13461   004AB4  C028  F015         	movff	___flmul@prod+2,?___flmul+2
 13462   004AB8  C029  F016         	movff	___flmul@prod+3,?___flmul+3
 13463   004ABC                     l1047:
 13464   004ABC  0012               	return		;funcret
 13465   004ABE                     __end_of___flmul:
 13466                           	callstack 0
 13467                           
 13468 ;; *************** function ___fldiv *****************
 13469 ;; Defined at:
 13470 ;;		line 11 in file "C:\Program Files\Microchip\xc8\v2.41\pic\sources\c99\common\sprcdiv.c"
 13471 ;; Parameters:    Size  Location     Type
 13472 ;;  b               4   77[COMRAM] unsigned char 
 13473 ;;  a               4   81[COMRAM] unsigned char 
 13474 ;; Auto vars:     Size  Location     Type
 13475 ;;  grs             4    7[BANK0 ] unsigned long 
 13476 ;;  rem             4    0[BANK0 ] unsigned long 
 13477 ;;  new_exp         2    5[BANK0 ] short 
 13478 ;;  aexp            1   12[BANK0 ] unsigned char 
 13479 ;;  bexp            1   11[BANK0 ] unsigned char 
 13480 ;;  sign            1    4[BANK0 ] unsigned char 
 13481 ;; Return value:  Size  Location     Type
 13482 ;;                  4   77[COMRAM] unsigned char 
 13483 ;; Registers used:
 13484 ;;		wreg, status,2, status,0
 13485 ;; Tracked objects:
 13486 ;;		On entry : 0/0
 13487 ;;		On exit  : 0/0
 13488 ;;		Unchanged: 0/0
 13489 ;; Data sizes:     COMRAM   BANK0   BANK1   BANK2   BANK3   BANK4   BANK5   BANK6   BANK7   BANK8   BANK9  BANK10  BANK1
      +1  BANK12  BANK13  BANK14  BANK15
 13490 ;;      Params:         8       0       0       0       0       0       0       0       0       0       0       0       
      +0       0       0       0       0
 13491 ;;      Locals:         0      13       0       0       0       0       0       0       0       0       0       0       
      +0       0       0       0       0
 13492 ;;      Temps:          4       0       0       0       0       0       0       0       0       0       0       0       
      +0       0       0       0       0
 13493 ;;      Totals:        12      13       0       0       0       0       0       0       0       0       0       0       
      +0       0       0       0       0
 13494 ;;Total ram usage:       25 bytes
 13495 ;; Hardware stack levels used: 1
 13496 ;; Hardware stack levels required when called: 3
 13497 ;; This function calls:
 13498 ;;		Nothing
 13499 ;; This function is called by:
 13500 ;;		_VOC
 13501 ;;		_fk
 13502 ;;		_main
 13503 ;;		_expf
 13504 ;;		_powf
 13505 ;; This function uses a non-reentrant model
 13506 ;;
 13507                           
 13508                           	psect	text45
 13509   004ABE                     __ptext45:
 13510                           	callstack 0
 13511   004ABE                     ___fldiv:
 13512                           	callstack 26
 13513   004ABE  5051               	movf	(___fldiv@b+3)^0,w,c
 13514   004AC0  0B80               	andlw	128
 13515   004AC2  0100               	movlb	0	; () banked
 13516   004AC4  6F64               	movwf	___fldiv@sign& (0+255),b
 13517   004AC6  5051               	movf	(___fldiv@b+3)^0,w,c
 13518   004AC8  2451               	addwf	(___fldiv@b+3)^0,w,c
 13519   004ACA  6F6B               	movwf	___fldiv@bexp& (0+255),b
 13520   004ACC                     
 13521                           ; BSR set to: 0
 13522   004ACC  AE50               	btfss	(___fldiv@b+2)^0,7,c
 13523   004ACE  EF6B  F025         	goto	u2761
 13524   004AD2  EF6D  F025         	goto	u2760
 13525   004AD6                     u2761:
 13526   004AD6  EF6E  F025         	goto	l3442
 13527   004ADA                     u2760:
 13528   004ADA                     
 13529                           ; BSR set to: 0
 13530   004ADA  816B               	bsf	___fldiv@bexp& (0+255),0,b
 13531   004ADC                     l3442:
 13532                           
 13533                           ; BSR set to: 0
 13534   004ADC  516B               	movf	___fldiv@bexp& (0+255),w,b
 13535   004ADE  B4D8               	btfsc	status,2,c
 13536   004AE0  EF74  F025         	goto	u2771
 13537   004AE4  EF76  F025         	goto	u2770
 13538   004AE8                     u2771:
 13539   004AE8  EF8B  F025         	goto	l3452
 13540   004AEC                     u2770:
 13541   004AEC                     
 13542                           ; BSR set to: 0
 13543   004AEC  296B               	incf	___fldiv@bexp& (0+255),w,b
 13544   004AEE  A4D8               	btfss	status,2,c
 13545   004AF0  EF7C  F025         	goto	u2781
 13546   004AF4  EF7E  F025         	goto	u2780
 13547   004AF8                     u2781:
 13548   004AF8  EF86  F025         	goto	l3448
 13549   004AFC                     u2780:
 13550   004AFC                     
 13551                           ; BSR set to: 0
 13552   004AFC  0E00               	movlw	0
 13553   004AFE  6E4E               	movwf	___fldiv@b^0,c
 13554   004B00  0E00               	movlw	0
 13555   004B02  6E4F               	movwf	(___fldiv@b+1)^0,c
 13556   004B04  0E00               	movlw	0
 13557   004B06  6E50               	movwf	(___fldiv@b+2)^0,c
 13558   004B08  0E00               	movlw	0
 13559   004B0A  6E51               	movwf	(___fldiv@b+3)^0,c
 13560   004B0C                     l3448:
 13561                           
 13562                           ; BSR set to: 0
 13563   004B0C  8E50               	bsf	(___fldiv@b+2)^0,7,c
 13564   004B0E                     
 13565                           ; BSR set to: 0
 13566   004B0E  0E00               	movlw	0
 13567   004B10  6E51               	movwf	(___fldiv@b+3)^0,c
 13568   004B12  EF93  F025         	goto	l3454
 13569   004B16                     l3452:
 13570                           
 13571                           ; BSR set to: 0
 13572   004B16  0E00               	movlw	0
 13573   004B18  6E4E               	movwf	___fldiv@b^0,c
 13574   004B1A  0E00               	movlw	0
 13575   004B1C  6E4F               	movwf	(___fldiv@b+1)^0,c
 13576   004B1E  0E00               	movlw	0
 13577   004B20  6E50               	movwf	(___fldiv@b+2)^0,c
 13578   004B22  0E00               	movlw	0
 13579   004B24  6E51               	movwf	(___fldiv@b+3)^0,c
 13580   004B26                     l3454:
 13581                           
 13582                           ; BSR set to: 0
 13583   004B26  5055               	movf	(___fldiv@a+3)^0,w,c
 13584   004B28  0B80               	andlw	128
 13585   004B2A  1B64               	xorwf	___fldiv@sign& (0+255),f,b
 13586   004B2C                     
 13587                           ; BSR set to: 0
 13588   004B2C  5055               	movf	(___fldiv@a+3)^0,w,c
 13589   004B2E  2455               	addwf	(___fldiv@a+3)^0,w,c
 13590   004B30  6F6C               	movwf	___fldiv@aexp& (0+255),b
 13591   004B32                     
 13592                           ; BSR set to: 0
 13593   004B32  AE54               	btfss	(___fldiv@a+2)^0,7,c
 13594   004B34  EF9E  F025         	goto	u2791
 13595   004B38  EFA0  F025         	goto	u2790
 13596   004B3C                     u2791:
 13597   004B3C  EFA1  F025         	goto	l3462
 13598   004B40                     u2790:
 13599   004B40                     
 13600                           ; BSR set to: 0
 13601   004B40  816C               	bsf	___fldiv@aexp& (0+255),0,b
 13602   004B42                     l3462:
 13603                           
 13604                           ; BSR set to: 0
 13605   004B42  516C               	movf	___fldiv@aexp& (0+255),w,b
 13606   004B44  B4D8               	btfsc	status,2,c
 13607   004B46  EFA7  F025         	goto	u2801
 13608   004B4A  EFA9  F025         	goto	u2800
 13609   004B4E                     u2801:
 13610   004B4E  EFBE  F025         	goto	l3472
 13611   004B52                     u2800:
 13612   004B52                     
 13613                           ; BSR set to: 0
 13614   004B52  296C               	incf	___fldiv@aexp& (0+255),w,b
 13615   004B54  A4D8               	btfss	status,2,c
 13616   004B56  EFAF  F025         	goto	u2811
 13617   004B5A  EFB1  F025         	goto	u2810
 13618   004B5E                     u2811:
 13619   004B5E  EFB9  F025         	goto	l3468
 13620   004B62                     u2810:
 13621   004B62                     
 13622                           ; BSR set to: 0
 13623   004B62  0E00               	movlw	0
 13624   004B64  6E52               	movwf	___fldiv@a^0,c
 13625   004B66  0E00               	movlw	0
 13626   004B68  6E53               	movwf	(___fldiv@a+1)^0,c
 13627   004B6A  0E00               	movlw	0
 13628   004B6C  6E54               	movwf	(___fldiv@a+2)^0,c
 13629   004B6E  0E00               	movlw	0
 13630   004B70  6E55               	movwf	(___fldiv@a+3)^0,c
 13631   004B72                     l3468:
 13632                           
 13633                           ; BSR set to: 0
 13634   004B72  8E54               	bsf	(___fldiv@a+2)^0,7,c
 13635   004B74                     
 13636                           ; BSR set to: 0
 13637   004B74  0E00               	movlw	0
 13638   004B76  6E55               	movwf	(___fldiv@a+3)^0,c
 13639   004B78  EFC6  F025         	goto	l3474
 13640   004B7C                     l3472:
 13641                           
 13642                           ; BSR set to: 0
 13643   004B7C  0E00               	movlw	0
 13644   004B7E  6E52               	movwf	___fldiv@a^0,c
 13645   004B80  0E00               	movlw	0
 13646   004B82  6E53               	movwf	(___fldiv@a+1)^0,c
 13647   004B84  0E00               	movlw	0
 13648   004B86  6E54               	movwf	(___fldiv@a+2)^0,c
 13649   004B88  0E00               	movlw	0
 13650   004B8A  6E55               	movwf	(___fldiv@a+3)^0,c
 13651   004B8C                     l3474:
 13652                           
 13653                           ; BSR set to: 0
 13654   004B8C  5052               	movf	___fldiv@a^0,w,c
 13655   004B8E  1053               	iorwf	(___fldiv@a+1)^0,w,c
 13656   004B90  1054               	iorwf	(___fldiv@a+2)^0,w,c
 13657   004B92  1055               	iorwf	(___fldiv@a+3)^0,w,c
 13658   004B94  A4D8               	btfss	status,2,c
 13659   004B96  EFCF  F025         	goto	u2821
 13660   004B9A  EFD1  F025         	goto	u2820
 13661   004B9E                     u2821:
 13662   004B9E  EFE9  F025         	goto	l3486
 13663   004BA2                     u2820:
 13664   004BA2                     
 13665                           ; BSR set to: 0
 13666   004BA2  0E00               	movlw	0
 13667   004BA4  6E4E               	movwf	___fldiv@b^0,c
 13668   004BA6  0E00               	movlw	0
 13669   004BA8  6E4F               	movwf	(___fldiv@b+1)^0,c
 13670   004BAA  0E00               	movlw	0
 13671   004BAC  6E50               	movwf	(___fldiv@b+2)^0,c
 13672   004BAE  0E00               	movlw	0
 13673   004BB0  6E51               	movwf	(___fldiv@b+3)^0,c
 13674   004BB2                     
 13675                           ; BSR set to: 0
 13676   004BB2  0E80               	movlw	128
 13677   004BB4  1250               	iorwf	(___fldiv@b+2)^0,f,c
 13678   004BB6  0E7F               	movlw	127
 13679   004BB8  1251               	iorwf	(___fldiv@b+3)^0,f,c
 13680   004BBA                     l3480:
 13681                           
 13682                           ; BSR set to: 0
 13683   004BBA  5164               	movf	___fldiv@sign& (0+255),w,b
 13684   004BBC  1251               	iorwf	(___fldiv@b+3)^0,f,c
 13685   004BBE                     
 13686                           ; BSR set to: 0
 13687   004BBE  C04E  F04E         	movff	___fldiv@b,?___fldiv
 13688   004BC2  C04F  F04F         	movff	___fldiv@b+1,?___fldiv+1
 13689   004BC6  C050  F050         	movff	___fldiv@b+2,?___fldiv+2
 13690   004BCA  C051  F051         	movff	___fldiv@b+3,?___fldiv+3
 13691   004BCE  EF2C  F027         	goto	l1011
 13692   004BD2                     l3486:
 13693                           
 13694                           ; BSR set to: 0
 13695   004BD2  516B               	movf	___fldiv@bexp& (0+255),w,b
 13696   004BD4  A4D8               	btfss	status,2,c
 13697   004BD6  EFEF  F025         	goto	u2831
 13698   004BDA  EFF1  F025         	goto	u2830
 13699   004BDE                     u2831:
 13700   004BDE  EFFB  F025         	goto	l3494
 13701   004BE2                     u2830:
 13702   004BE2                     
 13703                           ; BSR set to: 0
 13704   004BE2  0E00               	movlw	0
 13705   004BE4  6E4E               	movwf	?___fldiv^0,c
 13706   004BE6  0E00               	movlw	0
 13707   004BE8  6E4F               	movwf	(?___fldiv+1)^0,c
 13708   004BEA  0E00               	movlw	0
 13709   004BEC  6E50               	movwf	(?___fldiv+2)^0,c
 13710   004BEE  0E00               	movlw	0
 13711   004BF0  6E51               	movwf	(?___fldiv+3)^0,c
 13712   004BF2  EF2C  F027         	goto	l1011
 13713   004BF6                     l3494:
 13714                           
 13715                           ; BSR set to: 0
 13716   004BF6  516C               	movf	___fldiv@aexp& (0+255),w,b
 13717   004BF8  C06B  F056         	movff	___fldiv@bexp,??___fldiv
 13718   004BFC  6A57               	clrf	(??___fldiv+1)^0,c
 13719   004BFE  5E56               	subwf	??___fldiv^0,f,c
 13720   004C00  0E00               	movlw	0
 13721   004C02  5A57               	subwfb	(??___fldiv+1)^0,f,c
 13722   004C04  0E7F               	movlw	127
 13723   004C06  2456               	addwf	??___fldiv^0,w,c
 13724   004C08  6F65               	movwf	___fldiv@new_exp& (0+255),b
 13725   004C0A  0E00               	movlw	0
 13726   004C0C  2057               	addwfc	(??___fldiv+1)^0,w,c
 13727   004C0E  6F66               	movwf	(___fldiv@new_exp+1)& (0+255),b
 13728   004C10                     
 13729                           ; BSR set to: 0
 13730   004C10  C04E  F060         	movff	___fldiv@b,___fldiv@rem
 13731   004C14  C04F  F061         	movff	___fldiv@b+1,___fldiv@rem+1
 13732   004C18  C050  F062         	movff	___fldiv@b+2,___fldiv@rem+2
 13733   004C1C  C051  F063         	movff	___fldiv@b+3,___fldiv@rem+3
 13734   004C20                     
 13735                           ; BSR set to: 0
 13736   004C20  0E00               	movlw	0
 13737   004C22  6E4E               	movwf	___fldiv@b^0,c
 13738   004C24  0E00               	movlw	0
 13739   004C26  6E4F               	movwf	(___fldiv@b+1)^0,c
 13740   004C28  0E00               	movlw	0
 13741   004C2A  6E50               	movwf	(___fldiv@b+2)^0,c
 13742   004C2C  0E00               	movlw	0
 13743   004C2E  6E51               	movwf	(___fldiv@b+3)^0,c
 13744   004C30                     
 13745                           ; BSR set to: 0
 13746   004C30  0E00               	movlw	0
 13747   004C32  6F67               	movwf	___fldiv@grs& (0+255),b
 13748   004C34  0E00               	movlw	0
 13749   004C36  6F68               	movwf	(___fldiv@grs+1)& (0+255),b
 13750   004C38  0E00               	movlw	0
 13751   004C3A  6F69               	movwf	(___fldiv@grs+2)& (0+255),b
 13752   004C3C  0E00               	movlw	0
 13753   004C3E  6F6A               	movwf	(___fldiv@grs+3)& (0+255),b
 13754   004C40                     
 13755                           ; BSR set to: 0
 13756   004C40  0E00               	movlw	0
 13757   004C42  6F6C               	movwf	___fldiv@aexp& (0+255),b
 13758   004C44  EF5C  F026         	goto	l1013
 13759   004C48                     l3504:
 13760                           
 13761                           ; BSR set to: 0
 13762   004C48  516C               	movf	___fldiv@aexp& (0+255),w,b
 13763   004C4A  B4D8               	btfsc	status,2,c
 13764   004C4C  EF2A  F026         	goto	u2841
 13765   004C50  EF2C  F026         	goto	u2840
 13766   004C54                     u2841:
 13767   004C54  EF43  F026         	goto	l3512
 13768   004C58                     u2840:
 13769   004C58                     
 13770                           ; BSR set to: 0
 13771   004C58  90D8               	bcf	status,0,c
 13772   004C5A  3760               	rlcf	___fldiv@rem& (0+255),f,b
 13773   004C5C  3761               	rlcf	(___fldiv@rem+1)& (0+255),f,b
 13774   004C5E  3762               	rlcf	(___fldiv@rem+2)& (0+255),f,b
 13775   004C60  3763               	rlcf	(___fldiv@rem+3)& (0+255),f,b
 13776   004C62  90D8               	bcf	status,0,c
 13777   004C64  364E               	rlcf	___fldiv@b^0,f,c
 13778   004C66  364F               	rlcf	(___fldiv@b+1)^0,f,c
 13779   004C68  3650               	rlcf	(___fldiv@b+2)^0,f,c
 13780   004C6A  3651               	rlcf	(___fldiv@b+3)^0,f,c
 13781   004C6C                     
 13782                           ; BSR set to: 0
 13783   004C6C  AF6A               	btfss	(___fldiv@grs+3)& (0+255),7,b
 13784   004C6E  EF3B  F026         	goto	u2851
 13785   004C72  EF3D  F026         	goto	u2850
 13786   004C76                     u2851:
 13787   004C76  EF3E  F026         	goto	l1016
 13788   004C7A                     u2850:
 13789   004C7A                     
 13790                           ; BSR set to: 0
 13791   004C7A  804E               	bsf	___fldiv@b^0,0,c
 13792   004C7C                     l1016:
 13793                           
 13794                           ; BSR set to: 0
 13795   004C7C  90D8               	bcf	status,0,c
 13796   004C7E  3767               	rlcf	___fldiv@grs& (0+255),f,b
 13797   004C80  3768               	rlcf	(___fldiv@grs+1)& (0+255),f,b
 13798   004C82  3769               	rlcf	(___fldiv@grs+2)& (0+255),f,b
 13799   004C84  376A               	rlcf	(___fldiv@grs+3)& (0+255),f,b
 13800   004C86                     l3512:
 13801                           
 13802                           ; BSR set to: 0
 13803   004C86  5052               	movf	___fldiv@a^0,w,c
 13804   004C88  5D60               	subwf	___fldiv@rem& (0+255),w,b
 13805   004C8A  5053               	movf	(___fldiv@a+1)^0,w,c
 13806   004C8C  5961               	subwfb	(___fldiv@rem+1)& (0+255),w,b
 13807   004C8E  5054               	movf	(___fldiv@a+2)^0,w,c
 13808   004C90  5962               	subwfb	(___fldiv@rem+2)& (0+255),w,b
 13809   004C92  5055               	movf	(___fldiv@a+3)^0,w,c
 13810   004C94  5963               	subwfb	(___fldiv@rem+3)& (0+255),w,b
 13811   004C96  A0D8               	btfss	status,0,c
 13812   004C98  EF50  F026         	goto	u2861
 13813   004C9C  EF52  F026         	goto	u2860
 13814   004CA0                     u2861:
 13815   004CA0  EF5B  F026         	goto	l3518
 13816   004CA4                     u2860:
 13817   004CA4                     
 13818                           ; BSR set to: 0
 13819   004CA4  8D6A               	bsf	(___fldiv@grs+3)& (0+255),6,b
 13820   004CA6                     
 13821                           ; BSR set to: 0
 13822   004CA6  5052               	movf	___fldiv@a^0,w,c
 13823   004CA8  5F60               	subwf	___fldiv@rem& (0+255),f,b
 13824   004CAA  5053               	movf	(___fldiv@a+1)^0,w,c
 13825   004CAC  5B61               	subwfb	(___fldiv@rem+1)& (0+255),f,b
 13826   004CAE  5054               	movf	(___fldiv@a+2)^0,w,c
 13827   004CB0  5B62               	subwfb	(___fldiv@rem+2)& (0+255),f,b
 13828   004CB2  5055               	movf	(___fldiv@a+3)^0,w,c
 13829   004CB4  5B63               	subwfb	(___fldiv@rem+3)& (0+255),f,b
 13830   004CB6                     l3518:
 13831                           
 13832                           ; BSR set to: 0
 13833   004CB6  2B6C               	incf	___fldiv@aexp& (0+255),f,b
 13834   004CB8                     l1013:
 13835                           
 13836                           ; BSR set to: 0
 13837   004CB8  0E19               	movlw	25
 13838   004CBA  656C               	cpfsgt	___fldiv@aexp& (0+255),b
 13839   004CBC  EF62  F026         	goto	u2871
 13840   004CC0  EF64  F026         	goto	u2870
 13841   004CC4                     u2871:
 13842   004CC4  EF24  F026         	goto	l3504
 13843   004CC8                     u2870:
 13844   004CC8                     
 13845                           ; BSR set to: 0
 13846   004CC8  5160               	movf	___fldiv@rem& (0+255),w,b
 13847   004CCA  1161               	iorwf	(___fldiv@rem+1)& (0+255),w,b
 13848   004CCC  1162               	iorwf	(___fldiv@rem+2)& (0+255),w,b
 13849   004CCE  1163               	iorwf	(___fldiv@rem+3)& (0+255),w,b
 13850   004CD0  B4D8               	btfsc	status,2,c
 13851   004CD2  EF6D  F026         	goto	u2881
 13852   004CD6  EF6F  F026         	goto	u2880
 13853   004CDA                     u2881:
 13854   004CDA  EF87  F026         	goto	l3530
 13855   004CDE                     u2880:
 13856   004CDE                     
 13857                           ; BSR set to: 0
 13858   004CDE  8167               	bsf	___fldiv@grs& (0+255),0,b
 13859   004CE0  EF87  F026         	goto	l3530
 13860   004CE4                     l3524:
 13861                           
 13862                           ; BSR set to: 0
 13863   004CE4  90D8               	bcf	status,0,c
 13864   004CE6  364E               	rlcf	___fldiv@b^0,f,c
 13865   004CE8  364F               	rlcf	(___fldiv@b+1)^0,f,c
 13866   004CEA  3650               	rlcf	(___fldiv@b+2)^0,f,c
 13867   004CEC  3651               	rlcf	(___fldiv@b+3)^0,f,c
 13868   004CEE                     
 13869                           ; BSR set to: 0
 13870   004CEE  AF6A               	btfss	(___fldiv@grs+3)& (0+255),7,b
 13871   004CF0  EF7C  F026         	goto	u2891
 13872   004CF4  EF7E  F026         	goto	u2890
 13873   004CF8                     u2891:
 13874   004CF8  EF7F  F026         	goto	l1022
 13875   004CFC                     u2890:
 13876   004CFC                     
 13877                           ; BSR set to: 0
 13878   004CFC  804E               	bsf	___fldiv@b^0,0,c
 13879   004CFE                     l1022:
 13880                           
 13881                           ; BSR set to: 0
 13882   004CFE  90D8               	bcf	status,0,c
 13883   004D00  3767               	rlcf	___fldiv@grs& (0+255),f,b
 13884   004D02  3768               	rlcf	(___fldiv@grs+1)& (0+255),f,b
 13885   004D04  3769               	rlcf	(___fldiv@grs+2)& (0+255),f,b
 13886   004D06  376A               	rlcf	(___fldiv@grs+3)& (0+255),f,b
 13887   004D08  0765               	decf	___fldiv@new_exp& (0+255),f,b
 13888   004D0A  A0D8               	btfss	status,0,c
 13889   004D0C  0766               	decf	(___fldiv@new_exp+1)& (0+255),f,b
 13890   004D0E                     l3530:
 13891                           
 13892                           ; BSR set to: 0
 13893   004D0E  AE50               	btfss	(___fldiv@b+2)^0,7,c
 13894   004D10  EF8C  F026         	goto	u2901
 13895   004D14  EF8E  F026         	goto	u2900
 13896   004D18                     u2901:
 13897   004D18  EF72  F026         	goto	l3524
 13898   004D1C                     u2900:
 13899   004D1C                     
 13900                           ; BSR set to: 0
 13901   004D1C  0E00               	movlw	0
 13902   004D1E  6F6C               	movwf	___fldiv@aexp& (0+255),b
 13903   004D20                     
 13904                           ; BSR set to: 0
 13905   004D20  AF6A               	btfss	(___fldiv@grs+3)& (0+255),7,b
 13906   004D22  EF95  F026         	goto	u2911
 13907   004D26  EF97  F026         	goto	u2910
 13908   004D2A                     u2911:
 13909   004D2A  EFBB  F026         	goto	l1024
 13910   004D2E                     u2910:
 13911   004D2E                     
 13912                           ; BSR set to: 0
 13913   004D2E  0EFF               	movlw	255
 13914   004D30  1567               	andwf	___fldiv@grs& (0+255),w,b
 13915   004D32  6E56               	movwf	??___fldiv^0,c
 13916   004D34  0EFF               	movlw	255
 13917   004D36  1568               	andwf	(___fldiv@grs+1)& (0+255),w,b
 13918   004D38  6E57               	movwf	(??___fldiv+1)^0,c
 13919   004D3A  0EFF               	movlw	255
 13920   004D3C  1569               	andwf	(___fldiv@grs+2)& (0+255),w,b
 13921   004D3E  6E58               	movwf	(??___fldiv+2)^0,c
 13922   004D40  0E7F               	movlw	127
 13923   004D42  156A               	andwf	(___fldiv@grs+3)& (0+255),w,b
 13924   004D44  6E59               	movwf	(??___fldiv+3)^0,c
 13925   004D46  5056               	movf	??___fldiv^0,w,c
 13926   004D48  1057               	iorwf	(??___fldiv+1)^0,w,c
 13927   004D4A  1058               	iorwf	(??___fldiv+2)^0,w,c
 13928   004D4C  1059               	iorwf	(??___fldiv+3)^0,w,c
 13929   004D4E  B4D8               	btfsc	status,2,c
 13930   004D50  EFAC  F026         	goto	u2921
 13931   004D54  EFAE  F026         	goto	u2920
 13932   004D58                     u2921:
 13933   004D58  EFB2  F026         	goto	l1025
 13934   004D5C                     u2920:
 13935   004D5C                     l3538:
 13936                           
 13937                           ; BSR set to: 0
 13938   004D5C  0E01               	movlw	1
 13939   004D5E  6F6C               	movwf	___fldiv@aexp& (0+255),b
 13940   004D60  EFBB  F026         	goto	l1024
 13941   004D64                     l1025:
 13942                           
 13943                           ; BSR set to: 0
 13944   004D64  A04E               	btfss	___fldiv@b^0,0,c
 13945   004D66  EFB7  F026         	goto	u2931
 13946   004D6A  EFB9  F026         	goto	u2930
 13947   004D6E                     u2931:
 13948   004D6E  EFBB  F026         	goto	l1024
 13949   004D72                     u2930:
 13950   004D72  EFAE  F026         	goto	l3538
 13951   004D76                     l1024:
 13952                           
 13953                           ; BSR set to: 0
 13954   004D76  516C               	movf	___fldiv@aexp& (0+255),w,b
 13955   004D78  B4D8               	btfsc	status,2,c
 13956   004D7A  EFC1  F026         	goto	u2941
 13957   004D7E  EFC3  F026         	goto	u2940
 13958   004D82                     u2941:
 13959   004D82  EFE7  F026         	goto	l3550
 13960   004D86                     u2940:
 13961   004D86                     
 13962                           ; BSR set to: 0
 13963   004D86  0E01               	movlw	1
 13964   004D88  264E               	addwf	___fldiv@b^0,f,c
 13965   004D8A  0E00               	movlw	0
 13966   004D8C  224F               	addwfc	(___fldiv@b+1)^0,f,c
 13967   004D8E  2250               	addwfc	(___fldiv@b+2)^0,f,c
 13968   004D90  2251               	addwfc	(___fldiv@b+3)^0,f,c
 13969   004D92                     
 13970                           ; BSR set to: 0
 13971   004D92  A051               	btfss	(___fldiv@b+3)^0,0,c
 13972   004D94  EFCE  F026         	goto	u2951
 13973   004D98  EFD0  F026         	goto	u2950
 13974   004D9C                     u2951:
 13975   004D9C  EFE7  F026         	goto	l3550
 13976   004DA0                     u2950:
 13977   004DA0                     
 13978                           ; BSR set to: 0
 13979   004DA0  C04E  F056         	movff	___fldiv@b,??___fldiv
 13980   004DA4  C04F  F057         	movff	___fldiv@b+1,??___fldiv+1
 13981   004DA8  C050  F058         	movff	___fldiv@b+2,??___fldiv+2
 13982   004DAC  C051  F059         	movff	___fldiv@b+3,??___fldiv+3
 13983   004DB0  3459               	rlcf	(??___fldiv+3)^0,w,c
 13984   004DB2  3259               	rrcf	(??___fldiv+3)^0,f,c
 13985   004DB4  3258               	rrcf	(??___fldiv+2)^0,f,c
 13986   004DB6  3257               	rrcf	(??___fldiv+1)^0,f,c
 13987   004DB8  3256               	rrcf	??___fldiv^0,f,c
 13988   004DBA  C056  F04E         	movff	??___fldiv,___fldiv@b
 13989   004DBE  C057  F04F         	movff	??___fldiv+1,___fldiv@b+1
 13990   004DC2  C058  F050         	movff	??___fldiv+2,___fldiv@b+2
 13991   004DC6  C059  F051         	movff	??___fldiv+3,___fldiv@b+3
 13992   004DCA                     
 13993                           ; BSR set to: 0
 13994   004DCA  4B65               	infsnz	___fldiv@new_exp& (0+255),f,b
 13995   004DCC  2B66               	incf	(___fldiv@new_exp+1)& (0+255),f,b
 13996   004DCE                     l3550:
 13997                           
 13998                           ; BSR set to: 0
 13999   004DCE  BF66               	btfsc	(___fldiv@new_exp+1)& (0+255),7,b
 14000   004DD0  EFF2  F026         	goto	u2961
 14001   004DD4  5166               	movf	(___fldiv@new_exp+1)& (0+255),w,b
 14002   004DD6  E108               	bnz	u2960
 14003   004DD8  2965               	incf	___fldiv@new_exp& (0+255),w,b
 14004   004DDA  A0D8               	btfss	status,0,c
 14005   004DDC  EFF2  F026         	goto	u2961
 14006   004DE0  EFF4  F026         	goto	u2960
 14007   004DE4                     u2961:
 14008   004DE4  EFFF  F026         	goto	l3554
 14009   004DE8                     u2960:
 14010   004DE8                     
 14011                           ; BSR set to: 0
 14012   004DE8  0E00               	movlw	0
 14013   004DEA  6F66               	movwf	(___fldiv@new_exp+1)& (0+255),b
 14014   004DEC  6965               	setf	___fldiv@new_exp& (0+255),b
 14015   004DEE  0E00               	movlw	0
 14016   004DF0  6E4E               	movwf	___fldiv@b^0,c
 14017   004DF2  0E00               	movlw	0
 14018   004DF4  6E4F               	movwf	(___fldiv@b+1)^0,c
 14019   004DF6  0E00               	movlw	0
 14020   004DF8  6E50               	movwf	(___fldiv@b+2)^0,c
 14021   004DFA  0E00               	movlw	0
 14022   004DFC  6E51               	movwf	(___fldiv@b+3)^0,c
 14023   004DFE                     l3554:
 14024                           
 14025                           ; BSR set to: 0
 14026   004DFE  BF66               	btfsc	(___fldiv@new_exp+1)& (0+255),7,b
 14027   004E00  EF0C  F027         	goto	u2970
 14028   004E04  5166               	movf	(___fldiv@new_exp+1)& (0+255),w,b
 14029   004E06  E106               	bnz	u2971
 14030   004E08  0565               	decf	___fldiv@new_exp& (0+255),w,b
 14031   004E0A  B0D8               	btfsc	status,0,c
 14032   004E0C  EF0A  F027         	goto	u2971
 14033   004E10  EF0C  F027         	goto	u2970
 14034   004E14                     u2971:
 14035   004E14  EF1A  F027         	goto	l3558
 14036   004E18                     u2970:
 14037   004E18                     
 14038                           ; BSR set to: 0
 14039   004E18  0E00               	movlw	0
 14040   004E1A  6F66               	movwf	(___fldiv@new_exp+1)& (0+255),b
 14041   004E1C  0E00               	movlw	0
 14042   004E1E  6F65               	movwf	___fldiv@new_exp& (0+255),b
 14043   004E20  0E00               	movlw	0
 14044   004E22  6E4E               	movwf	___fldiv@b^0,c
 14045   004E24  0E00               	movlw	0
 14046   004E26  6E4F               	movwf	(___fldiv@b+1)^0,c
 14047   004E28  0E00               	movlw	0
 14048   004E2A  6E50               	movwf	(___fldiv@b+2)^0,c
 14049   004E2C  0E00               	movlw	0
 14050   004E2E  6E51               	movwf	(___fldiv@b+3)^0,c
 14051   004E30  0E00               	movlw	0
 14052   004E32  6F64               	movwf	___fldiv@sign& (0+255),b
 14053   004E34                     l3558:
 14054                           
 14055                           ; BSR set to: 0
 14056   004E34  C065  F06B         	movff	___fldiv@new_exp,___fldiv@bexp
 14057   004E38                     
 14058                           ; BSR set to: 0
 14059   004E38  A16B               	btfss	___fldiv@bexp& (0+255),0,b
 14060   004E3A  EF21  F027         	goto	u2981
 14061   004E3E  EF23  F027         	goto	u2980
 14062   004E42                     u2981:
 14063   004E42  EF26  F027         	goto	l3564
 14064   004E46                     u2980:
 14065   004E46                     
 14066                           ; BSR set to: 0
 14067   004E46  8E50               	bsf	(___fldiv@b+2)^0,7,c
 14068   004E48  EF27  F027         	goto	l3566
 14069   004E4C                     l3564:
 14070                           
 14071                           ; BSR set to: 0
 14072   004E4C  9E50               	bcf	(___fldiv@b+2)^0,7,c
 14073   004E4E                     l3566:
 14074                           
 14075                           ; BSR set to: 0
 14076   004E4E  90D8               	bcf	status,0,c
 14077   004E50  316B               	rrcf	___fldiv@bexp& (0+255),w,b
 14078   004E52  6E51               	movwf	(___fldiv@b+3)^0,c
 14079   004E54  EFDD  F025         	goto	l3480
 14080   004E58                     l1011:
 14081                           
 14082                           ; BSR set to: 0
 14083   004E58  0012               	return		;funcret
 14084   004E5A                     __end_of___fldiv:
 14085                           	callstack 0
 14086                           
 14087 ;; *************** function _INTERRUPT_InterruptManager *****************
 14088 ;; Defined at:
 14089 ;;		line 58 in file "mcc_generated_files/interrupt_manager.c"
 14090 ;; Parameters:    Size  Location     Type
 14091 ;;		None
 14092 ;; Auto vars:     Size  Location     Type
 14093 ;;		None
 14094 ;; Return value:  Size  Location     Type
 14095 ;;                  1    wreg      void 
 14096 ;; Registers used:
 14097 ;;		wreg, status,2, status,0, pcl, pclath, pclatu, tosl, cstack
 14098 ;; Tracked objects:
 14099 ;;		On entry : 0/0
 14100 ;;		On exit  : 0/0
 14101 ;;		Unchanged: 0/0
 14102 ;; Data sizes:     COMRAM   BANK0   BANK1   BANK2   BANK3   BANK4   BANK5   BANK6   BANK7   BANK8   BANK9  BANK10  BANK1
      +1  BANK12  BANK13  BANK14  BANK15
 14103 ;;      Params:         0       0       0       0       0       0       0       0       0       0       0       0       
      +0       0       0       0       0
 14104 ;;      Locals:         0       0       0       0       0       0       0       0       0       0       0       0       
      +0       0       0       0       0
 14105 ;;      Temps:          2       0       0       0       0       0       0       0       0       0       0       0       
      +0       0       0       0       0
 14106 ;;      Totals:         2       0       0       0       0       0       0       0       0       0       0       0       
      +0       0       0       0       0
 14107 ;;Total ram usage:        2 bytes
 14108 ;; Hardware stack levels used: 1
 14109 ;; Hardware stack levels required when called: 2
 14110 ;; This function calls:
 14111 ;;		_TMR0_ISR
 14112 ;; This function is called by:
 14113 ;;		Interrupt level 2
 14114 ;; This function uses a non-reentrant model
 14115 ;;
 14116                           
 14117                           	psect	text46
 14118   005FAC                     __ptext46:
 14119                           	callstack 0
 14120   005FAC                     _INTERRUPT_InterruptManager:
 14121                           	callstack 24
 14122                           
 14123                           ; BSR set to: 0
 14124                           ;incstack = 0
 14125   005FAC  006F FFE8  F001    	movff	pclath,??_INTERRUPT_InterruptManager
 14126   005FB2  006F FFEC  F002    	movff	pclatu,??_INTERRUPT_InterruptManager+1
 14127   005FB8                     
 14128                           ;mcc_generated_files/interrupt_manager.c: 61:     if(PIE3bits.TMR0IE == 1 && PIR3bits.TM
      +                          R0IF == 1)
 14129   005FB8  0139               	movlb	57	; () banked
 14130   005FBA  AF93               	btfss	147,7,b	;volatile
 14131   005FBC  EFE2  F02F         	goto	i2u469_41
 14132   005FC0  EFE4  F02F         	goto	i2u469_40
 14133   005FC4                     i2u469_41:
 14134   005FC4  EFED  F02F         	goto	i2l426
 14135   005FC8                     i2u469_40:
 14136   005FC8                     
 14137                           ; BSR set to: 57
 14138   005FC8  AFA3               	btfss	163,7,b	;volatile
 14139   005FCA  EFE9  F02F         	goto	i2u470_41
 14140   005FCE  EFEB  F02F         	goto	i2u470_40
 14141   005FD2                     i2u470_41:
 14142   005FD2  EFED  F02F         	goto	i2l426
 14143   005FD6                     i2u470_40:
 14144   005FD6                     
 14145                           ; BSR set to: 57
 14146                           ;mcc_generated_files/interrupt_manager.c: 62:     {;mcc_generated_files/interrupt_manage
      +                          r.c: 63:         TMR0_ISR();
 14147   005FD6  EC44  F030         	call	_TMR0_ISR	;wreg free
 14148   005FDA                     i2l426:
 14149   005FDA  0060  F00B  FFFB   	movff	??_INTERRUPT_InterruptManager+1,pclatu
 14150   005FE0  0060  F007  FFFA   	movff	??_INTERRUPT_InterruptManager,pclath
 14151   005FE6  0011               	retfie		f
 14152   005FE8                     __end_of_INTERRUPT_InterruptManager:
 14153                           	callstack 0
 14154                           
 14155 ;; *************** function _TMR0_ISR *****************
 14156 ;; Defined at:
 14157 ;;		line 121 in file "mcc_generated_files/tmr0.c"
 14158 ;; Parameters:    Size  Location     Type
 14159 ;;		None
 14160 ;; Auto vars:     Size  Location     Type
 14161 ;;		None
 14162 ;; Return value:  Size  Location     Type
 14163 ;;                  1    wreg      void 
 14164 ;; Registers used:
 14165 ;;		wreg, status,2, status,0, pcl, pclath, pclatu, tosl, cstack
 14166 ;; Tracked objects:
 14167 ;;		On entry : 0/0
 14168 ;;		On exit  : 0/0
 14169 ;;		Unchanged: 0/0
 14170 ;; Data sizes:     COMRAM   BANK0   BANK1   BANK2   BANK3   BANK4   BANK5   BANK6   BANK7   BANK8   BANK9  BANK10  BANK1
      +1  BANK12  BANK13  BANK14  BANK15
 14171 ;;      Params:         0       0       0       0       0       0       0       0       0       0       0       0       
      +0       0       0       0       0
 14172 ;;      Locals:         0       0       0       0       0       0       0       0       0       0       0       0       
      +0       0       0       0       0
 14173 ;;      Temps:          0       0       0       0       0       0       0       0       0       0       0       0       
      +0       0       0       0       0
 14174 ;;      Totals:         0       0       0       0       0       0       0       0       0       0       0       0       
      +0       0       0       0       0
 14175 ;;Total ram usage:        0 bytes
 14176 ;; Hardware stack levels used: 1
 14177 ;; Hardware stack levels required when called: 1
 14178 ;; This function calls:
 14179 ;;		NULL
 14180 ;;		_TMR0_DefaultInterruptHandler
 14181 ;; This function is called by:
 14182 ;;		_INTERRUPT_InterruptManager
 14183 ;; This function uses a non-reentrant model
 14184 ;;
 14185                           
 14186                           	psect	text47
 14187   006088                     __ptext47:
 14188                           	callstack 0
 14189   006088                     _TMR0_ISR:
 14190                           	callstack 24
 14191   006088                     
 14192                           ;mcc_generated_files/tmr0.c: 124:     PIR3bits.TMR0IF = 0;
 14193   006088  0139               	movlb	57	; () banked
 14194   00608A  9FA3               	bcf	163,7,b	;volatile
 14195   00608C                     
 14196                           ; BSR set to: 57
 14197                           ;mcc_generated_files/tmr0.c: 125:     if(TMR0_InterruptHandler)
 14198   00608C  0100               	movlb	0	; () banked
 14199   00608E  51EF               	movf	_TMR0_InterruptHandler& (0+255),w,b
 14200   006090  11F0               	iorwf	(_TMR0_InterruptHandler+1)& (0+255),w,b
 14201   006092  B4D8               	btfsc	status,2,c
 14202   006094  EF4E  F030         	goto	i2u437_41
 14203   006098  EF50  F030         	goto	i2u437_40
 14204   00609C                     i2u437_41:
 14205   00609C  EF5C  F030         	goto	i2l261
 14206   0060A0                     i2u437_40:
 14207   0060A0                     
 14208                           ; BSR set to: 0
 14209                           ;mcc_generated_files/tmr0.c: 126:     {;mcc_generated_files/tmr0.c: 127:         TMR0_In
      +                          terruptHandler();
 14210   0060A0  D802               	call	i2u438_48
 14211   0060A2  EF5C  F030         	goto	i2u438_49
 14212   0060A6                     i2u438_48:
 14213   0060A6  0005               	push	
 14214   0060A8  6EFA               	movwf	pclath,c
 14215   0060AA  51EF               	movf	_TMR0_InterruptHandler& (0+255),w,b
 14216   0060AC  6EFD               	movwf	tosl,c
 14217   0060AE  51F0               	movf	(_TMR0_InterruptHandler+1)& (0+255),w,b
 14218   0060B0  6EFE               	movwf	tosh,c
 14219   0060B2  6AFF               	clrf	tosu,c
 14220   0060B4  50FA               	movf	pclath,w,c
 14221   0060B6  0012               	return		;indir
 14222   0060B8                     i2u438_49:
 14223   0060B8                     i2l261:
 14224   0060B8  0012               	return		;funcret
 14225   0060BA                     __end_of_TMR0_ISR:
 14226                           	callstack 0
 14227                           
 14228 ;; *************** function _TMR0_DefaultInterruptHandler *****************
 14229 ;; Defined at:
 14230 ;;		line 138 in file "mcc_generated_files/tmr0.c"
 14231 ;; Parameters:    Size  Location     Type
 14232 ;;		None
 14233 ;; Auto vars:     Size  Location     Type
 14234 ;;		None
 14235 ;; Return value:  Size  Location     Type
 14236 ;;                  1    wreg      void 
 14237 ;; Registers used:
 14238 ;;		None
 14239 ;; Tracked objects:
 14240 ;;		On entry : 0/0
 14241 ;;		On exit  : 0/0
 14242 ;;		Unchanged: 0/0
 14243 ;; Data sizes:     COMRAM   BANK0   BANK1   BANK2   BANK3   BANK4   BANK5   BANK6   BANK7   BANK8   BANK9  BANK10  BANK1
      +1  BANK12  BANK13  BANK14  BANK15
 14244 ;;      Params:         0       0       0       0       0       0       0       0       0       0       0       0       
      +0       0       0       0       0
 14245 ;;      Locals:         0       0       0       0       0       0       0       0       0       0       0       0       
      +0       0       0       0       0
 14246 ;;      Temps:          0       0       0       0       0       0       0       0       0       0       0       0       
      +0       0       0       0       0
 14247 ;;      Totals:         0       0       0       0       0       0       0       0       0       0       0       0       
      +0       0       0       0       0
 14248 ;;Total ram usage:        0 bytes
 14249 ;; Hardware stack levels used: 1
 14250 ;; This function calls:
 14251 ;;		Nothing
 14252 ;; This function is called by:
 14253 ;;		_TMR0_Initialize
 14254 ;;		_TMR0_ISR
 14255 ;; This function uses a non-reentrant model
 14256 ;;
 14257                           
 14258                           	psect	text48
 14259   00620E                     __ptext48:
 14260                           	callstack 0
 14261   00620E                     _TMR0_DefaultInterruptHandler:
 14262                           	callstack 24
 14263   00620E  0012               	return		;funcret
 14264   006210                     __end_of_TMR0_DefaultInterruptHandler:
 14265                           	callstack 0
 14266                           
 14267                           ;
 14268                           ; Interrupt Vector Table @ 0x8
 14269                           ;
 14270                           
 14271                           	psect	ivt0x8
 14272   000008                     __pivt0x8:
 14273                           	callstack 0
 14274   000008                     ivt0x8_base:
 14275                           	callstack 0
 14276                           
 14277                           ; high-priority vector
 14278   000008  EFD6  F02F         	goto	_INTERRUPT_InterruptManager
 14279   000018                     	org	16
 14280                           
 14281                           ; low-priority vector
 14282   000018  00FF               	reset	
 14283                           
 14284                           	psect	text49
 14285   000000                     __ptext49:
 14286                           	callstack 0
 14287   000000                     
 14288                           	psect	rparam
 14289   000000                     
 14290                           	psect	idloc
 14291                           
 14292                           ;Config register IDLOC0 @ 0x200000
 14293                           ;	unspecified, using default values
 14294   200000                     	org	2097152
 14295   200000  0FFF               	dw	4095
 14296                           
 14297                           ;Config register IDLOC1 @ 0x200002
 14298                           ;	unspecified, using default values
 14299   200002                     	org	2097154
 14300   200002  0FFF               	dw	4095
 14301                           
 14302                           ;Config register IDLOC2 @ 0x200004
 14303                           ;	unspecified, using default values
 14304   200004                     	org	2097156
 14305   200004  0FFF               	dw	4095
 14306                           
 14307                           ;Config register IDLOC3 @ 0x200006
 14308                           ;	unspecified, using default values
 14309   200006                     	org	2097158
 14310   200006  0FFF               	dw	4095
 14311                           
 14312                           ;Config register IDLOC4 @ 0x200008
 14313                           ;	unspecified, using default values
 14314   200008                     	org	2097160
 14315   200008  0FFF               	dw	4095
 14316                           
 14317                           ;Config register IDLOC5 @ 0x20000A
 14318                           ;	unspecified, using default values
 14319   20000A                     	org	2097162
 14320   20000A  0FFF               	dw	4095
 14321                           
 14322                           ;Config register IDLOC6 @ 0x20000C
 14323                           ;	unspecified, using default values
 14324   20000C                     	org	2097164
 14325   20000C  0FFF               	dw	4095
 14326                           
 14327                           ;Config register IDLOC7 @ 0x20000E
 14328                           ;	unspecified, using default values
 14329   20000E                     	org	2097166
 14330   20000E  0FFF               	dw	4095
 14331                           
 14332                           	psect	config
 14333                           
 14334                           ;Config register CONFIG1L @ 0x300000
 14335                           ;	External Oscillator Selection
 14336                           ;	FEXTOSC = OFF, Oscillator not enabled
 14337                           ;	Reset Oscillator Selection
 14338                           ;	RSTOSC = HFINTOSC_64MHZ, HFINTOSC with HFFRQ = 64 MHz and CDIV = 1:1
 14339   300000                     	org	3145728
 14340   300000  8C                 	db	140
 14341                           
 14342                           ;Config register CONFIG1H @ 0x300001
 14343                           ;	Clock out Enable bit
 14344                           ;	CLKOUTEN = OFF, CLKOUT function is disabled
 14345                           ;	PRLOCKED One-Way Set Enable bit
 14346                           ;	PR1WAY = ON, PRLOCK bit can be cleared and set only once
 14347                           ;	Clock Switch Enable bit
 14348                           ;	CSWEN = ON, Writing to NOSC and NDIV is allowed
 14349                           ;	Fail-Safe Clock Monitor Enable bit
 14350                           ;	FCMEN = ON, Fail-Safe Clock Monitor enabled
 14351   300001                     	org	3145729
 14352   300001  FF                 	db	255
 14353                           
 14354                           ;Config register CONFIG2L @ 0x300002
 14355                           ;	MCLR Enable bit
 14356                           ;	MCLRE = EXTMCLR, If LVP = 0, MCLR pin is MCLR; If LVP = 1, RE3 pin function is MCLR
 14357                           ;	Power-up timer selection bits
 14358                           ;	PWRTS = PWRT_OFF, PWRT is disabled
 14359                           ;	Multi-vector enable bit
 14360                           ;	MVECEN = OFF, Interrupt contoller does not use vector table to prioritze interrupts
 14361                           ;	IVTLOCK bit One-way set enable bit
 14362                           ;	IVT1WAY = ON, IVTLOCK bit can be cleared and set only once
 14363                           ;	Low Power BOR Enable bit
 14364                           ;	LPBOREN = OFF, ULPBOR disabled
 14365                           ;	Brown-out Reset Enable bits
 14366                           ;	BOREN = SBORDIS, Brown-out Reset enabled , SBOREN bit is ignored
 14367   300002                     	org	3145730
 14368   300002  F7                 	db	247
 14369                           
 14370                           ;Config register CONFIG2H @ 0x300003
 14371                           ;	Brown-out Reset Voltage Selection bits
 14372                           ;	BORV = VBOR_2P45, Brown-out Reset Voltage (VBOR) set to 2.45V
 14373                           ;	ZCD Disable bit
 14374                           ;	ZCD = OFF, ZCD disabled. ZCD can be enabled by setting the ZCDSEN bit of ZCDCON
 14375                           ;	PPSLOCK bit One-Way Set Enable bit
 14376                           ;	PPS1WAY = ON, PPSLOCK bit can be cleared and set only once; PPS registers remain locke
      +                          d after one clear/set cycle
 14377                           ;	Stack Full/Underflow Reset Enable bit
 14378                           ;	STVREN = ON, Stack full/underflow will cause Reset
 14379                           ;	Debugger Enable bit
 14380                           ;	DEBUG = OFF, Background debugger disabled
 14381                           ;	Extended Instruction Set Enable bit
 14382                           ;	XINST = OFF, Extended Instruction Set and Indexed Addressing Mode disabled
 14383   300003                     	org	3145731
 14384   300003  FF                 	db	255
 14385                           
 14386                           ;Config register CONFIG3L @ 0x300004
 14387                           ;	WDT Period selection bits
 14388                           ;	WDTCPS = WDTCPS_31, Divider ratio 1:65536; software control of WDTPS
 14389                           ;	WDT operating mode
 14390                           ;	WDTE = OFF, WDT Disabled; SWDTEN is ignored
 14391   300004                     	org	3145732
 14392   300004  9F                 	db	159
 14393                           
 14394                           ;Config register CONFIG3H @ 0x300005
 14395                           ;	WDT Window Select bits
 14396                           ;	WDTCWS = WDTCWS_7, window always open (100%); software control; keyed access not requi
      +                          red
 14397                           ;	WDT input clock selector
 14398                           ;	WDTCCS = SC, Software Control
 14399   300005                     	org	3145733
 14400   300005  FF                 	db	255
 14401                           
 14402                           ;Config register CONFIG4L @ 0x300006
 14403                           ;	Boot Block Size selection bits
 14404                           ;	BBSIZE = BBSIZE_512, Boot Block size is 512 words
 14405                           ;	Boot Block enable bit
 14406                           ;	BBEN = OFF, Boot block disabled
 14407                           ;	Storage Area Flash enable bit
 14408                           ;	SAFEN = OFF, SAF disabled
 14409                           ;	Application Block write protection bit
 14410                           ;	WRTAPP = OFF, Application Block not write protected
 14411   300006                     	org	3145734
 14412   300006  FF                 	db	255
 14413                           
 14414                           ;Config register CONFIG4H @ 0x300007
 14415                           ;	Configuration Register Write Protection bit
 14416                           ;	WRTB = OFF, Configuration registers (300000-30000Bh) not write-protected
 14417                           ;	Boot Block Write Protection bit
 14418                           ;	WRTC = OFF, Boot Block (000000-0007FFh) not write-protected
 14419                           ;	Data EEPROM Write Protection bit
 14420                           ;	WRTD = OFF, Data EEPROM not write-protected
 14421                           ;	SAF Write protection bit
 14422                           ;	WRTSAF = OFF, SAF not Write Protected
 14423                           ;	Low Voltage Programming Enable bit
 14424                           ;	LVP = ON, Low voltage programming enabled. MCLR/VPP pin function is MCLR. MCLRE config
      +                          uration bit is ignored
 14425   300007                     	org	3145735
 14426   300007  FF                 	db	255
 14427                           
 14428                           ;Config register CONFIG5L @ 0x300008
 14429                           ;	PFM and Data EEPROM Code Protection bit
 14430                           ;	CP = OFF, PFM and Data EEPROM code protection disabled
 14431   300008                     	org	3145736
 14432   300008  FF                 	db	255
 14433                           
 14434                           ;Config register CONFIG5H @ 0x300009
 14435                           ;	unspecified, using default values
 14436   300009                     	org	3145737
 14437   300009  FF                 	db	255
 14438                           tosu	equ	0x3FFF
 14439                           tosh	equ	0x3FFE
 14440                           tosl	equ	0x3FFD
 14441                           stkptr	equ	0x3FFC
 14442                           pclatu	equ	0x3FFB
 14443                           pclath	equ	0x3FFA
 14444                           pcl	equ	0x3FF9
 14445                           tblptru	equ	0x3FF8
 14446                           tblptrh	equ	0x3FF7
 14447                           tblptrl	equ	0x3FF6
 14448                           tablat	equ	0x3FF5
 14449                           prodh	equ	0x3FF4
 14450                           prodl	equ	0x3FF3
 14451                           indf0	equ	0x3FEF
 14452                           postinc0	equ	0x3FEE
 14453                           postdec0	equ	0x3FED
 14454                           preinc0	equ	0x3FEC
 14455                           plusw0	equ	0x3FEB
 14456                           fsr0h	equ	0x3FEA
 14457                           fsr0l	equ	0x3FE9
 14458                           wreg	equ	0x3FE8
 14459                           indf1	equ	0x3FE7
 14460                           postinc1	equ	0x3FE6
 14461                           postdec1	equ	0x3FE5
 14462                           preinc1	equ	0x3FE4
 14463                           plusw1	equ	0x3FE3
 14464                           fsr1h	equ	0x3FE2
 14465                           fsr1l	equ	0x3FE1
 14466                           bsr	equ	0x3FE0
 14467                           indf2	equ	0x3FDF
 14468                           postinc2	equ	0x3FDE
 14469                           postdec2	equ	0x3FDD
 14470                           preinc2	equ	0x3FDC
 14471                           plusw2	equ	0x3FDB
 14472                           fsr2h	equ	0x3FDA
 14473                           fsr2l	equ	0x3FD9
 14474                           status	equ	0x3FD8

Data Sizes:
    Strings     1
    Constant    354
    Data        0
    BSS         148
    Persistent  8
    Stack       0

Auto Spaces:
    Space          Size  Autos    Used
    COMRAM           95     91      92
    BANK0           160    143     157
    BANK1           256    227     235
    BANK2           256    244     244
    BANK3           256    180     185
    BANK4           256      0     128
    BANK5           256      0       0
    BANK6           256      0       0
    BANK7           256      0       0
    BANK8           256      0       0
    BANK9           256      0       0
    BANK10          256      0       0
    BANK11          256      0       0
    BANK12          256      0       0
    BANK13          256      0       0
    BANK14          256      0       0
    BANK15          256      0       0

Pointer List with Targets:

    nanf@s	PTR const unsigned char  size(2) Largest target is 1
		 -> STR_1(CODE[1]), 

    EKF@Fprime	PTR struct MatrixStruct size(2) Largest target is 18
		 -> main@Fprime(BANK3[18]), 

    Frame_Update@frame.buf	PTR unsigned char  size(2) Largest target is 128
		 -> main@rx_buf(BANK4[128]), 

    Frame_Update@frame	PTR struct . size(2) Largest target is 6
		 -> main@rx_frame(BANK3[5]), 

    Frame_Init@frame.buf	PTR unsigned char  size(2) Largest target is 128
		 -> main@rx_buf(BANK4[128]), 

    Frame_Init@buf	PTR unsigned char  size(2) Largest target is 128
		 -> main@rx_buf(BANK4[128]), 

    Frame_Init@frame	PTR struct . size(2) Largest target is 6
		 -> main@rx_frame(BANK3[5]), 

    mat_transpose@matrix	PTR struct MatrixStruct size(2) Largest target is 18
		 -> main@Eprime(BANK3[18]), main@Aprime(BANK3[18]), 

    mat_transpose@result	PTR struct MatrixStruct size(2) Largest target is 18
		 -> main@Eprime_transpose(BANK2[18]), main@Aprime_transpose(BANK2[18]), 

    mat_multiply@matrixC	PTR struct MatrixStruct size(2) Largest target is 18
		 -> main@sub_mat_3(BANK2[18]), main@sub_mat_2(BANK2[18]), main@sub_mat_1(BANK2[18]), 

    mat_multiply@matrixB	PTR struct MatrixStruct size(2) Largest target is 18
		 -> main@Pk_1(BANK3[18]), main@P(BANK3[18]), main@Qk1(BANK3[18]), main@Cprime_transpose(BANK3[18]), 
		 -> main@Eprime_transpose(BANK2[18]), main@Aprime_transpose(BANK2[18]), 

    mat_multiply@matrixA	PTR struct MatrixStruct size(2) Largest target is 18
		 -> main@sub_mat_1(BANK2[18]), main@P(BANK3[18]), main@Eprime(BANK3[18]), main@Aprime(BANK3[18]), 

    mat_fill_zero@matrix	PTR struct MatrixStruct size(2) Largest target is 18
		 -> main@sub_mat_3(BANK2[18]), main@sub_mat_2(BANK2[18]), main@sub_mat_1(BANK2[18]), main@Pk_1(BANK3[18]), 
		 -> main@P(BANK3[18]), main@Lk(BANK2[18]), main@PCorrected(BANK2[18]), main@xhatCorrected(BANK3[18]), 
		 -> main@fk_(BANK2[18]), main@xhatk_1(BANK3[18]), main@Qk1(BANK3[18]), main@xhat(BANK2[18]), 
		 -> main@Cprime_transpose(BANK3[18]), main@Cprime(BANK3[18]), main@Fprime(BANK3[18]), main@Eprime_transpose(BANK2[18]), 
		 -> main@Eprime(BANK3[18]), main@Aprime_transpose(BANK2[18]), main@Aprime(BANK3[18]), 

    mat_get@matrix	PTR struct MatrixStruct size(2) Largest target is 18
		 -> main@sub_mat_3(BANK2[18]), main@sub_mat_2(BANK2[18]), main@sub_mat_1(BANK2[18]), main@Pk_1(BANK3[18]), 
		 -> main@P(BANK3[18]), main@Lk(BANK2[18]), main@PCorrected(BANK2[18]), main@xhatCorrected(BANK3[18]), 
		 -> main@fk_(BANK2[18]), main@xhatk_1(BANK3[18]), main@Qk1(BANK3[18]), main@xhat(BANK2[18]), 
		 -> main@Cprime_transpose(BANK3[18]), main@Cprime(BANK3[18]), main@Eprime_transpose(BANK2[18]), main@Eprime(BANK3[18]), 
		 -> main@Aprime_transpose(BANK2[18]), main@Aprime(BANK3[18]), 

    mat_set@matrix	PTR struct MatrixStruct size(2) Largest target is 18
		 -> main@sub_mat_3(BANK2[18]), main@sub_mat_2(BANK2[18]), main@sub_mat_1(BANK2[18]), main@Pk_1(BANK3[18]), 
		 -> main@P(BANK3[18]), main@Lk(BANK2[18]), main@PCorrected(BANK2[18]), main@xhatCorrected(BANK3[18]), 
		 -> main@fk_(BANK2[18]), main@xhatk_1(BANK3[18]), main@Qk1(BANK3[18]), main@xhat(BANK2[18]), 
		 -> main@Cprime_transpose(BANK3[18]), main@Cprime(BANK3[18]), main@Fprime(BANK3[18]), main@Eprime_transpose(BANK2[18]), 
		 -> main@Eprime(BANK3[18]), main@Aprime_transpose(BANK2[18]), main@Aprime(BANK3[18]), 

    mat_init@matrix	PTR struct MatrixStruct size(2) Largest target is 18
		 -> main@sub_mat_3(BANK2[18]), main@sub_mat_2(BANK2[18]), main@sub_mat_1(BANK2[18]), main@Pk_1(BANK3[18]), 
		 -> main@P(BANK3[18]), main@Lk(BANK2[18]), main@PCorrected(BANK2[18]), main@xhatCorrected(BANK3[18]), 
		 -> main@fk_(BANK2[18]), main@xhatk_1(BANK3[18]), main@Qk1(BANK3[18]), main@xhat(BANK2[18]), 
		 -> main@Cprime_transpose(BANK3[18]), main@Cprime(BANK3[18]), main@Fprime(BANK3[18]), main@Eprime_transpose(BANK2[18]), 
		 -> main@Eprime(BANK3[18]), main@Aprime_transpose(BANK2[18]), main@Aprime(BANK3[18]), 

    S538$buf	PTR unsigned char  size(2) Largest target is 128
		 -> main@rx_buf(BANK4[128]), 

    F23576.buf	PTR unsigned char  size(2) Largest target is 128
		 -> main@rx_buf(BANK4[128]), 

    EKF@PCorrected	PTR struct MatrixStruct size(2) Largest target is 18
		 -> main@PCorrected(BANK2[18]), 

    EKF@xhatCorrected	PTR struct MatrixStruct size(2) Largest target is 18
		 -> main@xhatCorrected(BANK3[18]), 

    EKF@Lk	PTR struct MatrixStruct size(2) Largest target is 18
		 -> main@Lk(BANK2[18]), 

    EKF@Cprime	PTR struct MatrixStruct size(2) Largest target is 18
		 -> main@Cprime(BANK3[18]), 

    EKF@Cprime_transpose	PTR struct MatrixStruct size(2) Largest target is 18
		 -> main@Cprime_transpose(BANK3[18]), 

    EKF@P	PTR struct MatrixStruct size(2) Largest target is 18
		 -> main@P(BANK3[18]), 

    EKF@sub_mat_3	PTR struct MatrixStruct size(2) Largest target is 18
		 -> main@sub_mat_3(BANK2[18]), 

    EKF@Eprime_transpose	PTR struct MatrixStruct size(2) Largest target is 18
		 -> main@Eprime_transpose(BANK2[18]), 

    EKF@Qk1	PTR struct MatrixStruct size(2) Largest target is 18
		 -> main@Qk1(BANK3[18]), 

    EKF@Eprime	PTR struct MatrixStruct size(2) Largest target is 18
		 -> main@Eprime(BANK3[18]), 

    EKF@sub_mat_2	PTR struct MatrixStruct size(2) Largest target is 18
		 -> main@sub_mat_2(BANK2[18]), 

    EKF@Aprime_transpose	PTR struct MatrixStruct size(2) Largest target is 18
		 -> main@Aprime_transpose(BANK2[18]), 

    EKF@sub_mat_1	PTR struct MatrixStruct size(2) Largest target is 18
		 -> main@sub_mat_1(BANK2[18]), 

    EKF@Pk_1	PTR struct MatrixStruct size(2) Largest target is 18
		 -> main@Pk_1(BANK3[18]), 

    EKF@Aprime	PTR struct MatrixStruct size(2) Largest target is 18
		 -> main@Aprime(BANK3[18]), 

    EKF@xhat	PTR struct MatrixStruct size(2) Largest target is 18
		 -> main@xhat(BANK2[18]), 

    EKF@fk_	PTR struct MatrixStruct size(2) Largest target is 18
		 -> main@fk_(BANK2[18]), 

    EKF@xhatk_1	PTR struct MatrixStruct size(2) Largest target is 18
		 -> main@xhatk_1(BANK3[18]), 

    fk@fk_	PTR struct MatrixStruct size(2) Largest target is 18
		 -> main@fk_(BANK2[18]), 

    fk@xhatk_1	PTR struct MatrixStruct size(2) Largest target is 18
		 -> main@xhatk_1(BANK3[18]), 

    TMR0_SetInterruptHandler@InterruptHandler	PTR FTN()void  size(2) Largest target is 1
		 -> TMR0_DefaultInterruptHandler(), 

    TMR0_InterruptHandler	PTR FTN()void  size(2) Largest target is 1
		 -> NULL(), TMR0_DefaultInterruptHandler(), 

    UART1_SetErrorHandler@interruptHandler	PTR FTN()void  size(2) Largest target is 1
		 -> UART1_DefaultErrorHandler(), 

    UART1_SetOverrunErrorHandler@interruptHandler	PTR FTN()void  size(2) Largest target is 1
		 -> UART1_DefaultOverrunErrorHandler(), 

    UART1_SetFramingErrorHandler@interruptHandler	PTR FTN()void  size(2) Largest target is 1
		 -> UART1_DefaultFramingErrorHandler(), 

    UART1_ErrorHandler	PTR FTN()void  size(2) Largest target is 1
		 -> NULL(), UART1_DefaultErrorHandler(), 

    UART1_OverrunErrorHandler	PTR FTN()void  size(2) Largest target is 1
		 -> NULL(), UART1_DefaultOverrunErrorHandler(), 

    UART1_FramingErrorHandler	PTR FTN()void  size(2) Largest target is 1
		 -> NULL(), UART1_DefaultFramingErrorHandler(), 


Critical Paths under _main in COMRAM

    _mat_transpose->_mat_set
    _expf->___fldiv
    _UART1_Initialize->_UART1_SetErrorHandler
    _UART1_Initialize->_UART1_SetFramingErrorHandler
    _UART1_Initialize->_UART1_SetOverrunErrorHandler
    _TMR0_Initialize->_TMR0_SetInterruptHandler
    _powf->___fldiv
    _powf->___flge
    _sqrtf->___flge
    ___flge->___flsub
    _scalbnf->___flmul
    _mat_multiply->_mat_set
    _mat_init->_mat_fill_zero
    _hk->_VOC
    _VOC->___fldiv
    ___fltol->___fladd
    _fk->_mat_set
    _mat_get->___wmul
    ___flsub->___fltol
    ___fladd->___flmul
    ___flmul->_mat_get
    ___fldiv->___flsub

Critical Paths under _INTERRUPT_InterruptManager in COMRAM

    None.

Critical Paths under _main in BANK0

    _main->_EKF
    _mat_transpose->_mat_set
    _expf->___fldiv
    _EKF->_fk
    _powf->_sqrtf
    _mat_multiply->_mat_set
    _hk->_VOC
    _VOC->___fldiv
    _fk->_mat_set
    _mat_set->_expf

Critical Paths under _INTERRUPT_InterruptManager in BANK0

    None.

Critical Paths under _main in BANK1

    _hk->_VOC
    _mat_set->_powf

Critical Paths under _INTERRUPT_InterruptManager in BANK1

    None.

Critical Paths under _main in BANK2

    _main->_EKF

Critical Paths under _INTERRUPT_InterruptManager in BANK2

    None.

Critical Paths under _main in BANK3

    None.

Critical Paths under _INTERRUPT_InterruptManager in BANK3

    None.

Critical Paths under _main in BANK4

    None.

Critical Paths under _INTERRUPT_InterruptManager in BANK4

    None.

Critical Paths under _main in BANK5

    None.

Critical Paths under _INTERRUPT_InterruptManager in BANK5

    None.

Critical Paths under _main in BANK6

    None.

Critical Paths under _INTERRUPT_InterruptManager in BANK6

    None.

Critical Paths under _main in BANK7

    None.

Critical Paths under _INTERRUPT_InterruptManager in BANK7

    None.

Critical Paths under _main in BANK8

    None.

Critical Paths under _INTERRUPT_InterruptManager in BANK8

    None.

Critical Paths under _main in BANK9

    None.

Critical Paths under _INTERRUPT_InterruptManager in BANK9

    None.

Critical Paths under _main in BANK10

    None.

Critical Paths under _INTERRUPT_InterruptManager in BANK10

    None.

Critical Paths under _main in BANK11

    None.

Critical Paths under _INTERRUPT_InterruptManager in BANK11

    None.

Critical Paths under _main in BANK12

    None.

Critical Paths under _INTERRUPT_InterruptManager in BANK12

    None.

Critical Paths under _main in BANK13

    None.

Critical Paths under _INTERRUPT_InterruptManager in BANK13

    None.

Critical Paths under _main in BANK14

    None.

Critical Paths under _INTERRUPT_InterruptManager in BANK14

    None.

Critical Paths under _main in BANK15

    None.

Critical Paths under _INTERRUPT_InterruptManager in BANK15

    None.

Call Graph Tables:

 ---------------------------------------------------------------------------------
 (Depth) Function   	        Calls       Base Space   Used Autos Params    Refs
 ---------------------------------------------------------------------------------
 (0) _main                                               384   384      0  526013
                                            142 BANK0      1     1      0
                                            203 BANK1     24    24      0
                                             78 BANK2    166   166      0
                                              0 BANK3    180   180      0
                                _EKF
                         _Frame_Init
                       _Frame_Update
                  _SYSTEM_Initialize
                         _UART1_Read
                        _UART1_Write
                  _UART1_is_rx_ready
                  _UART1_is_tx_ready
                            ___fldiv
                            ___flmul
                            ___fltol
                           ___xxtofl
                               _expf
                            _mat_get
                           _mat_init
                            _mat_set
                      _mat_transpose
                               _powf
 ---------------------------------------------------------------------------------
 (1) _mat_transpose                                       20    16      4   19548
                                             83 BANK0     20    16      4
                            _mat_get
                           _mat_init
                            _mat_set
 ---------------------------------------------------------------------------------
 (1) _expf                                                58    54      4   62043
                                             13 BANK0     58    54      4
                            ___fladd
                            ___fldiv
                            ___flmul
                            ___flsub
                            ___fltol
                           ___xxtofl
                            _scalbnf
 ---------------------------------------------------------------------------------
 (1) _UART1_is_tx_ready                                    1     1      0      24
                                              2 COMRAM     1     1      0
 ---------------------------------------------------------------------------------
 (1) _UART1_is_rx_ready                                    0     0      0       0
 ---------------------------------------------------------------------------------
 (1) _UART1_Write                                          1     1      0      22
                                              2 COMRAM     1     1      0
 ---------------------------------------------------------------------------------
 (1) _UART1_Read                                           0     0      0       0
                                NULL *
          _UART1_DefaultErrorHandler *
   _UART1_DefaultFramingErrorHandler *
   _UART1_DefaultOverrunErrorHandler *
 ---------------------------------------------------------------------------------
 (2) _UART1_DefaultOverrunErrorHandler                     0     0      0       0
 ---------------------------------------------------------------------------------
 (2) _UART1_DefaultFramingErrorHandler                     0     0      0       0
 ---------------------------------------------------------------------------------
 (2) _UART1_DefaultErrorHandler                            0     0      0       0
 ---------------------------------------------------------------------------------
 (7) NULL(Fake)                                            0     0      0       0
 ---------------------------------------------------------------------------------
 (1) _SYSTEM_Initialize                                    0     0      0     392
               _INTERRUPT_Initialize
              _OSCILLATOR_Initialize
             _PIN_MANAGER_Initialize
                     _PMD_Initialize
                    _TMR0_Initialize
                   _UART1_Initialize
 ---------------------------------------------------------------------------------
 (2) _UART1_Initialize                                     0     0      0     294
              _UART1_SetErrorHandler
       _UART1_SetFramingErrorHandler
       _UART1_SetOverrunErrorHandler
 ---------------------------------------------------------------------------------
 (3) _UART1_SetOverrunErrorHandler                         2     0      2      98
                                              2 COMRAM     2     0      2
 ---------------------------------------------------------------------------------
 (3) _UART1_SetFramingErrorHandler                         2     0      2      98
                                              2 COMRAM     2     0      2
 ---------------------------------------------------------------------------------
 (3) _UART1_SetErrorHandler                                2     0      2      98
                                              2 COMRAM     2     0      2
 ---------------------------------------------------------------------------------
 (2) _TMR0_Initialize                                      0     0      0      98
           _TMR0_SetInterruptHandler
 ---------------------------------------------------------------------------------
 (3) _TMR0_SetInterruptHandler                             2     0      2      98
                                              2 COMRAM     2     0      2
 ---------------------------------------------------------------------------------
 (2) _PMD_Initialize                                       0     0      0       0
 ---------------------------------------------------------------------------------
 (2) _PIN_MANAGER_Initialize                               0     0      0       0
 ---------------------------------------------------------------------------------
 (2) _OSCILLATOR_Initialize                                0     0      0       0
 ---------------------------------------------------------------------------------
 (2) _INTERRUPT_Initialize                                 0     0      0       0
 ---------------------------------------------------------------------------------
 (1) _Frame_Update                                         6     3      3     548
                                              2 COMRAM     6     3      3
 ---------------------------------------------------------------------------------
 (1) _Frame_Init                                           5     0      5     360
                                              2 COMRAM     5     0      5
 ---------------------------------------------------------------------------------
 (1) _EKF                                                105    27     78  302805
                                            115 BANK0     27    27      0
                                              0 BANK2     78     0     78
                            ___fladd
                            ___flmul
                            ___flsub
                                 _fk
                                 _hk
                            _mat_get
                       _mat_multiply
                            _mat_set
                               _powf
 ---------------------------------------------------------------------------------
 (1) _powf                                               197   189      8   98324
                                             45 BANK0     17     9      8
                                              0 BANK1    180   180      0
                            ___fladd
                            ___fldiv
                             ___flge
                            ___flmul
                            ___flneg
                            ___flsub
                           ___xxtofl
                              _fabsf
                            _scalbnf
                              _sqrtf
 ---------------------------------------------------------------------------------
 (2) _sqrtf                                               49    45      4   26469
                                              0 BANK0     45    41      4
                            ___fladd
                             ___flge
                            ___flmul
                               _nanf
 ---------------------------------------------------------------------------------
 (3) _nanf                                                 8     4      4      99
                                              2 COMRAM     8     4      4
 ---------------------------------------------------------------------------------
 (3) ___flge                                              12     4      8     790
                                             77 COMRAM    12     4      8
                            ___fladd (ARG)
                            ___flsub (ARG)
 ---------------------------------------------------------------------------------
 (2) _scalbnf                                             18    12      6   15463
                                             43 COMRAM    18    12      6
                            ___flmul
 ---------------------------------------------------------------------------------
 (2) _fabsf                                                8     4      4     123
                                              2 COMRAM     8     4      4
 ---------------------------------------------------------------------------------
 (2) ___flneg                                              4     0      4     197
                                              2 COMRAM     4     0      4
 ---------------------------------------------------------------------------------
 (2) _mat_multiply                                        15     9      6   45557
                                             83 BANK0     15     9      6
                            ___fladd
                            ___flmul
                      _mat_fill_zero
                            _mat_get
                           _mat_init
                            _mat_set
 ---------------------------------------------------------------------------------
 (2) _mat_init                                             4     1      3    3240
                                             10 COMRAM     4     1      3
                      _mat_fill_zero
 ---------------------------------------------------------------------------------
 (3) _mat_fill_zero                                        8     6      2     242
                                              2 COMRAM     8     6      2
 ---------------------------------------------------------------------------------
 (2) _hk                                                  16     0     16   36398
                                             17 BANK0     16     0     16
                                _VOC
                            ___flmul
                            ___flsub
                            _mat_get (ARG)
 ---------------------------------------------------------------------------------
 (3) _VOC                                                209   205      4    5016
                                             89 COMRAM     2     2      0
                                             13 BANK0      4     0      4
                                              0 BANK1    203   203      0
                            ___fldiv
                            ___flsub (ARG)
                            ___fltol
                           ___xxtofl
 ---------------------------------------------------------------------------------
 (2) ___xxtofl                                            14    10      4     778
                                              2 COMRAM    14    10      4
 ---------------------------------------------------------------------------------
 (2) ___fltol                                             10     6      4     457
                                             59 COMRAM    10     6      4
                            ___fladd (ARG)
                            ___flmul (ARG)
                            _mat_get (ARG)
 ---------------------------------------------------------------------------------
 (2) _fk                                                  32     8     24   60641
                                             83 BANK0     32     8     24
                            ___fladd
                            ___fldiv
                            ___flmul
                            ___flsub
                            _mat_get
                            _mat_set
 ---------------------------------------------------------------------------------
 (2) _mat_set                                             13     6      7    9537
                                             89 COMRAM     1     1      0
                                             71 BANK0     12     5      7
                            ___fladd (ARG)
                            ___flmul (ARG)
                            ___flsub (ARG)
                             ___wmul
                               _expf (ARG)
                            _mat_get (ARG)
                               _powf (ARG)
 ---------------------------------------------------------------------------------
 (2) _mat_get                                             10     6      4    5996
                                              8 COMRAM    10     6      4
                             ___wmul
 ---------------------------------------------------------------------------------
 (3) ___wmul                                               6     2      4     472
                                              2 COMRAM     6     2      4
 ---------------------------------------------------------------------------------
 (2) ___flsub                                              8     0      8   16113
                                             69 COMRAM     8     0      8
                            ___fladd
                            ___flmul (ARG)
                            ___fltol (ARG)
                           ___xxtofl (ARG)
                            _mat_get (ARG)
 ---------------------------------------------------------------------------------
 (3) ___fladd                                             16     8      8    9406
                                             43 COMRAM    16     8      8
                            ___flmul (ARG)
                            _mat_get (ARG)
 ---------------------------------------------------------------------------------
 (3) ___flmul                                             25    17      8   14816
                                             18 COMRAM    25    17      8
                           ___xxtofl (ARG)
                            _mat_get (ARG)
 ---------------------------------------------------------------------------------
 (2) ___fldiv                                             25    17      8    3527
                                             77 COMRAM    12     4      8
                                              0 BANK0     13    13      0
                            ___fladd (ARG)
                            ___flmul (ARG)
                            ___flsub (ARG)
                           ___xxtofl (ARG)
                            _mat_get (ARG)
 ---------------------------------------------------------------------------------
 Estimated maximum stack depth 7
 ---------------------------------------------------------------------------------
 (Depth) Function   	        Calls       Base Space   Used Autos Params    Refs
 ---------------------------------------------------------------------------------
 (5) _INTERRUPT_InterruptManager                           2     2      0       0
                                              0 COMRAM     2     2      0
                           _TMR0_ISR
 ---------------------------------------------------------------------------------
 (6) _TMR0_ISR                                             0     0      0       0
                                NULL *
       _TMR0_DefaultInterruptHandler *
 ---------------------------------------------------------------------------------
 (7) _TMR0_DefaultInterruptHandler                         0     0      0       0
 ---------------------------------------------------------------------------------
 (7) NULL(Fake)                                            0     0      0       0
 ---------------------------------------------------------------------------------
 Estimated maximum stack depth 7
 ---------------------------------------------------------------------------------

 Call Graph Graphs:

 _main (ROOT)
   _EKF
     ___fladd
       ___flmul (ARG)
         ___xxtofl (ARG)
         _mat_get (ARG)
           ___wmul
       _mat_get (ARG)
     ___flmul
     ___flsub
       ___fladd
       ___flmul (ARG)
       ___fltol (ARG)
         ___fladd (ARG)
         ___flmul (ARG)
         _mat_get (ARG)
       ___xxtofl (ARG)
       _mat_get (ARG)
     _fk
       ___fladd
       ___fldiv
         ___fladd (ARG)
         ___flmul (ARG)
         ___flsub (ARG)
         ___xxtofl (ARG)
         _mat_get (ARG)
       ___flmul
       ___flsub
       _mat_get
       _mat_set
         ___fladd (ARG)
         ___flmul (ARG)
         ___flsub (ARG)
         ___wmul (ARG)
         _expf (ARG)
           ___fladd
           ___fldiv
           ___flmul
           ___flsub
           ___fltol
           ___xxtofl
           _scalbnf
             ___flmul
         _mat_get (ARG)
         _powf (ARG)
           ___fladd
           ___fldiv
           ___flge
             ___fladd (ARG)
             ___flsub (ARG)
           ___flmul
           ___flneg
           ___flsub
           ___xxtofl
           _fabsf
           _scalbnf
           _sqrtf
             ___fladd
             ___flge
             ___flmul
             _nanf
     _hk
       _VOC
         ___fldiv
         ___flsub (ARG)
         ___fltol (ARG)
         ___xxtofl (ARG)
       ___flmul
       ___flsub
       _mat_get (ARG)
     _mat_get
     _mat_multiply
       ___fladd
       ___flmul
       _mat_fill_zero
       _mat_get
       _mat_init
         _mat_fill_zero
       _mat_set
     _mat_set
     _powf
   _Frame_Init
   _Frame_Update
   _SYSTEM_Initialize
     _INTERRUPT_Initialize
     _OSCILLATOR_Initialize
     _PIN_MANAGER_Initialize
     _PMD_Initialize
     _TMR0_Initialize
       _TMR0_SetInterruptHandler
     _UART1_Initialize
       _UART1_SetErrorHandler
       _UART1_SetFramingErrorHandler
       _UART1_SetOverrunErrorHandler
   _UART1_Read
     NULL(Fake) *
     _UART1_DefaultErrorHandler *
     _UART1_DefaultFramingErrorHandler *
     _UART1_DefaultOverrunErrorHandler *
   _UART1_Write
   _UART1_is_rx_ready
   _UART1_is_tx_ready
   ___fldiv
   ___flmul
   ___fltol
   ___xxtofl
   _expf
   _mat_get
   _mat_init
   _mat_set
   _mat_transpose
     _mat_get
     _mat_init
     _mat_set
   _powf

 _INTERRUPT_InterruptManager (ROOT)
   _TMR0_ISR
     NULL(Fake) *
     _TMR0_DefaultInterruptHandler *

 Address spaces:
Name               Size   Autos  Total    Cost      Usage
BIGRAM             FFF      0       0      57        0.0%
EEDATA             400      0       0       0        0.0%
BITBIGSFRlhhhhl    300      0       0      42        0.0%
BITBIGSFRllllll    293      0       0      55        0.0%
BITBIGSFRlhhhhh    1BB      0       0      39        0.0%
BITBANK15          100      0       0      34        0.0%
BANK15             100      0       0      35        0.0%
BITBANK14          100      0       0      32        0.0%
BANK14             100      0       0      33        0.0%
BITBANK13          100      0       0      30        0.0%
BANK13             100      0       0      31        0.0%
BITBANK12          100      0       0      28        0.0%
BANK12             100      0       0      29        0.0%
BITBANK11          100      0       0      26        0.0%
BANK11             100      0       0      27        0.0%
BITBANK10          100      0       0      24        0.0%
BANK10             100      0       0      25        0.0%
BITBANK9           100      0       0      22        0.0%
BANK9              100      0       0      23        0.0%
BITBANK8           100      0       0      20        0.0%
BANK8              100      0       0      21        0.0%
BITBANK7           100      0       0      18        0.0%
BANK7              100      0       0      19        0.0%
BITBANK6           100      0       0      16        0.0%
BANK6              100      0       0      17        0.0%
BITBANK5           100      0       0      14        0.0%
BANK5              100      0       0      15        0.0%
BITBANK4           100      0       0      12        0.0%
BANK4              100      0      80      13       50.0%
BITBANK3           100      0       0      10        0.0%
BANK3              100     B4      B9      11       72.3%
BITBANK2           100      0       0       8        0.0%
BANK2              100     F4      F4       9       95.3%
BITBANK1           100      0       0       6        0.0%
BANK1              100     E3      EB       7       91.8%
BITBANK0            A0      0       0       4        0.0%
BANK0               A0     8F      9D       5       98.1%
BITBIGSFRlhhhl      62      0       0      43        0.0%
BITCOMRAM           5F      0       0       0        0.0%
COMRAM              5F     5B      5C       1       96.8%
BITBIGSFRlllllh     36      0       0      49        0.0%
BITBIGSFRhhh        2D      0       0      36        0.0%
BITBIGSFRllllh      29      0       0      48        0.0%
BITBIGSFRllllll     1C      0       0      53        0.0%
BITBIGSFRlhl        1C      0       0      45        0.0%
BITBIGSFRllllll     11      0       0      52        0.0%
BITBIGSFRllllll      F      0       0      54        0.0%
BITBIGSFRhhl         D      0       0      37        0.0%
BITBIGSFRlllh        B      0       0      47        0.0%
BITBIGSFRllh         B      0       0      46        0.0%
BITBIGSFRhl          5      0       0      38        0.0%
BITBIGSFRlhhl        2      0       0      44        0.0%
BITBIGSFRlhhhhl      1      0       0      40        0.0%
BITBIGSFRlhhhhl      1      0       0      41        0.0%
BITBIGSFRlllllh      1      0       0      50        0.0%
BITBIGSFRlllllh      1      0       0      51        0.0%
BIGSFR               0      0       0     200        0.0%
BITSFR_9             0      0       0     200        0.0%
SFR_9                0      0       0     200        0.0%
BITSFR_8             0      0       0     200        0.0%
SFR_8                0      0       0     200        0.0%
BITSFR_7             0      0       0     200        0.0%
SFR_7                0      0       0     200        0.0%
BITSFR_6             0      0       0     200        0.0%
SFR_6                0      0       0     200        0.0%
BITSFR_5             0      0       0     200        0.0%
SFR_5                0      0       0     200        0.0%
BITSFR_4             0      0       0     200        0.0%
SFR_4                0      0       0     200        0.0%
BITSFR_3             0      0       0     200        0.0%
SFR_3                0      0       0     200        0.0%
BITSFR_2             0      0       0     200        0.0%
SFR_2                0      0       0     200        0.0%
BITSFR_1             0      0       0     200        0.0%
SFR_1                0      0       0     200        0.0%
BITSFR               0      0       0     200        0.0%
SFR                  0      0       0     200        0.0%
STACK                0      0       0       2        0.0%
NULL                 0      0       0       0        0.0%
ABS                  0      0     411      56        0.0%
DATA                 0      0     411       3        0.0%
CODE                 0      0       0       0        0.0%


Microchip Technology PIC18 Macro Assembler V2.41 build 20230208172133 
Symbol Table                                                                                   Mon Oct 09 15:26:51 2023

                              main@PCorrected 02D0                                  ___fldiv@aexp 006C  
                                ___fldiv@bexp 006B                                  ___fldiv@sign 0064  
                                          _L1 FFC5                                            _L2 FFC1  
                                          _L3 FFBD                                            _L4 FFB9  
                                          _L5 FFB5                                            _L6 FFB1  
                                          l53 5ED6                                            _P1 FFD9  
                                          _P2 FFD5                                            _P3 FFA5  
                                          _P4 FFA1                                            _P5 FF9D  
                                          l97 61AC                                            _bp FFE5  
                                          _cp FF89                                            _fk 508E  
                                          _hk 5D48                           ___wmul@multiplicand 0005  
                        main@Aprime_transpose 0284                                           ?_fk 00B3  
                                         ?_hk 0071                                           l100 61C4  
                                         l103 6156                                           l210 620C  
                                         l204 620A                                           l301 5BC2  
                                         l213 61EE                                           l207 6208  
                                         l312 52C0                                           l216 61E4  
                                         l401 57A2                                           l242 6132  
                                         l307 5DB4                                           l219 61F8  
                                         l173 60E2                                           l166 5E1C  
                                         l174 60E4                                           l335 317C  
                                         l183 5BC4                                           l264 6202  
                                         l192 617C                                           l169 61DA  
                                         l370 5D46                                           l419 6206  
                                         l195 6192                                           l364 6086  
                                         l429 610E                                           l189 5C5E  
                                         l390 58CE                                           l367 5CD4  
                                         l375 5E82                                           l703 601E  
                                         l393 5F1E                                           l387 5618  
                                         l726 59D4                                           l694 5A92  
                                         l699 5AD8                                           l957 439E  
                                         l974 44B8                                           l966 466E  
                                         l958 438C                                           l983 4588  
                                         l959 4352                                           l984 4576  
                                         _EKF 2A92                                           l999 5FAA  
                                         _VOC 5ADA                                ??_Frame_Update 0006  
                                         fk@I 00B5                                           _lg2 FF99  
                                         hk@I 0075                                           _ovt FF8D  
                            EKF@xhatCorrected 024A                                           prod 3FF3  
                                         tosl 3FFD                                           wreg 3FE8  
                                ___flmul@aexp 0024                                  ___flmul@bexp 0025  
                                ___flmul@sign 001F                                  ___flmul@temp 002A  
                                ___flmul@prod 0026                                          EKF@I 0204  
                                        EKF@P 0240                                          EKF@V 020C  
                                        ??_fk 005B                                          ??_hk 005C  
                                        ?_EKF 0200                                          ?_VOC 006D  
                                ___fltol@exp1 0045                                          l1011 4E58  
                                        l1013 4CB8                                          l1022 4CFE  
                                        l1024 4D76                                          l1016 4C7C  
                                        l1200 001E                                          l1025 4D64  
                                        l1050 494E                                          l1210 0320  
                                        l1202 003E                                          l1043 4734  
                                        l1123 37B0                                          l1060 4A7E  
                                        l1052 49C6                                          l1220 03B6  
                                        l1053 49B4                                          l1205 2A90  
                                        l1230 0478                                          l1047 4ABC  
                                        l1119 317E                                          l1306 228A  
                                        l1091 53B0                                          l1323 6052  
                                        l1307 2306                                          l1084 5318  
                                        l1333 508C                                          l1317 2A3C  
                                        l1238 059E                                          l1087 5474  
                                        l1353 3F4C                                          l1345 41AE  
                                        l1098 540C                                          l4002 6020  
                                        l4010 5E84                                          l3300 42D8  
                                        l4004 6040                                          l1356 4010  
                                        l4020 5EBE                                          l4012 5E90  
                                        l1349 3EEE                                          l3310 42EC  
                                        l3302 42DC                                          l3222 5E26  
                                        l4006 6042                                          l1366 6178  
                                        l1358 4118                                          l4030 5EC8  
                                        l4022 5EC0                                          l4014 5E92  
                                        l3400 456E                                          l3320 434A  
                                        l3304 42E0                                          l3312 42F0  
                                        l3240 41CC                                          l3224 5E62  
                                        l3216 5E1E                                          l4032 6204  
                                        l4024 5EC2                                          l4016 5E9E  
                                        l4040 611C                                          l3410 45EC  
                                        l3330 4380                                          l3322 4360  
                                        l3314 42F4                                          l3306 42E4  
                                        l3242 41DC                                          l3250 4206  
                                        l3234 41B0                                          l3226 5E66  
                                        l4026 5EC4                                          l4018 5EA0  
                                        l4034 6134                                          l4042 6120  
                                        l4050 5DF4                                          l3500 4C30  
                                        l3420 4632                                          l3404 4598  
                                        l3412 45EE                                          l3340 43D0  
                                        l3332 438A                                          l3324 436C  
                                        l3316 431E                                          l3308 42E8  
                                        l3260 4236                                          l3252 4216  
                                        l3244 41EC                                          l3236 41BC  
                                        l5100 3DC0                                          l4036 61AE  
                                        l4028 5EC6                                          l4044 6122  
                                        l4052 5E00                                          l3510 4C7A  
                                        l3502 4C40                                          l3430 465C  
                                        l3422 4640                                          l3414 45FE  
                                        l3406 45A4                                          l3350 440C  
                                        l3342 43E0                                          l3334 43AC  
                                        l3326 4370                                          l3318 433A  
                                        l3270 4276                                          l3262 4244  
                                        l3254 421C                                          l3246 41FC  
                                        l3238 41CA                                          l5102 3DEE  
                                        l4046 612E                                          l4038 6110  
                                        l4054 5E0C                                          l3520 4CC8  
                                        l3512 4C86                                          l3504 4C48  
                                        l3440 4ADA                                          l3600 46FE  
                                        l3432 465E                                          l3424 4646  
                                        l3416 460E                                          l3408 45B2  
                                        l3360 4452                                          l3352 441A  
                                        l3344 43EE                                          l3336 43BC  
                                        l3328 437E                                          l3280 42B0  
                                        l3272 4278                                          l3264 4246  
                                        l3256 422E                                          l3248 41FE  
                                        l5200 55E8                                          l5120 3EB8  
                                        l5104 3E02                                          l5112 3E38  
                                        l4056 5E18                                          l4048 5DB6  
                                        l3522 4CDE                                          l3530 4D0E  
                                        l3514 4CA4                                          l3506 4C58  
                                        l3450 4B0E                                          l3442 4ADC  
                                        l3610 4754                                          l3602 470E  
                                        l3426 4648                                          l3418 462E  
                                        l3370 44CE                                          l3362 4486  
                                        l3354 441C                                          l3346 43FC  
                                        l3290 42C4                                          l3282 42B4  
                                        l3266 4256                                          l3274 4280  
                                        l3258 4230                                          l5050 6106  
                                        l5130 3F86                                          l5122 3EC6  
                                        l5114 3E8E                                          l5106 3E10  
                                        l5210 00D8                                          l5202 005E  
                                        l3532 4D1C                                          l3524 4CE4  
                                        l3516 4CA6                                          l3508 4C6C  
                                        l3460 4B40                                          l3444 4AEC  
                                        l3452 4B16                                          l3436 4ABE  
                                        l3700 4AAC                                          l3620 479C  
                                        l3604 471E                                          l3428 464E  
                                        l3380 450A                                          l3372 44DE  
                                        l3364 4488                                          l3356 4426  
                                        l3348 4408                                          l3292 42C8  
                                        l3284 42B8                                          l3276 4290  
                                        l3268 4266                                          l5060 5B20  
                                        l5140 4040                                          l5132 3F9A  
                                        l5124 3F2E                                          l5116 3EA2  
                                        l5108 3E18                                          l5300 06EC  
                                        l5204 00A6                                          l3542 4D86  
                                        l3550 4DCE                                          l3534 4D20  
                                        l3526 4CEE                                          l3518 4CB6  
                                        l3470 4B74                                          l3462 4B42  
                                        l3454 4B26                                          l3446 4AFC  
                                        l3438 4ACC                                          l3630 47EA  
                                        l3622 47A8                                          l3614 4768  
                                        l3606 4724                                          l3390 4536  
                                        l3382 450C                                          l3366 4498  
                                        l3358 442C                                          l3294 42CC  
                                        l3286 42BC                                          l3278 42A2  
                                        l5054 5ADA                                          l3710 5A42  
                                        l5150 40DC                                          l5142 4056  
                                        l5134 3FD8                                          l5126 3F3C  
                                        l5118 3EAC                                          l5310 074C  
                                        l5302 0704                                          l5230 01B8  
                                        l5222 016A                                          l5214 00EE  
                                        l3560 4E38                                          l3552 4DE8  
                                        l3544 4D92                                          l3536 4D2E  
                                        l3528 4CFC                                          l3480 4BBA  
                                        l3464 4B52                                          l3472 4B7C  
                                        l3456 4B2C                                          l3448 4B0C  
                                        l3640 4848                                          l3632 47FA  
                                        l3624 47C4                                          l3616 4778  
                                        l3608 4744                                          l3384 451A  
                                        l3376 44F2                                          l3392 4538  
                                        l3368 44A8                                          l3296 42D0  
                                        l3288 42C0                                          l5048 60E6  
                                        l3800 541A                                          l5056 5AF4  
                                        l3720 5AD0                                          l3712 5A52  
                                        l3704 59D6                                          l5152 40EE  
                                        l5144 4066                                          l5136 4020  
                                        l5128 3F66                                          l5400 0EF6  
                                        l5320 07FA                                          l5312 075A  
                                        l5304 0728                                          l5232 01D4  
                                        l5224 017A                                          l5216 0110  
                                        l5208 00BC                                          l4600 617C  
                                        l3562 4E46                                          l3554 4DFE  
                                        l3546 4DA0                                          l3538 4D5C  
                                        l3490 4BE2                                          l3482 4BBE  
                                        l3474 4B8C                                          l3466 4B62  
                                        l3458 4B32                                          l3650 48D2  
                                        l3642 4858                                          l3634 480A  
                                        l3626 47D0                                          l3618 4782  
                                        l3386 4522                                          l3378 44FC  
                                        l3394 4546                                          l3298 42D4  
                                        l5082 5C62                                          l5170 50F2  
                                        l3810 5462                                          l3802 541C  
                                        l5074 5B60                                          l5066 5B36  
                                        l5058 5B12                                          l5162 5D48  
                                        l3722 5AD6                                          l3714 5A60  
                                        l3706 5A04                                          l5154 417E  
                                        l5146 4098                                          l5138 402A  
                                        l5090 3D00                                          l5410 0F9E  
                                        l5402 0F02                                          l5330 0874  
                                        l5322 0810                                          l5314 0770  
                                        l5234 02D2                                          l5226 0188  
                                        l5218 0132                                          l4602 618C  
                                        l3564 4E4C                                          l3556 4E18  
                                        l3548 4DCA                                          l3476 4BA2  
                                        l3468 4B72                                          l3660 494C  
                                        l3652 4908                                          l3644 4878  
                                        l3636 481A                                          l3628 47DC  
                                        l3580 468C                                          l3396 454A  
                                        l3388 4526                                          l5172 51A4  
                                        l3740 593A                                          l3732 58FA  
                                        l3812 5464                                          l3804 5420  
                                        l5068 5B4A                                          l5180 5476  
                                        l3900 4F36                                          l3716 5A72  
                                        l3708 5A14                                          l5156 418E  
                                        l5148 40AA                                          l5092 3D10  
                                        l5500 1948                                          l5420 1092  
                                        l5412 102E                                          l5404 0F12  
                                        l5340 098E                                          l5332 08E0  
                                        l5316 077A                                          l5324 0820  
                                        l5308 073C                                          l5252 03CA  
                                        l5244 0370                                          l5236 033E  
                                        l5260 0416                                          l5228 01A4  
                                        l3566 4E4E                                          l3558 4E34  
                                        l3494 4BF6                                          l3478 4BB2  
                                        l3486 4BD2                                          l3670 49AC  
                                        l3662 495E                                          l3654 4916  
                                        l3646 4888                                          l3638 482A  
                                        l3590 46D2                                          l3582 469C  
                                        l3574 4670                                          l3398 4558  
                                        l5078 5CD8                                          l5174 51D8  
                                        l5166 508E                                          l3750 596A  
                                        l3742 5948                                          l3734 5924  
                                        l3726 58D0                                          l3806 5444  
                                        l5190 557A                                          l5182 54AE  
                                        l3910 4FB6                                          l3902 4F42  
                                        l3718 5A80                                          l5158 419E  
                                        l5094 3D46                                          l5086 3CF0  
                                        l5510 1AF6                                          l5502 19C4  
                                        l5430 1198                                          l5422 10AC  
                                        l5414 1062                                          l5406 0F22  
                                        l5350 0AF2                                          l5342 09FA  
                                        l5326 0842                                          l5262 0432  
                                        l5254 03D8                                          l5246 0392  
                                        l5238 035A                                          l3822 61E6  
                                        l4550 6194                                          l3496 4C10  
                                        l3488 4BE2                                          l3680 4A1A  
                                        l3664 496C                                          l3656 4934  
                                        l3648 48A8                                          l3592 46D8  
                                        l3584 46AC                                          l3576 467C  
                                        l5176 5232                                          l5168 509A  
                                        l3760 5994                                          l3752 5974  
                                        l3736 5926                                          l3728 58E6  
                                        l3808 5454                                          l5192 5580  
                                        l5184 54BC                                          l3920 5048  
                                        l3912 4FEA                                          l3904 4F5E  
                                        l3816 6158                                          l5088 3CF0  
                                        l5600 2420                                          l5520 1B74  
                                        l5512 1B2A                                          l5504 1A30  
                                        l5440 131C                                          l5432 1204  
                                        l5424 10BC                                          l5416 1072  
                                        l5408 0F32                                          l5360 0C96  
                                        l5352 0B26                                          l5328 0866  
                                        l5336 094C                                          l5280 052A  
                                        l5272 04DC                                          l5264 0440  
                                        l5256 0400                                          l5248 03A0  
                                        l3824 61DC                                          l4560 61A8  
                                        l4552 6198                                          l3498 4C20  
                                        l3690 4A82                                          l3674 49D6  
                                        l3682 4A1E                                          l3666 4970  
                                        l3658 493E                                          l3594 46DE  
                                        l3586 46BC                                          l3578 468A  
                                        l5178 5266                                          l3762 59A4  
                                        l3738 5936                                          l3770 52C4  
                                        l5194 55B0                                          l5186 54C8  
                                        l3922 507C                                          l3914 4FF2  
                                        l3906 4F92                                          l3818 6168  
                                        l5098 3DA2                                          l5610 250A  
                                        l5602 243A                                          l5530 1C8C  
                                        l5522 1BA8                                          l5514 1B3A  
                                        l5506 1A56                                          l5450 14B0  
                                        l5442 1350                                          l5434 1238  
                                        l5426 1116                                          l5418 1082  
                                        l5370 0D14                                          l5362 0CA6  
                                        l5354 0B7E                                          l5338 0970  
                                        l5346 0A66                                          l5290 05BC  
                                        l5282 054E                                          l5274 04F4  
                                        l5266 048C                                          l3826 61F0  
                                        l4554 619C                                          l4562 61C6  
                                        l4570 60CE                                          l3692 4A92  
                                        l3684 4A38                                          l3676 49E2  
                                        l3668 497E                                          l3596 46EC  
                                        l3588 46C2                                          l3764 59B4  
                                        l3748 5960                                          l3772 52D4  
                                        l5188 54D4                                          l5196 55B4  
                                        l3916 500E                                          l3908 4F9A  
                                        l5620 2632                                          l5612 2562  
                                        l5604 244A                                          l5540 1D76  
                                        l5532 1C9C                                          l5524 1C14  
                                        l5516 1B4A                                          l5508 1A8A  
                                        l5460 15FC                                          l5452 1508  
                                        l5444 13A8                                          l5436 1290  
                                        l5428 1188                                          l5380 0DBE  
                                        l5364 0CB6                                          l5356 0BB2  
                                        l5348 0A9A                                          l5372 0D4C  
                                        l5292 05F0                                          l5284 056C  
                                        l5276 0502                                          l5268 04A4  
                                        l3828 61FA                                          l4556 61A0  
                                        l4580 5BD8                                          l4572 60DE  
                                        l3694 4AA0                                          l3686 4A4C  
                                        l3678 49F0                                          l3598 46EE  
                                        l3870 5F66                                          l3766 59C4  
                                        l3758 5988                                          l3790 539A  
                                        l3782 5352                                          l3774 52E2  
                                        l3862 6056                                          l5198 55E4  
                                        l3918 5016                                          l5630 27EA  
                                        l5622 268A                                          l5614 2596  
                                        l5606 247E                                          l5550 1E22  
                                        l5542 1DAA                                          l5534 1CB6  
                                        l5526 1C48                                          l5518 1B64  
                                        l5470 16B8                                          l5462 1630  
                                        l5454 153C                                          l5446 1400  
                                        l5438 12E8                                          l5390 0E76  
                                        l5382 0DCE                                          l5374 0D5C  
                                        l5366 0CD0                                          l5358 0BE6  
                                        l5294 0600                                          l5286 0582  
                                        l5710 2D30                                          l4558 61A4  
                                        l4590 5C16                                          l4582 5BE8  
                                        l4566 60BA                                          l3696 4AA2  
                                        l3688 4A66                                          l3872 5F76  
                                        l3792 53A6                                          l3784 535A  
                                        l3776 5328                                          l3864 6068  
                                        l3880 600E                                          l5640 295A  
                                        l5632 2866                                          l5624 26E2  
                                        l5616 25CA                                          l5608 24B2  
                                        l5560 1F20                                          l5544 1DDE  
                                        l5536 1CC6                                          l5480 177E  
                                        l5472 16D2                                          l5464 1664  
                                        l5456 1570                                          l5448 1458  
                                        l5392 0E9A                                          l5376 0D78  
                                        l5384 0DDE                                          l5528 1C7C  
                                        l5368 0CE0                                          l5296 0664  
                                        l5288 05AE                                          l5720 2DA0  
                                        l5712 2D64                                          l5704 2C9E  
                                        l4840 5EF0                                          l4592 5C30  
                                        l4584 5BEA                                          l4576 5BC4  
                                        l4568 60BE                                          l5800 31EE  
                                        l3698 4AA8                                          l3794 53E2  
                                        l3786 5366                                          l3778 533E  
                                        l3866 607A                                          l3890 4EBA  
                                        l5650 2A5C                                          l5642 296A  
                                        l5634 28BE                                          l5626 273A  
                                        l5618 25FE                                          l5546 1DEE  
                                        l5538 1D1E                                          l5490 1882  
                                        l5482 17B2                                          l5474 16E2  
                                        l5466 1698                                          l5458 15C8  
                                        l5394 0EAE                                          l5386 0E46  
                                        l5378 0DAC                                          l5298 066C  
                                        l5730 2E64                                          l5722 2DFA  
                                        l5714 2D9A                                          l5706 2D1C  
                                        l4842 5F02                                          l4850 5648  
                                        l4594 5C40                                          l4586 5C04  
                                        l4578 5BD4                                          l5810 3256  
                                        l5802 31F6                                          l3796 53EE  
                                        l3788 5398                                          l3876 5FE8  
                                        l3892 4EC2                                          l3884 4E5A  
                                        l5644 297A                                          l5636 28F2  
                                        l5628 2792                                          l5572 2040  
                                        l5580 2120                                          l5564 1F8C  
                                        l5556 1E8E                                          l5548 1DFE  
                                        l5492 189C                                          l5484 182E  
                                        l5476 1716                                          l5468 16A8  
                                        l5396 0ED2                                          l5388 0E5E  
                                        l5732 2EAA                                          l5724 2DFE  
                                        l5708 2D20                                          l4844 5F10  
                                        l4860 569C                                          l4852 565A  
                                        l4596 5C5A                                          l4588 5C14  
                                        l5820 32BE                                          l5804 3212  
                                        l5900 38AC                                          l3798 53FC  
                                        l3878 5FFE                                          l3894 4EDE  
                                        l3886 4E6A                                          l5646 29BC  
                                        l5638 2926                                          l5590 2388  
                                        l5582 2192                                          l5574 205E  
                                        l5566 1FD4                                          l5558 1EA6  
                                        l5494 18AC                                          l5486 1862  
                                        l5478 174A                                          l5398 0EE6  
                                        l5742 2F38                                          l5734 2EFE  
                                        l5726 2E0E                                          l5670 2BB6  
                                        l5662 2AFC                                          l5654 2A92  
                                        l4838 5ED8                                          l4870 56FE  
                                        l4854 566C                                          l4862 56E6  
                                        l4846 561A                                          l5830 33B4  
                                        l5806 3226                                          l5910 393C  
                                        l5902 38BE                                          l3896 4F12  
                                        l3888 4E86                                          l5648 2A0C  
                                        l5592 2398                                          l5584 21A2  
                                        l5576 20B4                                          l5496 18E0  
                                        l5488 1872                                          l5760 3032  
                                        l5744 3002                                          l5736 2F32  
                                        l5728 2E1E                                          l5664 2B32  
                                        l5656 2AF6                                          l4864 56F8  
                                        l4856 5696                                          l4848 5636  
                                        l5840 34F0                                          l5832 33E4  
                                        l5808 3244                                          l5816 328E  
                                        l5824 32D2                                          l5920 3A18  
                                        l5912 3960                                          l5904 38E2  
                                        l3898 4F1A                                          l5586 21C4  
                                        l5594 23CC                                          l5498 1914  
                                        l5770 30BA                                          l5762 30A0  
                                        l5754 301A                                          l5746 3006  
                                        l5690 2C4C                                          l5682 2BD4  
                                        l5666 2B36                                          l4874 5704  
                                        l5850 36BC                                          l5842 3500  
                                        l5834 3452                                          l5826 32F0  
                                        l5818 32A0                                          l5930 3ACE  
                                        l5922 3A2A                                          l5914 3972  
                                        l5906 3906                                          l5596 2400  
                                        l5588 22F6                                          l5780 30E0  
                                        l5772 30D6                                          l5756 301E  
                                        l5748 3016                                          l5692 2C5C  
                                        l5684 2C42                                          l5676 2BBC  
                                        l5668 2B46                                          l4884 5758  
                                        l4876 5716                                          l5860 3784  
                                        l5852 36F0                                          l5844 3524  
                                        l5836 349C                                          l5828 330E  
                                        l5940 3B28                                          l5932 3AE0  
                                        l5924 3A3C                                          l5916 39AA  
                                        l5908 3918                                          l5598 2410  
                                        l5790 316A                                          l5766 30A8  
                                        l5694 2C78                                          l5678 2BC0  
                                        l4878 572A                                          l4886 57A0  
                                        l5854 3724                                          l5838 34D4  
                                        l5870 57FC                                          l5950 3BCA  
                                        l5942 3B4C                                          l5934 3AF2  
                                        l5926 3A72                                          l5918 39E2  
                                        l5792 316C                                          l5784 30F4  
                                        l5768 30AA                                          l5696 2C8A  
                                        l5688 2C4A                                          l5856 3758  
                                        l5848 355C                                          l5880 58AA  
                                        l5872 581E                                          l5864 57A4  
                                        l5960 3C22                                          l5952 3BDC  
                                        l5944 3B70                                          l5936 3B04  
                                        l5928 3ABC                                          l5786 3162  
                                        l5778 30DC                                          l5698 2C9A  
                                        l5858 3770                                          l5794 319E  
                                        l5874 5842                                          l5866 57B6  
                                        l5970 3C9A                                          l5962 3C32  
                                        l5954 3BEE                                          l5946 3B82  
                                        l5938 3B16                                          l5890 3826  
                                        l5882 37B2                                          l5796 31CE  
                                        l5876 5864                                          l5868 57D8  
                                        l5972 3CA0                                          l5964 3C42  
                                        l5956 3C00                                          l5948 3BA6  
                                        l5892 383C                                          l5884 37B6  
                                        l5798 31D0                                          l5878 5888  
                                        l5974 3CB8                                          l5966 3C52  
                                        l5958 3C12                                          l5894 384E  
                                        l5886 37C8                                          l5976 3CCC  
                                        l5968 3C76                                          l5896 3872  
                                        l5888 37EC                                          l5978 3CE0  
                                        l5898 3896                                          STR_1 FFFD  
                                        u3000 469C                                          u3001 4698  
                                        u3010 46AC                                          u3011 46A8  
                                        u3100 497E                                          u3020 46EC  
                                        u3101 497A                                          u3021 46E8  
                                        _LATA 3FBA                                          u3110 49AC  
                                        u3030 46FE                                          _LATB 3FBB  
                                        u3111 49A8                                          u3031 46FA  
                                        _LATC 3FBC                                          u3120 49C2  
                                        u3040 470E                                          u2400 422E  
                                        u3200 5A60                                          u3121 49BE  
                                        u3041 470A                                          u2401 422A  
                                        u3201 5A5C                                          u3130 49D6  
                                        u3050 4744                                          u2410 4244  
                                        u3210 5A80                                          u3131 49D2  
                                        u3051 4740                                          u2411 4240  
                                        u3211 5A7C                                          u3140 49F0  
                                        u3060 4754                                          u2500 437E  
                                        u2420 4256                                          u3300 52D4  
                                        u3220 5AD0                                          u3141 49EC  
                                        u3061 4750                                          u2501 437A  
                                        u2421 4252                                          u3301 52D0  
                                        u3221 5ACC                                          u3150 4A38  
                                        u3070 48F2                                          u2510 439E  
                                        u2430 4266                                          u3230 58E6  
                                        u3310 52E2                                          u3151 4A34  
                                        u2511 439A                                          u2431 4262  
                                        u3231 58E2                                          u3311 52DE  
                                        u3160 4A66                                          u3080 494C  
                                        u2600 44DE                                          u2520 43AC  
                                        u2440 42A2                                          u3240 591A  
                                        u3320 533E                                          u2360 5E82  
                                        u3161 4A62                                          u3081 4948  
                                        u2601 44DA                                          u2521 43A8  
                                        u2441 429E                                          u3321 533A  
                                        u2361 5E7E                                          u3170 4AA0  
                                        u3090 496C                                          u2610 450A  
                                        u2530 43BC                                          u2450 42B0  
                                        u2370 41CA                                          u3250 5948  
                                        u3330 5394                                          u5010 0298  
                                        u3171 4A9C                                          u3091 4968  
                                        u3075 48E8                                          u2611 4506  
                                        u2531 43B8                                          u2451 42AC  
                                        u2371 41C6                                          u3251 5944  
                                        u3331 5390                                          u2700 45EC  
                                        u2620 451A                                          u2540 43EE  
                                        u2460 431E                                          u2380 41DC  
                                        u3260 595C                                          u3340 53DE  
                                        u3180 5A04                                          u5100 04A4  
                                        u5020 02D2                                          u4300 5BE8  
                                        u2701 45E8                                          u2621 4516  
                                        u2541 43EA                                          u2461 431A  
                                        u2381 41D8                                          u3261 5958  
                                        u3245 5910                                          u3341 53DA  
                                        u3181 5A00                                          u5101 04A0  
                                        u5021 02CE                                          u5005 0244  
                                        u4301 5BE4                                          u2710 45FE  
                                        u2630 4536                                          u2550 43FC  
                                        u2470 4336                                          u2390 41EC  
                                        u3270 5984                                          u3350 53FC  
                                        u3430 5FFE                                          u3190 5A42  
                                        u5110 04F4                                          u5030 033E  
                                        u5006 024E                                          u2711 45FA  
                                        u2631 4532                                          u2551 43F8  
                                        u2471 4330                                          u2391 41E8  
                                        u3271 5980                                          u3351 53F8  
                                        u3431 5FFA                                          u3191 5A3E  
                                        u5111 04F0                                          u5031 033A  
                                        u5015 028E                                          u5007 025E  
                                        u2800 4B52                                          u2720 460E  
                                        u2640 4546                                          u2560 441A  
                                        u2480 4338                                          u3280 59A4  
                                        u3360 540C                                          u3440 4E86  
                                        u5200 075A                                          u5120 0502  
                                        u5040 035A                                          u4320 5C14  
                                        u2801 4B4E                                          u2721 460A  
                                        u2641 4542                                          u2561 4416  
                                        u3281 59A0                                          u3361 5408  
                                        u3505 5028                                          u3441 4E82  
                                        u5201 0756                                          u5121 04FE  
                                        u5041 0356                                          u4321 5C10  
                                        u2810 4B62                                          u2730 462E  
                                        u2650 4558                                          u2570 4452  
                                        u2490 4360                                          u3290 59B4  
                                        u3370 541A                                          u3450 4EDE  
                                        u5210 0770                                          u5130 056C  
                                        u5050 0392                                          u2811 4B5E  
                                        u2731 462A                                          u2651 4554  
                                        u2571 444E                                          u2491 435C  
                                        u3291 59B0                                          u3371 5416  
                                        u3451 4EDA                                          u5211 076C  
                                        u5131 0568                                          u5051 038E  
                                        u2900 4D1C                                          u2820 4BA2  
                                        u2740 4640                                          u2660 456E  
                                        u2580 4498                                          u3380 5454  
                                        u3460 4F36                                          u5300 0E9A  
                                        u5220 0810                                          u5140 0582  
                                        u5060 03A0                                          u4340 5C40  
                                        u4260 61D8                                          u2901 4D18  
                                        u2821 4B9E                                          u2741 463C  
                                        u2661 456A                                          u2581 4494  
                                        u3381 5450                                          u3461 4F32  
                                        u5301 0E96                                          u5221 080C  
                                        u5141 057E                                          u5061 039C  
                                        u4341 5C3C                                          u4261 61D2  
                                        u2910 4D2E                                          u2830 4BE2  
                                        u2750 465C                                          u2670 4584  
                                        u2590 44CE                                          u3390 5462  
                                        u3470 4F5E                                          u5310 0ED2  
                                        u5230 0842                                          u5150 059E  
                                        u5070 03D8                                          u4318 5BF0  
                                        u4270 60CE                                          u2911 4D2A  
                                        u2831 4BDE                                          u2751 4658  
                                        u2671 4580                                          u2591 44CA  
                                        u3391 545E                                          u3471 4F5A  
                                        u5311 0ECE                                          u5231 083E  
                                        u5151 059A                                          u5071 03D4  
                                        u4319 5C04                                          u4271 60CA  
                                        u2920 4D5C                                          u2840 4C58  
                                        u2760 4ADA                                          u2680 4598  
                                        u3480 4FB6                                          u5400 21C4  
                                        u5240 0866                                          u5160 05BC  
                                        u5080 0432                                          u4600 5636  
                                        u4360 618C                                          u4280 60DE  
                                        u2921 4D58                                          u2841 4C54  
                                        u2761 4AD6                                          u2681 4594  
                                        u3481 4FB2                                          u5401 21C0  
                                        u5241 0862                                          u5161 05B8  
                                        u5081 042E                                          u4601 5632  
                                        u4361 6188                                          u4281 60DA  
                                        u2930 4D72                                          u2850 4C7A  
                                        u2770 4AEC                                          u2690 45B2  
                                        u3490 500E                                          u5330 1E22  
                                        u5250 0874                                          u5170 0600  
                                        u5090 0440                                          u4610 5648  
                                        u4338 5C1C                                          u4290 5BD4  
                                        u4266 61DA                                          u2931 4D6E  
                                        u2851 4C76                                          u2771 4AE8  
                                        u2691 45AE                                          u3491 500A  
                                        u5331 1E1E                                          u5251 0870  
                                        u5171 05FC                                          u5091 043C  
                                        u4611 5644                                          u4339 5C30  
                                        u4291 5BD0                                          u2940 4D86  
                                        u2860 4CA4                                          u2780 4AFC  
                                        u5340 1EA6                                          u5260 0970  
                                        u5180 0664                                          u5500 2BD0  
                                        u4620 566C                                          _PMD0 39C0  
                                        u2941 4D82                                          u2861 4CA0  
                                        u2781 4AF8                                          u5341 1EA2  
                                        u5325 1128                                          u5261 096C  
                                        u5181 0660                                          u5501 2BCC  
                                        u4621 5668                                          _PMD1 39C1  
                                        u2950 4DA0                                          u2870 4CC8  
                                        u2790 4B40                                          u4710 5B06  
                                        u5350 1F20                                          u5270 098E  
                                        u5190 0704                                          u5510 2C5C  
                                        u4630 5696                                          u4358 5C46  
                                        _PMD2 39C2                                          u2951 4D9C  
                                        u2871 4CC4                                          u2791 4B3C  
                                        u5415 21DE                                          u5351 1F1C  
                                        u5271 098A                                          u5191 0700  
                                        u5511 2C58                                          u4631 5692  
                                        u4359 5C5A                                          _PMD3 39C3  
                                        u2960 4DE8                                          u2880 4CDE  
                                        u4720 5B20                                          u4800 3EC6  
                                        u5416 21E8                                          u5360 1FD4  
                                        u5280 0D78                                          u5520 2D30  
                                        u4640 56F8                                          u5600 31EE  
                                        _PMD4 39C4                                          u2961 4DE4  
                                        u2881 4CDA                                          u4721 5B1C  
                                        u4801 3EC2                                          u5425 2248  
                                        u5417 21F8                                          u5361 1FD0  
                                        u5281 0D74                                          u5521 2D2C  
                                        u4641 56F4                                          u5601 31EA  
                                        _PMD5 39C5                                          u2970 4E18  
                                        u2890 4CFC                                          u4730 5B4A  
                                        u4810 3F3C                                          u5450 2388  
                                        u5426 2252                                          u5370 205E  
                                        u5530 2E0E                                          u4650 5716  
                                        u5610 3212                                          _PMD6 39C6  
                                        u2971 4E14                                          u2891 4CF8  
                                        u4731 5B46                                          u4811 3F38  
                                        u5451 2384                                          u5435 22A0  
                                        u5427 2262                                          u5371 205A  
                                        u5531 2E0A                                          u4651 5712  
                                        u5611 320E                                          _PMD7 39C7  
                                        u2980 4E46                                          u4900 55E4  
                                        u4820 3FD8                                          u4740 3D46  
                                        u5436 22AA                                          u5380 20B4  
                                        u5540 3016                                          u4660 5754  
                                        u5620 3244                                          u5700 3CCC  
                                        u2981 4E42                                          u4901 55E0  
                                        u4821 3FD4                                          u4741 3D42  
                                        u5445 234E                                          u5437 22BA  
                                        u5381 20B0                                          u5541 3012  
                                        u4661 5750                                          u5621 3240  
                                        u5701 3CC8                                          u2990 468A  
                                        u4910 5618                                          u4830 4040  
                                        u4750 3DC0                                          u5446 2358  
                                        u5550 302E                                          u5630 3256  
                                        u5710 3CE0                                          u2991 4686  
                                        u4911 5614                                          u4831 403C  
                                        u4751 3DBC                                          u5447 2368  
                                        u5295 0DF4                                          u5551 302A  
                                        u5631 3252                                          u5711 3CDC  
                                        u4840 4056                                          u4760 3DEE  
                                        u5480 2A0C                                          u5296 0DFE  
                                        u4920 00A6                                          u5560 30BA  
                                        u5640 32A0                                          u4841 4052  
                                        u4761 3DEA                                          u5481 2A08  
                                        u5465 298C                                          u5297 0E0E  
                                        u4921 00A2                                          u5561 30B6  
                                        u5641 329C                                          u4850 4098  
                                        u4770 3E10                                          u4930 00D8  
                                        u5570 30F0                                          u5490 2B46  
                                        u5650 32BE                                          u4851 4094  
                                        u4771 3E0C                                          u5475 29D2  
                                        u5395 2150                                          u4931 00D4  
                                        u5571 30EC                                          u5491 2B42  
                                        u5651 32BA                                          u4860 40DC  
                                        u5476 29DC                                          u5396 215A  
                                        u4940 0110                                          u5580 317C  
                                        u5660 32F0                                          u4861 40D8  
                                        u5477 29EC                                          u5397 216A  
                                        u4941 010C                                          u5581 3178  
                                        u5661 32EC                                          u4790 3E8E  
                                        u4950 0132                                          u5670 330E  
                                        u5590 31C0                                          u4791 3E8A  
                                        u4951 012E                                          u5671 330A  
                                        u4960 0188                                          u5680 34F0  
                                        u4881 5094                                          u4785 3E4C  
                                        u4961 0184                                          u5681 34EC  
                                        u4890 55B0                                          u4786 3E56  
                                        u4970 01A4                                          u5690 3770  
                                        u4891 55AC                                          u4875 415E  
                                        u4787 3E66                                          u4971 01A0  
                                        u5691 376C                                          u5595 31B4  
                                        u4980 01D4                                          u4981 01D0  
                                        u4995 01EA                                          u4996 01F4  
                                        u4997 0204                                          _WPUA 3A41  
                                        _WPUB 3A51                                          _WPUC 3A61  
                                        _WPUE 3A81                                          fk@Cc 00C1  
                                        hk@R0 007D                                          fk@Rc 00C5  
                                        _cp_h FFF5                                          _cp_l FFF1  
                                        _half FF75                                          fk@dt 00B9  
                                        _dp_h FF6D                                          _dp_l FF65  
                                        _main 37B2                                          _nanf 6158  
                                        _huge FFCD                                          _expf 317E  
                                        _powf 001E                                          _tiny FFC9  
                                        fsr1h 3FE2                                          fsr2h 3FDA  
                                        indf2 3FDF                                          fsr1l 3FE1  
                                        fsr2l 3FD9                             __end_ofVOC@F23485 FF65  
                                 main@xhatk_1 035A                                          prodh 3FF4  
                                        prodl 3FF3                                          start 001A  
                           EKF@combined_error 00E7                               ___fldiv@new_exp 0065  
                                ___param_bank 0000                                         ??_EKF 005C  
                                 ?_UART1_Read 0001                                         ??_VOC 005A  
                                       EKF@R0 0246                                         EKF@Cc 022A  
                                       EKF@Lk 0244                                         EKF@Rc 022E  
                                       EKF@Rk 0214                                         EKF@dt 0222  
                     __end_of_TMR0_Initialize 6134                ??_TMR0_DefaultInterruptHandler 0001  
               __end_of_OSCILLATOR_Initialize 61C6                                 ___fltol@sign1 0044  
                             __end_of___fladd 4670                                         ?_main 0001  
                                       ?_nanf 0003                                         ?_expf 006D  
                             __end_of___fldiv 4E5A                               __end_of___flneg 6020  
                             __end_of___flmul 4ABE                                         ?_powf 008D  
                             __end_of___flsub 5FAC                               __end_of___fltol 59D6  
                                       _U1P1H 3DED                                         _U1P2H 3DEF  
                                       _U1P3H 3DF1                                         _U1P1L 3DEC  
                                       _U1P2L 3DEE                                         _U1P3L 3DF0  
                                       _U1UIR 3DF8                                         _U1RXB 3DE8  
                                       _U1TXB 3DEA                                         i2l261 60B8  
                                       i2l426 5FDA                                         i2l267 620E  
                                       _OSCEN 39DD                                         _TMR0H 3FB7  
                                       _TMR0L 3FB6                                         _TRISA 3FC2  
                                       _TRISB 3FC3                                         _TRISC 3FC4  
                   ?_TMR0_SetInterruptHandler 0003                          main@Cprime_transpose 0336  
                            __end_of_TMR0_ISR 60BA                                         _lg2_h FF95  
                                       _lg2_l FF91                                         _ln2hi FFE1  
                                       _fabsf 6020                                         _ln2lo FFDD  
                                       fk@fk_ 00C9                               __end_of_mat_get 5D48  
                             __end_of_mat_set 5CD6                                    _Frame_Init 5ED8  
                                       _errno 00FB                                         _ivln2 FF85  
                             __end_of_ivln2_h FFF1                               __end_of_ivln2_l FF85  
                                       _two24 FFD1                               __end_of_scalbnf 508E  
                                       main@I 01DB                                         main@P 0348  
                                       main@V 01DF                                         _sqrtf 3CF0  
                                       nanf@s 0003                                         nanf@u 0007  
                                       expf@c 0089                                         expf@k 009F  
                                       expf@x 006D                                         expf@y 0091  
                                       pclath 3FFA                                         pclatu 3FFB  
                                       tablat 3FF5                                         powf@i 0120  
                                       powf@j 01A4                                         powf@k 0198  
                                       powf@n 0178                                         powf@r 0144  
                                       powf@s 0154                                         powf@t 01A8  
                                       powf@u 016C                                         powf@v 0170  
                                       powf@w 0138                                         powf@x 008D  
                                       powf@y 0091                                         powf@z 01AC  
                                main@rx_frame 03B4                                         status 3FD8  
         fp__UART1_DefaultFramingErrorHandler 0000      __end_of_UART1_DefaultFramingErrorHandler 620C  
          ??_UART1_DefaultFramingErrorHandler 0003             ?_UART1_DefaultFramingErrorHandler 0001  
            _UART1_DefaultFramingErrorHandler 620A                               __initialization 5F20  
                                __end_of_cp_h FFF9                                  __end_of_cp_l FFF5  
                                __end_of_half FF7D                                  __end_of_dp_h FF75  
                                __end_of_dp_l FF6D                                  __end_of_main 3CF0  
                                __end_of_nanf 617A                                  __end_of_huge FFD1  
                                __end_of_expf 37B2                                  __end_of_powf 2A92  
                                __end_of_tiny FFCD                   ??_UART1_DefaultErrorHandler 0003  
                               main@actualSOC 01CB                   ?_INTERRUPT_InterruptManager 0001  
                                ?_UART1_Write 0001                                 ?_mat_multiply 00B3  
                                      EKF@Qk1 0232                         _UART1_is_tx_ready$297 0003  
                                      ??_main 005C                                        ??_nanf 0007  
                                      EKF@fk_ 0220                                        EKF@col 00EC  
                                      ??_expf 0071                                        EKF@row 00ED  
                                      ??_powf 0095                                 __activetblptr 0003  
                            _UART1_Initialize 5DB6                                        ?_fabsf 0003  
                                      VOC@soc 006D                                        _ANSELA 3A40  
                                      _ANSELB 3A50                                        _ANSELC 3A60  
                                      _T0CON0 3FB8                                        _T0CON1 3FB9  
                                      ?_sqrtf 0060                                 _mat_fill_zero 5E1E  
                                      _U1CON0 3DF2                                        _U1CON1 3DF3  
                                      _U1CON2 3DF4                                        _U1BRGH 3DF6  
                                      _U1FIFO 3DF7                                        _U1BRGL 3DF5  
                                      _ODCONA 3A42                                        _ODCONB 3A52  
                                      _ODCONC 3A62                                        _RC6PPS 3A16  
                                      i2l5042 5FB8                                        i2l5044 5FC8  
                                      i2l5046 5FD6                                        i2l4604 6088  
                                      i2l4606 608C                                        i2l4608 60A0  
                                      _INLVLA 3A44                                        _INLVLB 3A54  
                                      _INLVLC 3A64                                        _INLVLE 3A84  
                        main@Eprime_transpose 0296                                        _OSCFRQ 39DF  
                       _UART1_SetErrorHandler 61F0                              __end_of___xxtofl 5476  
                        __end_of_Frame_Update 57A4                                        ___flge 59D6  
                                      fk@Cbat 00BD                           mat_transpose@matrix 00B3  
                                   ??___fladd 0034                                        ___wmul 60E6  
                                   ??___fldiv 0056                                     ??___flneg 0007  
                                   ??___flmul 001B                                     ??___flsub 004E  
                                   ??___fltol 0040                                        hk@Voc0 0079  
                         mat_transpose@result 00B5                                     EKF@Aprime 0218  
                            __end_of_mat_init 6088                                     EKF@Cprime 021A  
                                   EKF@Eprime 021C                                        fabsf@u 0007  
                                   EKF@Fprime 021E                                        fabsf@x 0003  
                            ?_TMR0_Initialize 0001                                ??_mat_multiply 00B9  
                                      _invln2 FFF9                                        clear_0 5F26  
                                      clear_1 5F3E                                        isa$std 0001  
                                      main@Lk 0272                                        main@Vc 01CF  
                                      main@Rk 02CC                                     ??_mat_get 000D  
                                      expf@hi 0095                                        expf@lo 0099  
                                      expf@hx 00A3                                     ??_mat_set 00AE  
                                      expf@xx 008D                                _PMD_Initialize 6134  
                                   ??_scalbnf 0032                                 main@sub_mat_1 02E2  
                               main@sub_mat_2 02A8                                 main@sub_mat_3 02BA  
                                __mediumconst FE9A                                        powf@s2 0184  
                                      powf@t1 017C                                        powf@t2 0110  
                                      tblptrh 3FF7                                        tblptrl 3FF6  
                                      powf@y1 011C                                        tblptru 3FF8  
                                      powf@ax 0168                                        powf@is 018C  
                                      powf@hx 0158                                        powf@hy 0174  
                                      powf@ix 01A0                                        powf@iy 0188  
                                      powf@sn 0180                                   ?_Frame_Init 0003  
                                      sqrtf@i 006D                                        sqrtf@m 0081  
    TMR0_SetInterruptHandler@InterruptHandler 0003                                        sqrtf@q 0075  
                                      sqrtf@r 0085                                        sqrtf@s 0069  
                                      sqrtf@t 0079          __end_of_UART1_SetOverrunErrorHandler 61E6  
                _UART1_SetOverrunErrorHandler 61DC                                        sqrtf@x 0060  
                                      sqrtf@z 007D                              _tiny@sqrtf$F1482 FF7D  
                   _UART1_DefaultErrorHandler 620C                                ?_mat_fill_zero 0003  
                                  ___flge@ff1 004E                                    ___flge@ff2 0052  
                                ___xxtofl@arg 000D                                  ___xxtofl@exp 000C  
                           _SYSTEM_Initialize 6194                                  ___xxtofl@val 0003  
                              mat_fill_zero@i 0009                                 _mat_transpose 57A4  
                                  __accesstop 0060                       __end_of__initialization 5F60  
                                  ___flneg@f1 0003                            ?_SYSTEM_Initialize 0001  
                               ___rparam_used 0001                                    ___fltol@f1 003C  
                              __pcstackCOMRAM 0001                                 __end_of_lg2_h FF99  
                               __end_of_lg2_l FF95                           ??_SYSTEM_Initialize 0005  
                               __end_of_ln2hi FFE5                                     ?_TMR0_ISR 0001  
                               __end_of_fabsf 6054                                 __end_of_ln2lo FFE1  
                               __end_of_ivln2 FF89                                 __end_of_two24 FFD5  
                               __end_of_sqrtf 41B0                           EKF@Aprime_transpose 0234  
                     mat_transpose@matrix_1_1 00BB                       mat_transpose@matrix_1_2 00B7  
                     mat_transpose@matrix_2_1 00BF                       mat_transpose@matrix_2_2 00C3  
                                  __end_of_L1 FFC9                                    __end_of_L2 FFC5  
                                  __end_of_L3 FFC1                                    __end_of_L4 FFBD  
                                  __end_of_L5 FFB9                                    __end_of_L6 FFB5  
                                  __end_of_P1 FFDD                                    __end_of_P2 FFD9  
                                  __end_of_P3 FFA9                                    __end_of_P4 FFA5  
                                  __end_of_P5 FFA1                        __end_of_PMD_Initialize 6158  
                                  __end_of_bp FFED                                    __end_of_cp FF8D  
                                  __end_of_fk 52C2                                    __end_of_hk 5DB6  
                   _UART1_FramingErrorHandler 00F5                                       EKF@Cbat 0226  
                                     EKF@Ik_1 0208                                       EKF@Pk_1 0202  
                                     ??_fabsf 0007                                       EKF@Voc0 0210  
                               EKF@PCorrected 024C                     __end_of_SYSTEM_Initialize 61AE  
                              mat_init@matrix 000C                                       EKF@xhat 023E  
                                     ??_sqrtf 0064                                    __pbssBANK0 00F7  
                                  __pbssBANK1 01E3                                    __pbssBANK3 03B4  
                                  __pbssBANK4 0400                                ?_mat_transpose 00B3  
               ?_UART1_SetOverrunErrorHandler 0003                        ?_UART1_SetErrorHandler 0003  
                                     IVTBASEH 3FD6                                       IVTBASEL 3FD5  
                                     IVTBASEU 3FD7                                  mat_init@rows 000E  
                                   VOC@F23485 FE9B                                       ?___flge 004E  
            __end_of_TMR0_SetInterruptHandler 6204                                  ??_UART1_Read 0003  
                                     ?___wmul 0003                                    ??_TMR0_ISR 0001  
                             ?_PMD_Initialize 0001                                       _U1ERRIE 3DFA  
                                     _U1ERRIR 3DF9                                       _U1RXPPS 3AE7  
                                   ?___xxtofl 0003                           EKF@Cprime_transpose 0242  
                                     _OSCCON1 39D9                                       _OSCCON3 39DB  
                             ??_mat_fill_zero 0005                                       _OSCTUNE 39DE  
                                     _SLRCONA 3A43                                       _SLRCONB 3A53  
                                     _SLRCONC 3A63                                mat_set@element 00A8  
                          __end_of_UART1_Read 5C60                         __end_of_P1@powf$F1397 FFB1  
                                   ?_mat_init 000B                          __end_of_mat_multiply 561A  
                                   VOC@voc_lt 0100                                       __Hparam 0000  
                                     __Lparam 0000                      __end_of_UART1_Initialize 5E1E  
                                     ___fladd 41B0                                       ___fldiv 4ABE  
                                     ___flneg 5FE8                                       ___flmul 4670  
                                     ___flsub 5F66                                       ___fltol 58D0  
                                     __pcinit 5F20                         __end_of_P2@powf$F1398 FFAD  
                                     __ramtop 1000                                       __ptext0 37B2  
                                     __ptext1 57A4                                       __ptext2 317E  
                                     __ptext3 60BA                                       __ptext4 61C6  
                                     __ptext5 617A                                       __ptext6 5BC4  
                                     __ptext7 6208                                       __ptext8 620A  
                                     __ptext9 620C                                       _mat_get 5CD6  
                                     _mat_set 5C60                         _OSCILLATOR_Initialize 61AE  
                                     _ivln2_h FFED                                       _ivln2_l FF81  
                                  ??___xxtofl 0007                                       _scalbnf 4E5A  
                                _Frame_Update 561A                      ??_PIN_MANAGER_Initialize 0003  
                                     main@Qk1 0300                               ??_mat_transpose 005B  
                                     main@fk_ 0260                          end_of_initialization 5F60  
                         EKF@Eprime_transpose 0236                                    ??_mat_init 000E  
              ??_UART1_SetOverrunErrorHandler 0005                                       powf@p_h 0194  
                                     powf@p_l 015C                                       powf@s_h 0164  
                                     powf@t_h 0160                                       powf@s_l 0124  
                                     powf@t_l 0128                                       powf@z_h 0114  
                                     powf@z_l 0118                                    EKF@xhatk_1 0200  
                                     postdec2 3FDD                                       postinc0 3FEE  
                                     postinc1 3FE6                                       postinc2 3FDE  
                    __end_of_tiny@sqrtf$F1482 FF81                                       sqrtf@ix 0089  
                           UART1_Write@txData 0003                      _TMR0_SetInterruptHandler 61FA  
                                 ___fladd@grs 003B                                 ___xxtofl@sign 000B  
                                 ___fldiv@grs 0067                                    main@Aprime 037E  
                                 ___fldiv@rem 0060                                  ??_Frame_Init 0008  
                                  main@Cprime 03A2                                    main@Eprime 0390  
                                  main@Fprime 0312                                   ___flmul@grs 0020  
                                  main@rx_buf 0400                  __end_of_INTERRUPT_Initialize 6208  
                              __end_of___flge 5ADA                                __end_of___wmul 6110  
                          __end_of_Frame_Init 5F20                        ?_OSCILLATOR_Initialize 0001  
                              __end_of_invln2 FFFD                           start_initialization 5F20  
                                 __end_of_EKF 317E                                   __end_of_VOC 5BC4  
                                 __end_of_lg2 FF9D                                   __end_of_ovt FF91  
                     ??_UART1_SetErrorHandler 0005                                    mat_get@row 0012  
                                  ivt0x8_base 0008                                    mat_set@row 005A  
                               mat_get@column 0009                                 mat_get@matrix 000A  
                                    ??___flge 0056                              ??_PMD_Initialize 0003  
                                    ??___wmul 0007                               mat_init@columns 000B  
                                    EKF@index 00EB                                  _mat_multiply 5476  
                           main@xhatCorrected 0324                                     ___fladd@a 0030  
                                   ___fladd@b 002C                                     ___fldiv@a 0052  
                                   ___fldiv@b 004E                                     ___flmul@a 0017  
                                   ___flmul@b 0013                                   __pbssCOMRAM 005C  
                                   ___flsub@a 004A                                     ___flsub@b 0046  
                          _UART1_ErrorHandler 00F1                                 __pcstackBANK0 0060  
                               __pcstackBANK1 0100                                 __pcstackBANK2 0200  
                               __pcstackBANK3 0300                                     hk@SOC_val 0071  
                fp__UART1_DefaultErrorHandler 0000                         _TMR0_InterruptHandler 00EF  
                                   __pnvBANK0 00EF                                     _main$1734 01D7  
                      _PIN_MANAGER_Initialize 5E84                             ?_UART1_Initialize 0001  
        __end_of_UART1_SetFramingErrorHandler 61F0                  _UART1_SetFramingErrorHandler 61E6  
                               __pmediumconst FE9A                                      ?___fladd 002C  
                                    ?___fldiv 004E                                      ?___flneg 0003  
                                    ?___flmul 0013                                      ?___flsub 0046  
                                    ?___fltol 003C                            ??_UART1_Initialize 0005  
                            _uart1RxLastError 005C                                 ??_UART1_Write 0003  
                                   _expf$1736 0079                                     _expf$1737 007D  
                                   _expf$1738 0081                                     _expf$1739 0085  
                ??_INTERRUPT_InterruptManager 0001                                     fk@xhatk_1 00B3  
                                    _EKF$1731 00D3                                      _EKF$1732 00D7  
                                    _EKF$1733 00DB                                   fk@array_mat 00CB  
                               mat_set@column 00A7                                     fabsf@F465 00F7  
                                    ?_mat_get 0009                                 mat_set@matrix 00AC  
                                    ?_mat_set 00A7           fp__UART1_DefaultOverrunErrorHandler 0000  
    __end_of_UART1_DefaultOverrunErrorHandler 620A            ??_UART1_DefaultOverrunErrorHandler 0003  
           ?_UART1_DefaultOverrunErrorHandler 0001              _UART1_DefaultOverrunErrorHandler 6208  
                                    ?_scalbnf 002C                         __end_of_mat_fill_zero 5E84  
                                 _U1ERRIRbits 3DF9                          _INTERRUPT_Initialize 6204  
                                   _powf$1740 019C                                     _powf$1741 014C  
                                   _powf$1742 013C                                     _powf$1750 0108  
                                   _powf$1743 0190                                     _powf$1751 010C  
                                   _powf$1752 0134                                     _powf$1744 012C  
                                   _powf$1745 0100                                     _powf$1746 0104  
                                   _powf$1747 0150                                     _powf$1748 0140  
                                   _powf$1749 0130                             ??_TMR0_Initialize 0005  
                              ___wmul@product 0007         UART1_SetErrorHandler@interruptHandler 0003  
                                    _PIE3bits 3993                    ??_TMR0_SetInterruptHandler 0005  
                                    i2u437_40 60A0                                      i2u437_41 609C  
                                    _PIR3bits 39A3                                      i2u470_40 5FD6  
                                    i2u470_41 5FD2                                      i2u438_48 60A6  
                                    i2u438_49 60B8                                      i2u469_40 5FC8  
                                    i2u469_41 5FC4                                      _TMR0_ISR 6088  
                                  powf@yisint 0148                 ?_UART1_SetFramingErrorHandler 0003  
                               mat_multiply@i 00BE                                 mat_multiply@j 00C0  
                               mat_multiply@k 00BC                           mat_multiply@matrixA 00B3  
                         mat_multiply@matrixB 00B5                           mat_multiply@matrixC 00B7  
                           ___wmul@multiplier 0003                           __end_of_UART1_Write 6194  
                                 _INTCON0bits 3FD2                         ?_INTERRUPT_Initialize 0001  
                                  VOC@soc_int 01CA                         __end_of_mat_transpose 58D0  
                                    fk@F23500 01E3                                      __Hrparam 0000  
                                    __Lrparam 0000                       ??_OSCILLATOR_Initialize 0003  
                           Frame_Update@frame 0003                                      ___xxtofl 52C2  
                                  _T0CON0bits 3FB8                                      __pivt0x8 0008  
                                    __ptext10 6194                                      __ptext11 5DB6  
                                    __ptext20 6204                                      __ptext12 61DC  
                                    __ptext21 561A                                      __ptext13 61E6  
                                    __ptext30 5FE8                                      __ptext22 5ED8  
                                    __ptext14 61F0                                      __ptext31 5476  
                                    __ptext23 2A92                                      __ptext15 6110  
                                    __ptext40 5CD6                                      __ptext32 6054  
                                    __ptext24 001E                                      __ptext16 61FA  
                                    __ptext41 60E6                                      __ptext33 5E1E  
                                    __ptext25 3CF0                                      __ptext17 6134  
                                    __ptext42 5F66                                      __ptext34 5D48  
                                    __ptext26 6158                                      __ptext18 5E84  
                                    __ptext43 41B0                                      __ptext35 5ADA  
                                    __ptext27 59D6                                      __ptext19 61AE  
                                    __ptext44 4670                                      __ptext36 52C2  
                                    __ptext28 4E5A                                      __ptext45 4ABE  
                                    __ptext37 58D0                                      __ptext29 6020  
                                    __ptext46 5FAC                                      __ptext38 508E  
                                    __ptext47 6088                                      __ptext39 5C60  
                                    __ptext48 620E                                      __ptext49 0000  
                                  _U1CON0bits 3DF2                 __end_of_UART1_SetErrorHandler 61FA  
                                    _mat_init 6054                                 _P1@powf$F1397 FFAD  
                             Frame_Init@frame 0003          __end_of_TMR0_DefaultInterruptHandler 6210  
                _TMR0_DefaultInterruptHandler 620E                          expf@__xc8_float_word 0075  
                        powf@__xc8_float_word 01B0                     _UART1_OverrunErrorHandler 00F3  
UART1_SetOverrunErrorHandler@interruptHandler 0003                                      isa$xinst 0000  
                  ?_UART1_DefaultErrorHandler 0001                                      main@Ik_1 01D3  
                                    main@Pk_1 036C            __end_of_INTERRUPT_InterruptManager 5FE8  
                  _INTERRUPT_InterruptManager 5FAC                                  EKF@sub_mat_1 0238  
                                EKF@sub_mat_2 023A                                  EKF@sub_mat_3 023C  
                           _UART1_is_rx_ready 61C6                                      main@xhat 024E  
                                 _UART1_Write 617A                             _UART1_is_tx_ready 60BA  
                               _P2@powf$F1398 FFA9                            ?_UART1_is_rx_ready 0001  
              ??_UART1_SetFramingErrorHandler 0005                            ?_UART1_is_tx_ready 0001  
                                    expf@sign 009D                        ??_INTERRUPT_Initialize 0003  
                         ??_UART1_is_rx_ready 0003                                      scalbnf@n 0030  
                                    scalbnf@u 0036                                      scalbnf@x 002C  
                                    scalbnf@y 003A                           ??_UART1_is_tx_ready 0003  
                                    intlevel2 0000                       ?_PIN_MANAGER_Initialize 0001  
             fp__TMR0_DefaultInterruptHandler 0000                 ?_TMR0_DefaultInterruptHandler 0001  
                                 EKF@temp_val 00DF                     __end_of_UART1_is_rx_ready 61DC  
                                  _UART1_Read 5BC4  UART1_SetFramingErrorHandler@interruptHandler 0003  
                   __end_of_UART1_is_tx_ready 60E6             __end_of_UART1_DefaultErrorHandler 620E  
                             _TMR0_Initialize 6110                                 ?_Frame_Update 0003  
                           EKF@error_estimate 00E3                           mat_fill_zero@matrix 0003  
                               Frame_Init@buf 0005                                 Frame_Init@len 0007  
                               ___fladd@signs 0038                           main@cumulative_time 00EE  
              __end_of_PIN_MANAGER_Initialize 5ED8                         sqrtf@__xc8_float_word 0071  
                                ___fladd@aexp 0039                                  ___fladd@bexp 003A  
                               Frame_Update@b 0005  
